 tbb_debug

 Timestamp is 5c996cbc (Mon Mar 25 20:05:16 2019)

 Preferred load address is 0000000180000000

 Start         Length     Name                   Class
 0001:00000000 00000190H .text$di                CODE
 0001:00000190 000509d0H .text$mn                CODE
 0001:00050b60 00000020H .text$mn$00             CODE
 0001:00050b80 00001ee0H .text$x                 CODE
 0001:00052a60 00000057H .text$yd                CODE
 0002:00000000 00000420H .idata$5                DATA
 0002:00000420 00000010H .00cfg                  DATA
 0002:00000430 00000008H .CRT$XCA                DATA
 0002:00000438 00000040H .CRT$XCU                DATA
 0002:00000478 00000008H .CRT$XCZ                DATA
 0002:00000480 00000008H .CRT$XIA                DATA
 0002:00000488 00000008H .CRT$XIZ                DATA
 0002:00000490 00000008H .CRT$XPA                DATA
 0002:00000498 00000008H .CRT$XPZ                DATA
 0002:000004a0 00000008H .CRT$XTA                DATA
 0002:000004a8 00000008H .CRT$XTZ                DATA
 0002:000004b0 00000000H .gfids$y                DATA
 0002:000004b0 00023600H .rdata                  DATA
 0002:00023ab0 00001cd4H .rdata$r                DATA
 0002:00025784 0000035cH .rdata$zzzdbg           DATA
 0002:00025ae0 00000008H .rtc$IAA                DATA
 0002:00025ae8 00000118H .rtc$IMZ                DATA
 0002:00025c00 00000008H .rtc$IZZ                DATA
 0002:00025c08 00000008H .rtc$TAA                DATA
 0002:00025c10 00000118H .rtc$TMZ                DATA
 0002:00025d28 00000008H .rtc$TZZ                DATA
 0002:00025d30 00006fb0H .xdata                  DATA
 0002:0002cce0 00000590H .xdata$x                DATA
 0002:0002d270 00004154H .edata                  DATA
 0002:000313c4 00000050H .idata$2                DATA
 0002:00031414 00000014H .idata$3                DATA
 0002:00031428 00000420H .idata$4                DATA
 0002:00031848 00000a18H .idata$6                DATA
 0003:00000000 00002480H .data                   DATA
 0003:00002480 00000b40H .data$r                 DATA
 0003:00002fc0 00001ef8H .bss                    DATA
 0004:00000000 000071acH .pdata                  DATA
 0005:00000000 000000a0H .rsrc$01                DATA
 0005:000000a0 00000560H .rsrc$02                DATA

  Address         Publics by Value              Rva+Base               Lib:Object

 0000:00000000       __guard_longjmp_table      0000000000000000     <absolute>
 0000:00000000       __guard_iat_table          0000000000000000     <absolute>
 0000:00000000       __hybrid_auxiliary_iat     0000000000000000     <absolute>
 0000:00000000       __hybrid_code_map          0000000000000000     <absolute>
 0000:00000000       __guard_fids_count         0000000000000000     <absolute>
 0000:00000000       __guard_iat_count          0000000000000000     <absolute>
 0000:00000000       __guard_fids_table         0000000000000000     <absolute>
 0000:00000000       __enclave_config           0000000000000000     <absolute>
 0000:00000000       __volatile_metadata        0000000000000000     <absolute>
 0000:00000000       __dynamic_value_reloc_table 0000000000000000     <absolute>
 0000:00000000       __guard_longjmp_count      0000000000000000     <absolute>
 0000:00000000       __hybrid_code_map_count    0000000000000000     <absolute>
 0000:00000100       __guard_flags              0000000000000100     <absolute>
 0000:00000000       __ImageBase                0000000180000000     <linker-defined>
 0001:00000190       __TBB_machine_fetchadd1    0000000180001190     atomic_support.obj
 0001:00000198       __TBB_machine_fetchstore1  0000000180001198     atomic_support.obj
 0001:000001a0       __TBB_machine_cmpswp1      00000001800011a0     atomic_support.obj
 0001:000001a8       __TBB_machine_fetchadd2    00000001800011a8     atomic_support.obj
 0001:000001b8       __TBB_machine_fetchstore2  00000001800011b8     atomic_support.obj
 0001:000001c0       __TBB_machine_cmpswp2      00000001800011c0     atomic_support.obj
 0001:000001d0       __TBB_machine_pause        00000001800011d0     atomic_support.obj
 0001:000001e0       __TBB_get_cpu_ctl_env      00000001800011e0     intel64_misc.obj
 0001:000001e8       __TBB_set_cpu_ctl_env      00000001800011e8     intel64_misc.obj
 0001:000001f0       __TBB_machine_try_lock_elided 00000001800011f0     itsx.obj
 0001:00000200       __TBB_machine_unlock_elided 0000000180001200     itsx.obj
 0001:00000208       __TBB_machine_begin_transaction 0000000180001208     itsx.obj
 0001:00000218       __TBB_machine_end_transaction 0000000180001218     itsx.obj
 0001:00000220       __TBB_machine_transaction_conflict_abort 0000000180001220     itsx.obj
 0001:00000228       __TBB_machine_is_in_transaction 0000000180001228     itsx.obj
 0001:00000240       ?internal_grow_predicate@hash_map_segment_base@internal@tbb@@QEBA_NXZ 0000000180001240 f   concurrent_hash_map.obj
 0001:000002b0       ??$__TBB_load_with_acquire@_J@internal@tbb@@YA_JAED_J@Z 00000001800012b0 f i concurrent_hash_map.obj
 0001:000002e0       ??$to_bits_ref@$$CD_K@?$atomic_impl@_K@internal@tbb@@CAAEA_JAED_K@Z 00000001800012e0 f i concurrent_hash_map.obj
 0001:00000320       ??$to_value@_K@?$atomic_impl@_K@internal@tbb@@CA_K_J@Z 0000000180001320 f i concurrent_hash_map.obj
 0001:00000380       ??0?$converter@_K@?$atomic_impl@_K@internal@tbb@@QEAA@XZ 0000000180001380 f i concurrent_hash_map.obj
 0001:00000390       ??0?$ptr_converter@PED_K@?$atomic_impl@_K@internal@tbb@@QEAA@PED_K@Z 0000000180001390 f i concurrent_hash_map.obj
 0001:000003b0       ??B?$atomic_impl@_K@internal@tbb@@QEDA_KXZ 00000001800013b0 f i concurrent_hash_map.obj
 0001:00000400       ?__empty_global_delete@@YAXPEAX@Z 0000000180001400 f i concurrent_hash_map.obj
 0001:00000410       ?__empty_global_delete@@YAXPEAX_K@Z 0000000180001410 f i concurrent_hash_map.obj
 0001:00000410       ?__global_delete@@YAXPEAX_K@Z 0000000180001410 f i concurrent_hash_map.obj
 0001:00000420       ?load_with_acquire@?$machine_load_store@_J$07@internal@tbb@@SA_JAED_J@Z 0000000180001420 f i concurrent_hash_map.obj
 0001:00000530       ??0concurrent_queue_base_v3@internal@tbb@@IEAA@_K@Z 0000000180001530 f   concurrent_queue.obj
 0001:000007f0       ??1concurrent_queue_base_v3@internal@tbb@@MEAA@XZ 00000001800017f0 f   concurrent_queue.obj
 0001:000008d0       ?internal_push@concurrent_queue_base_v3@internal@tbb@@IEAAXPEBX@Z 00000001800018d0 f   concurrent_queue.obj
 0001:00000920       ?internal_pop@concurrent_queue_base_v3@internal@tbb@@IEAAXPEAX@Z 0000000180001920 f   concurrent_queue.obj
 0001:00000bd0       ?internal_abort@concurrent_queue_base_v3@internal@tbb@@IEAAXXZ 0000000180001bd0 f   concurrent_queue.obj
 0001:00000c40       ?internal_push_if_not_full@concurrent_queue_base_v3@internal@tbb@@IEAA_NPEBX@Z 0000000180001c40 f   concurrent_queue.obj
 0001:00000c90       ?internal_pop_if_present@concurrent_queue_base_v3@internal@tbb@@IEAA_NPEAX@Z 0000000180001c90 f   concurrent_queue.obj
 0001:00000da0       ?internal_size@concurrent_queue_base_v3@internal@tbb@@IEBA_JXZ 0000000180001da0 f   concurrent_queue.obj
 0001:00000e50       ?internal_empty@concurrent_queue_base_v3@internal@tbb@@IEBA_NXZ 0000000180001e50 f   concurrent_queue.obj
 0001:00000f20       ?internal_set_capacity@concurrent_queue_base_v3@internal@tbb@@IEAAX_J_K@Z 0000000180001f20 f   concurrent_queue.obj
 0001:00000f90       ?internal_finish_clear@concurrent_queue_base_v3@internal@tbb@@IEAAXXZ 0000000180001f90 f   concurrent_queue.obj
 0001:000010b0       ?internal_throw_exception@concurrent_queue_base_v3@internal@tbb@@IEBAXXZ 00000001800020b0 f   concurrent_queue.obj
 0001:000010f0       ?assign@concurrent_queue_base_v3@internal@tbb@@IEAAXAEBV123@@Z 00000001800020f0 f   concurrent_queue.obj
 0001:00001140       ?internal_insert_item@concurrent_queue_base_v3@internal@tbb@@IEAAXPEBXW4copy_specifics@123@@Z 0000000180002140 f   concurrent_queue.obj
 0001:00001470       ?internal_insert_if_not_full@concurrent_queue_base_v3@internal@tbb@@IEAA_NPEBXW4copy_specifics@123@@Z 0000000180002470 f   concurrent_queue.obj
 0001:00001590       ?internal_assign@concurrent_queue_base_v3@internal@tbb@@IEAAXAEBV123@W4copy_specifics@123@@Z 0000000180002590 f   concurrent_queue.obj
 0001:00001760       ?move_content@concurrent_queue_base_v8@internal@tbb@@IEAAXAEAV123@@Z 0000000180002760 f   concurrent_queue.obj
 0001:000017b0       ?internal_push_move_if_not_full@concurrent_queue_base_v8@internal@tbb@@IEAA_NPEBX@Z 00000001800027b0 f   concurrent_queue.obj
 0001:00001800       ?internal_push_move@concurrent_queue_base_v8@internal@tbb@@IEAAXPEBX@Z 0000000180002800 f   concurrent_queue.obj
 0001:00001850       ?initialize@concurrent_queue_iterator_base_v3@internal@tbb@@AEAAXAEBVconcurrent_queue_base_v3@23@_K@Z 0000000180002850 f   concurrent_queue.obj
 0001:00001910       ??0concurrent_queue_iterator_base_v3@internal@tbb@@IEAA@AEBVconcurrent_queue_base_v3@12@@Z 0000000180002910 f   concurrent_queue.obj
 0001:00001960       ??0concurrent_queue_iterator_base_v3@internal@tbb@@IEAA@AEBVconcurrent_queue_base_v3@12@_K@Z 0000000180002960 f   concurrent_queue.obj
 0001:000019b0       ?assign@concurrent_queue_iterator_base_v3@internal@tbb@@IEAAXAEBV123@@Z 00000001800029b0 f   concurrent_queue.obj
 0001:00001aa0       ?advance@concurrent_queue_iterator_base_v3@internal@tbb@@IEAAXXZ 0000000180002aa0 f   concurrent_queue.obj
 0001:00001c30       ??1concurrent_queue_iterator_base_v3@internal@tbb@@IEAA@XZ 0000000180002c30 f   concurrent_queue.obj
 0001:00001ca0       ?push@micro_queue@internal@tbb@@QEAAXPEBX_KAEAVconcurrent_queue_base_v3@23@W4copy_specifics@423@@Z 0000000180002ca0 f   concurrent_queue.obj
 0001:00002000       ?abort_push@micro_queue@internal@tbb@@QEAAX_KAEAVconcurrent_queue_base_v3@23@@Z 0000000180003000 f   concurrent_queue.obj
 0001:00002060       ?pop@micro_queue@internal@tbb@@QEAA_NPEAX_KAEAVconcurrent_queue_base_v3@23@@Z 0000000180003060 f   concurrent_queue.obj
 0001:000022e0       ?assign@micro_queue@internal@tbb@@QEAAAEAU123@AEBU123@AEAVconcurrent_queue_base_v3@23@W4copy_specifics@423@@Z 00000001800032e0 f   concurrent_queue.obj
 0001:000027c0       ?make_copy@micro_queue@internal@tbb@@QEAAPEAUpage@concurrent_queue_base_v3@23@AEAV523@PEBU4523@_K2AEA_KW4copy_specifics@523@@Z 00000001800037c0 f   concurrent_queue.obj
 0001:00002920       ?make_invalid@micro_queue@internal@tbb@@QEAAX_K@Z 0000000180003920 f   concurrent_queue.obj
 0001:00002a10       ??$__TBB_load_relaxed@I@internal@tbb@@YAIAEDI@Z 0000000180003a10 f i concurrent_queue.obj
 0001:00002a40       ??$__TBB_load_relaxed@_K@internal@tbb@@YA_KAED_K@Z 0000000180003a40 f i concurrent_queue.obj
 0001:00002a70       ??$__TBB_load_with_acquire@C@internal@tbb@@YACAEDC@Z 0000000180003a70 f i concurrent_queue.obj
 0001:00002aa0       ??$__TBB_load_with_acquire@H@internal@tbb@@YAHAEDH@Z 0000000180003aa0 f i concurrent_queue.obj
 0001:00002ad0       ??$__TBB_store_relaxed@IH@internal@tbb@@YAXAECIH@Z 0000000180003ad0 f i concurrent_queue.obj
 0001:00002b10       ??$__TBB_store_relaxed@II@internal@tbb@@YAXAECII@Z 0000000180003b10 f i concurrent_queue.obj
 0001:00002b50       ??$__TBB_store_relaxed@_KH@internal@tbb@@YAXAEC_KH@Z 0000000180003b50 f i concurrent_queue.obj
 0001:00002b90       ??$__TBB_store_with_release@CC@internal@tbb@@YAXAECCC@Z 0000000180003b90 f i concurrent_queue.obj
 0001:00002bd0       ??$__TBB_store_with_release@HH@internal@tbb@@YAXAECHH@Z 0000000180003bd0 f i concurrent_queue.obj
 0001:00002c10       ??$__TBB_store_with_release@_J_J@internal@tbb@@YAXAEC_J_J@Z 0000000180003c10 f i concurrent_queue.obj
 0001:00002c50       ??$compare_and_swap@$0A@@?$atomic_impl@_K@internal@tbb@@QEAA_K_K0@Z 0000000180003c50 f i concurrent_queue.obj
 0001:00002cc0       ??$fetch_and_add@$0A@@?$atomic_impl_with_arithmetic@IID@internal@tbb@@QEAAII@Z 0000000180003cc0 f i concurrent_queue.obj
 0001:00002d00       ??$fetch_and_add@$0A@@?$atomic_impl_with_arithmetic@_K_KD@internal@tbb@@QEAA_K_K@Z 0000000180003d00 f i concurrent_queue.obj
 0001:00002d40       ??$is_aligned@$$BY07Umicro_queue@internal@tbb@@@internal@tbb@@YA_NPEAY07Umicro_queue@01@_K@Z 0000000180003d40 f i concurrent_queue.obj
 0001:00002da0       ??$is_aligned@U?$atomic@_K@tbb@@@internal@tbb@@YA_NPEAU?$atomic@_K@1@_K@Z 0000000180003da0 f i concurrent_queue.obj
 0001:00002e00       ??$is_aligned@Vconcurrent_queue_rep@internal@tbb@@@internal@tbb@@YA_NPEAVconcurrent_queue_rep@01@_K@Z 0000000180003e00 f i concurrent_queue.obj
 0001:00002e60       ??$is_power_of_two@_K@internal@tbb@@YA_N_K@Z 0000000180003e60 f i concurrent_queue.obj
 0001:00002ec0       ??$modulo_power_of_two@_K_K@internal@tbb@@YA_K_K0@Z 0000000180003ec0 f i concurrent_queue.obj
 0001:00002f30       ??$notify@Upredicate_leq@internal@tbb@@@concurrent_monitor@internal@tbb@@QEAAXAEBUpredicate_leq@12@@Z 0000000180003f30 f i concurrent_queue.obj
 0001:00002f70       ??$notify_relaxed@Upredicate_leq@internal@tbb@@@concurrent_monitor@internal@tbb@@QEAAXAEBUpredicate_leq@12@@Z 0000000180003f70 f i concurrent_queue.obj
 0001:000031b0       ??$punned_cast@PEAVbinary_semaphore@internal@tbb@@$$CBV?$aligned_space@Vbinary_semaphore@internal@tbb@@$00@3@@internal@tbb@@YAPEAVbinary_semaphore@01@PEBV?$aligned_space@Vbinary_semaphore@internal@tbb@@$00@1@@Z 00000001800041b0 f i concurrent_queue.obj
 0001:000031f0       ??$spin_wait_until_eq@U?$atomic@_K@tbb@@_K@internal@tbb@@YAXAEDU?$atomic@_K@1@_K@Z 00000001800041f0 f i concurrent_queue.obj
 0001:00003250       ??$spin_wait_while_eq@U?$atomic@_K@tbb@@_K@internal@tbb@@YAXAEDU?$atomic@_K@1@_K@Z 0000000180004250 f i concurrent_queue.obj
 0001:000032b0       ??$suppress_unused_warning@E@internal@tbb@@YAXAEBE@Z 00000001800042b0 f i concurrent_queue.obj
 0001:000032c0       ??$to_bits@I@?$atomic_impl@I@internal@tbb@@CAHI@Z 00000001800042c0 f i concurrent_queue.obj
 0001:00003300       ??$to_bits@PEAUpage@concurrent_queue_base_v3@internal@tbb@@@?$atomic_impl@PEAUpage@concurrent_queue_base_v3@internal@tbb@@@internal@tbb@@CA_JPEAUpage@concurrent_queue_base_v3@12@@Z 0000000180004300 f i concurrent_queue.obj
 0001:00003340       ??$to_bits@_K@?$atomic_impl@_K@internal@tbb@@CA_J_K@Z 0000000180004340 f i concurrent_queue.obj
 0001:00003380       ??$to_bits@_N@?$atomic_impl@_N@internal@tbb@@CAC_N@Z 0000000180004380 f i concurrent_queue.obj
 0001:000033c0       ??$to_bits_ref@$$CDI@?$atomic_impl@I@internal@tbb@@CAAEAHAEDI@Z 00000001800043c0 f i concurrent_queue.obj
 0001:00003400       ??$to_bits_ref@$$CD_N@?$atomic_impl@_N@internal@tbb@@CAAEACAED_N@Z 0000000180004400 f i concurrent_queue.obj
 0001:00003440       ??$to_bits_ref@I@?$atomic_impl@I@internal@tbb@@CAAEAHAEAI@Z 0000000180004440 f i concurrent_queue.obj
 0001:00003480       ??$to_bits_ref@PEAUpage@concurrent_queue_base_v3@internal@tbb@@@?$atomic_impl@PEAUpage@concurrent_queue_base_v3@internal@tbb@@@internal@tbb@@CAAEA_JAEAPEAUpage@concurrent_queue_base_v3@12@@Z 0000000180004480 f i concurrent_queue.obj
 0001:000034c0       ??$to_bits_ref@SEAUpage@concurrent_queue_base_v3@internal@tbb@@@?$atomic_impl@PEAUpage@concurrent_queue_base_v3@internal@tbb@@@internal@tbb@@CAAEA_JAEDSEAUpage@concurrent_queue_base_v3@12@@Z 00000001800044c0 f i concurrent_queue.obj
 0001:00003500       ??$to_bits_ref@_K@?$atomic_impl@_K@internal@tbb@@CAAEA_JAEA_K@Z 0000000180004500 f i concurrent_queue.obj
 0001:00003540       ??$to_bits_ref@_N@?$atomic_impl@_N@internal@tbb@@CAAEACAEA_N@Z 0000000180004540 f i concurrent_queue.obj
 0001:00003580       ??$to_value@I@?$atomic_impl@I@internal@tbb@@CAIH@Z 0000000180004580 f i concurrent_queue.obj
 0001:000035d0       ??$to_value@PEAUpage@concurrent_queue_base_v3@internal@tbb@@@?$atomic_impl@PEAUpage@concurrent_queue_base_v3@internal@tbb@@@internal@tbb@@CAPEAUpage@concurrent_queue_base_v3@12@_J@Z 00000001800045d0 f i concurrent_queue.obj
 0001:00003630       ??$to_value@_N@?$atomic_impl@_N@internal@tbb@@CA_NC@Z 0000000180004630 f i concurrent_queue.obj
 0001:00003680       ??0?$cache_aligned_allocator@Vconcurrent_queue_iterator_rep@internal@tbb@@@tbb@@QEAA@XZ 0000000180004680 f i concurrent_queue.obj
 0001:00003690       ??0?$cache_aligned_allocator@Vconcurrent_queue_rep@internal@tbb@@@tbb@@QEAA@XZ 0000000180004690 f i concurrent_queue.obj
 0001:000036a0       ??0?$converter@I@?$atomic_impl@I@internal@tbb@@QEAA@I@Z 00000001800046a0 f i concurrent_queue.obj
 0001:000036c0       ??0?$converter@I@?$atomic_impl@I@internal@tbb@@QEAA@XZ 00000001800046c0 f i concurrent_queue.obj
 0001:000036d0       ??0?$converter@PEAUpage@concurrent_queue_base_v3@internal@tbb@@@?$atomic_impl@PEAUpage@concurrent_queue_base_v3@internal@tbb@@@internal@tbb@@QEAA@PEAUpage@concurrent_queue_base_v3@23@@Z 00000001800046d0 f i concurrent_queue.obj
 0001:000036f0       ??0?$converter@PEAUpage@concurrent_queue_base_v3@internal@tbb@@@?$atomic_impl@PEAUpage@concurrent_queue_base_v3@internal@tbb@@@internal@tbb@@QEAA@XZ 00000001800046f0 f i concurrent_queue.obj
 0001:00003700       ??0?$converter@_K@?$atomic_impl@_K@internal@tbb@@QEAA@_K@Z 0000000180004700 f i concurrent_queue.obj
 0001:00003720       ??0?$converter@_N@?$atomic_impl@_N@internal@tbb@@QEAA@XZ 0000000180004720 f i concurrent_queue.obj
 0001:00003730       ??0?$converter@_N@?$atomic_impl@_N@internal@tbb@@QEAA@_N@Z 0000000180004730 f i concurrent_queue.obj
 0001:00003750       ??0?$ptr_converter@PEAI@?$atomic_impl@I@internal@tbb@@QEAA@PEAI@Z 0000000180004750 f i concurrent_queue.obj
 0001:00003770       ??0?$ptr_converter@PEAPEAUpage@concurrent_queue_base_v3@internal@tbb@@@?$atomic_impl@PEAUpage@concurrent_queue_base_v3@internal@tbb@@@internal@tbb@@QEAA@PEAPEAUpage@concurrent_queue_base_v3@23@@Z 0000000180004770 f i concurrent_queue.obj
 0001:00003790       ??0?$ptr_converter@PEA_K@?$atomic_impl@_K@internal@tbb@@QEAA@PEA_K@Z 0000000180004790 f i concurrent_queue.obj
 0001:000037b0       ??0?$ptr_converter@PEA_N@?$atomic_impl@_N@internal@tbb@@QEAA@PEA_N@Z 00000001800047b0 f i concurrent_queue.obj
 0001:000037d0       ??0?$ptr_converter@PEDI@?$atomic_impl@I@internal@tbb@@QEAA@PEDI@Z 00000001800047d0 f i concurrent_queue.obj
 0001:000037f0       ??0?$ptr_converter@PEDSEAUpage@concurrent_queue_base_v3@internal@tbb@@@?$atomic_impl@PEAUpage@concurrent_queue_base_v3@internal@tbb@@@internal@tbb@@QEAA@PEDSEAUpage@concurrent_queue_base_v3@23@@Z 00000001800047f0 f i concurrent_queue.obj
 0001:00003810       ??0?$ptr_converter@PED_N@?$atomic_impl@_N@internal@tbb@@QEAA@PED_N@Z 0000000180004810 f i concurrent_queue.obj
 0001:00003830       ??0atomic_backoff@internal@tbb@@QEAA@XZ 0000000180004830 f i concurrent_queue.obj
 0001:00003870       ??0atomic_backoff@internal@tbb@@QEAA@_N@Z 0000000180004870 f i concurrent_queue.obj
 0001:000038c0       ??0circular_doubly_linked_list_with_sentinel@internal@tbb@@QEAA@XZ 00000001800048c0 f i concurrent_queue.obj
 0001:00003910       ??0concurrent_monitor@internal@tbb@@QEAA@XZ 0000000180004910 f i concurrent_queue.obj
 0001:00003980       ??0concurrent_queue_iterator_rep@internal@tbb@@QEAA@AEBVconcurrent_queue_base_v3@12@_K@Z 0000000180004980 f i concurrent_queue.obj
 0001:00003a50       ??0micro_queue_pop_finalizer@internal@tbb@@QEAA@AEAUmicro_queue@12@AEAVconcurrent_queue_base_v3@12@_KPEAUpage@412@@Z 0000000180004a50 f i concurrent_queue.obj
 0001:00003ad0       ??0mutex_copy_deprecated_and_disabled@internal@tbb@@QEAA@XZ 0000000180004ad0 f i concurrent_queue.obj
 0001:00003b10       ??0no_copy@internal@tbb@@QEAA@XZ 0000000180004b10 f i concurrent_queue.obj
 0001:00003b20       ??0node_t@circular_doubly_linked_list_with_sentinel@internal@tbb@@QEAA@XZ 0000000180004b20 f i concurrent_queue.obj
 0001:00003b50       ??0predicate_leq@internal@tbb@@QEAA@_K@Z 0000000180004b50 f i concurrent_queue.obj
 0001:00003b70       ??0scoped_lock@spin_mutex@tbb@@QEAA@AEAV12@@Z 0000000180004b70 f i concurrent_queue.obj
 0001:00003be0       ??0spin_mutex@tbb@@QEAA@XZ 0000000180004be0 f i concurrent_queue.obj
 0001:00003c30       ??0thread_context@concurrent_monitor@internal@tbb@@QEAA@XZ 0000000180004c30 f i concurrent_queue.obj
 0001:00003cc0       ??1binary_semaphore@internal@tbb@@QEAA@XZ 0000000180004cc0 f i concurrent_queue.obj
 0001:00003d00       ??1circular_doubly_linked_list_with_sentinel@internal@tbb@@QEAA@XZ 0000000180004d00 f i concurrent_queue.obj
 0001:00003d80       ??1micro_queue_pop_finalizer@internal@tbb@@QEAA@XZ 0000000180004d80 f i concurrent_queue.obj
 0001:00003ea0       ??1scoped_lock@spin_mutex@tbb@@QEAA@XZ 0000000180004ea0 f i concurrent_queue.obj
 0001:00003ef0       ??1thread_context@concurrent_monitor@internal@tbb@@QEAA@XZ 0000000180004ef0 f i concurrent_queue.obj
 0001:00003f70       ??2@YAPEAX_KPEAX@Z         0000000180004f70 f i concurrent_queue.obj
 0001:00003f90       ??4?$atomic@I@tbb@@QEAAAEAU01@AEBU01@@Z 0000000180004f90 f i concurrent_queue.obj
 0001:00003fe0       ??4?$atomic@PEAUpage@concurrent_queue_base_v3@internal@tbb@@@tbb@@QEAAPEAUpage@concurrent_queue_base_v3@internal@1@PEAU2341@@Z 0000000180004fe0 f i concurrent_queue.obj
 0001:00004020       ??4?$atomic@_K@tbb@@QEAAAEAU01@AEBU01@@Z 0000000180005020 f i concurrent_queue.obj
 0001:00004070       ??4?$atomic@_K@tbb@@QEAA_K_K@Z 0000000180005070 f i concurrent_queue.obj
 0001:000040b0       ??4?$atomic@_N@tbb@@QEAA_N_N@Z 00000001800050b0 f i concurrent_queue.obj
 0001:000040f0       ??B?$atomic_impl@I@internal@tbb@@QEDAIXZ 00000001800050f0 f i concurrent_queue.obj
 0001:00004130       ??B?$atomic_impl@PEAUpage@concurrent_queue_base_v3@internal@tbb@@@internal@tbb@@QEDAPEAUpage@concurrent_queue_base_v3@12@XZ 0000000180005130 f i concurrent_queue.obj
 0001:00004180       ??B?$atomic_impl@_N@internal@tbb@@QEDA_NXZ 0000000180005180 f i concurrent_queue.obj
 0001:000041d0       ??E?$atomic_impl_with_arithmetic@IID@internal@tbb@@QEAAIXZ 00000001800051d0 f i concurrent_queue.obj
 0001:00004210       ??E?$atomic_impl_with_arithmetic@_K_KD@internal@tbb@@QEAA_KH@Z 0000000180005210 f i concurrent_queue.obj
 0001:00004250       ??E?$atomic_impl_with_arithmetic@_K_KD@internal@tbb@@QEAA_KXZ 0000000180005250 f i concurrent_queue.obj
 0001:00004290       ??F?$atomic_impl_with_arithmetic@_K_KD@internal@tbb@@QEAA_KH@Z 0000000180005290 f i concurrent_queue.obj
 0001:000042d0       ??F?$atomic_impl_with_arithmetic@_K_KD@internal@tbb@@QEAA_KXZ 00000001800052d0 f i concurrent_queue.obj
 0001:00004310       ??Rpredicate_leq@internal@tbb@@QEBA_N_K@Z 0000000180005310 f i concurrent_queue.obj
 0001:00004360       ??Y?$atomic_impl_with_arithmetic@_K_KD@internal@tbb@@QEAA_K_K@Z 0000000180005360 f i concurrent_queue.obj
 0001:000043a0       ??_Gbinary_semaphore@internal@tbb@@QEAAPEAXI@Z 00000001800053a0 f i concurrent_queue.obj
 0001:00004400       ??_Econcurrent_queue_base_v3@internal@tbb@@MEAAPEAXI@Z 0000000180005400 f i concurrent_queue.obj
 0001:00004400       ??_Gconcurrent_queue_base_v3@internal@tbb@@MEAAPEAXI@Z 0000000180005400 f i concurrent_queue.obj
 0001:00004460       ?P@binary_semaphore@internal@tbb@@QEAAXXZ 0000000180005460 f i concurrent_queue.obj
 0001:000044a0       ?V@binary_semaphore@internal@tbb@@QEAAXXZ 00000001800054a0 f i concurrent_queue.obj
 0001:000044e0       ?__TBB_store_relaxed@internal@tbb@@YAXAEC_K_K@Z 00000001800054e0 f i concurrent_queue.obj
 0001:00004520       ?abort_all@concurrent_monitor@internal@tbb@@QEAAXXZ 0000000180005520 f i concurrent_queue.obj
 0001:00004560       ?add@circular_doubly_linked_list_with_sentinel@internal@tbb@@QEAAXPEAUnode_t@123@@Z 0000000180005560 f i concurrent_queue.obj
 0001:000045f0       ?allocate@?$cache_aligned_allocator@Vconcurrent_queue_iterator_rep@internal@tbb@@@tbb@@QEAAPEAVconcurrent_queue_iterator_rep@internal@2@_KPEBX@Z 00000001800055f0 f i concurrent_queue.obj
 0001:00004640       ?allocate@?$cache_aligned_allocator@Vconcurrent_queue_rep@internal@tbb@@@tbb@@QEAAPEAVconcurrent_queue_rep@internal@2@_KPEBX@Z 0000000180005640 f i concurrent_queue.obj
 0001:00004690       ?atomic_fence@tbb@@YAXXZ   0000000180005690 f i concurrent_queue.obj
 0001:000046a0       ?begin@?$aligned_space@Vbinary_semaphore@internal@tbb@@$00@tbb@@QEBAPEAVbinary_semaphore@internal@2@XZ 00000001800056a0 f i concurrent_queue.obj
 0001:000046d0       ?choose@concurrent_queue_rep@internal@tbb@@QEAAAEAUmicro_queue@23@_K@Z 00000001800056d0 f i concurrent_queue.obj
 0001:00004720       ?clear@circular_doubly_linked_list_with_sentinel@internal@tbb@@QEAAXXZ 0000000180005720 f i concurrent_queue.obj
 0001:00004780       ?commit_wait@concurrent_monitor@internal@tbb@@QEAA_NAEAVthread_context@123@@Z 0000000180005780 f i concurrent_queue.obj
 0001:00004890       ?compare_and_swap@?$atomic_impl@_K@internal@tbb@@QEAA_K_K0@Z 0000000180005890 f i concurrent_queue.obj
 0001:000048e0       ?compare_and_swap@?$atomic_traits@$07$0A@@internal@tbb@@SA_JPECX_J1@Z 00000001800058e0 f i concurrent_queue.obj
 0001:00004930       ?deallocate@?$cache_aligned_allocator@Vconcurrent_queue_iterator_rep@internal@tbb@@@tbb@@QEAAXPEAVconcurrent_queue_iterator_rep@internal@2@_K@Z 0000000180005930 f i concurrent_queue.obj
 0001:00004970       ?deallocate@?$cache_aligned_allocator@Vconcurrent_queue_rep@internal@tbb@@@tbb@@QEAAXPEAVconcurrent_queue_rep@internal@2@_K@Z 0000000180005970 f i concurrent_queue.obj
 0001:000049b0       ?empty@circular_doubly_linked_list_with_sentinel@internal@tbb@@QEBA_NXZ 00000001800059b0 f i concurrent_queue.obj
 0001:00004a00       ?end@circular_doubly_linked_list_with_sentinel@internal@tbb@@QEBAPEBUnode_t@123@XZ 0000000180005a00 f i concurrent_queue.obj
 0001:00004a20       ?fetch_and_add@?$atomic_impl_with_arithmetic@IID@internal@tbb@@QEAAII@Z 0000000180005a20 f i concurrent_queue.obj
 0001:00004a60       ?fetch_and_add@?$atomic_impl_with_arithmetic@_K_KD@internal@tbb@@QEAA_K_K@Z 0000000180005a60 f i concurrent_queue.obj
 0001:00004aa0       ?fetch_and_add@?$atomic_traits@$03$0A@@internal@tbb@@SAHPECXH@Z 0000000180005aa0 f i concurrent_queue.obj
 0001:00004ae0       ?fetch_and_add@?$atomic_traits@$07$0A@@internal@tbb@@SA_JPECX_J@Z 0000000180005ae0 f i concurrent_queue.obj
 0001:00004b20       ?front@circular_doubly_linked_list_with_sentinel@internal@tbb@@QEBAPEAUnode_t@123@XZ 0000000180005b20 f i concurrent_queue.obj
 0001:00004b40       ?get_item@concurrent_queue_iterator_rep@internal@tbb@@QEAA_NAEAPEAX_K@Z 0000000180005b40 f i concurrent_queue.obj
 0001:00004c90       ?index@concurrent_queue_rep@internal@tbb@@SA_K_K@Z 0000000180005c90 f i concurrent_queue.obj
 0001:00004cb0       ?last@circular_doubly_linked_list_with_sentinel@internal@tbb@@QEBAPEAUnode_t@123@XZ 0000000180005cb0 f i concurrent_queue.obj
 0001:00004cd0       ?load@?$machine_load_store_relaxed@I$03@internal@tbb@@SAIAEDI@Z 0000000180005cd0 f i concurrent_queue.obj
 0001:00004ce0       ?load@?$machine_load_store_relaxed@_K$07@internal@tbb@@SA_KAED_K@Z 0000000180005ce0 f i concurrent_queue.obj
 0001:00004cf0       ?load_with_acquire@?$machine_load_store@C$00@internal@tbb@@SACAEDC@Z 0000000180005cf0 f i concurrent_queue.obj
 0001:00004d30       ?load_with_acquire@?$machine_load_store@H$03@internal@tbb@@SAHAEDH@Z 0000000180005d30 f i concurrent_queue.obj
 0001:00004d70       ?pause@atomic_backoff@internal@tbb@@QEAAXXZ 0000000180005d70 f i concurrent_queue.obj
 0001:00004dd0       ?remove@circular_doubly_linked_list_with_sentinel@internal@tbb@@QEAAXAEAUnode_t@123@@Z 0000000180005dd0 f i concurrent_queue.obj
 0001:00004e70       ?semaphore@thread_context@concurrent_monitor@internal@tbb@@QEAAAEAVbinary_semaphore@34@XZ 0000000180005e70 f i concurrent_queue.obj
 0001:00004eb0       ?size@circular_doubly_linked_list_with_sentinel@internal@tbb@@QEBA_KXZ 0000000180005eb0 f i concurrent_queue.obj
 0001:00004ec0       ?store@?$machine_load_store_relaxed@I$03@internal@tbb@@SAXAECII@Z 0000000180005ec0 f i concurrent_queue.obj
 0001:00004ee0       ?store@?$machine_load_store_relaxed@_K$07@internal@tbb@@SAXAEC_K_K@Z 0000000180005ee0 f i concurrent_queue.obj
 0001:00004f00       ?store_with_release@?$atomic_impl@I@internal@tbb@@IEAAII@Z 0000000180005f00 f i concurrent_queue.obj
 0001:00004f60       ?store_with_release@?$atomic_impl@PEAUpage@concurrent_queue_base_v3@internal@tbb@@@internal@tbb@@IEAAPEAUpage@concurrent_queue_base_v3@23@PEAU4523@@Z 0000000180005f60 f i concurrent_queue.obj
 0001:00004fc0       ?store_with_release@?$atomic_impl@_K@internal@tbb@@IEAA_K_K@Z 0000000180005fc0 f i concurrent_queue.obj
 0001:00005020       ?store_with_release@?$atomic_impl@_N@internal@tbb@@IEAA_N_N@Z 0000000180006020 f i concurrent_queue.obj
 0001:00005080       ?store_with_release@?$machine_load_store@C$00@internal@tbb@@SAXAECCC@Z 0000000180006080 f i concurrent_queue.obj
 0001:000050a0       ?store_with_release@?$machine_load_store@H$03@internal@tbb@@SAXAECHH@Z 00000001800060a0 f i concurrent_queue.obj
 0001:000050c0       ?store_with_release@?$machine_load_store@_J$07@internal@tbb@@SAXAEC_J_J@Z 00000001800060c0 f i concurrent_queue.obj
 0001:000050e0       ?throw_exception@internal@tbb@@YAXW4exception_id@12@@Z 00000001800060e0 f i concurrent_queue.obj
 0001:00005110       ?to_thread_context@concurrent_monitor@internal@tbb@@AEAAPEAVthread_context@123@PEAUnode_t@circular_doubly_linked_list_with_sentinel@23@@Z 0000000180006110 f i concurrent_queue.obj
 0001:00005230       ??1concurrent_vector_base_v3@internal@tbb@@IEAA@XZ 0000000180006230 f   concurrent_vector.obj
 0001:00005390       ?internal_reserve@concurrent_vector_base_v3@internal@tbb@@IEAAX_K00@Z 0000000180006390 f   concurrent_vector.obj
 0001:000054c0       ?internal_capacity@concurrent_vector_base_v3@internal@tbb@@IEBA_KXZ 00000001800064c0 f   concurrent_vector.obj
 0001:00005500       ?internal_grow@concurrent_vector_base_v3@internal@tbb@@IEAAX_K00P6AXPEAXPEBX0@Z2@Z 0000000180006500 f   concurrent_vector.obj
 0001:00005740       ?internal_grow_by@concurrent_vector_base_v3@internal@tbb@@IEAA_K_K0P6AXPEAXPEBX0@Z2@Z 0000000180006740 f   concurrent_vector.obj
 0001:000057e0       ?internal_push_back@concurrent_vector_base_v3@internal@tbb@@IEAAPEAX_KAEA_K@Z 00000001800067e0 f   concurrent_vector.obj
 0001:00005910       ?internal_clear@concurrent_vector_base_v3@internal@tbb@@IEAA_KP6AXPEAX_K@Z@Z 0000000180006910 f   concurrent_vector.obj
 0001:00005ad0       ?internal_compact@concurrent_vector_base_v3@internal@tbb@@IEAAPEAX_KPEAXP6AX10@ZP6AX1PEBX0@Z@Z 0000000180006ad0 f   concurrent_vector.obj
 0001:000061f0       ?internal_copy@concurrent_vector_base_v3@internal@tbb@@IEAAXAEBV123@_KP6AXPEAXPEBX1@Z@Z 00000001800071f0 f   concurrent_vector.obj
 0001:00006480       ?internal_assign@concurrent_vector_base_v3@internal@tbb@@IEAAXAEBV123@_KP6AXPEAX1@ZP6AX2PEBX1@Z5@Z 0000000180007480 f   concurrent_vector.obj
 0001:00006a70       ?internal_throw_exception@concurrent_vector_base_v3@internal@tbb@@IEBAX_K@Z 0000000180007a70 f   concurrent_vector.obj
 0001:00006b20       ?internal_swap@concurrent_vector_base_v3@internal@tbb@@IEAAXAEAV123@@Z 0000000180007b20 f   concurrent_vector.obj
 0001:00006cf0       ?internal_resize@concurrent_vector_base_v3@internal@tbb@@IEAAX_K00PEBXP6AXPEAX0@ZP6AX210@Z@Z 0000000180007cf0 f   concurrent_vector.obj
 0001:00006f50       ?internal_grow_to_at_least_with_result@concurrent_vector_base_v3@internal@tbb@@IEAA_K_K0P6AXPEAXPEBX0@Z2@Z 0000000180007f50 f   concurrent_vector.obj
 0001:00007240       ?internal_grow_to_at_least@concurrent_vector_base_v3@internal@tbb@@IEAAX_K0P6AXPEAXPEBX0@Z2@Z 0000000180008240 f   concurrent_vector.obj
 0001:000072a0       ?enable_segment@helper@concurrent_vector_base_v3@internal@tbb@@SA_KAEAV234@_K1_N@Z 00000001800082a0 f   concurrent_vector.obj
 0001:00007620       ?extend_segment_table@helper@concurrent_vector_base_v3@internal@tbb@@SAXAEAV234@_K@Z 0000000180008620 f   concurrent_vector.obj
 0001:00007900       ?cleanup@helper@concurrent_vector_base_v3@internal@tbb@@QEAAXXZ 0000000180008900 f   concurrent_vector.obj
 0001:00007d20       ??$?9Usegment_allocated@concurrent_vector_base_v3@internal@tbb@@@internal@tbb@@YA_NAEBVsegment_value_t@concurrent_vector_base_v3@01@Usegment_allocated@301@@Z 0000000180008d20 f i concurrent_vector.obj
 0001:00007d80       ??$?9Usegment_not_used@concurrent_vector_base_v3@internal@tbb@@@internal@tbb@@YA_NAEBVsegment_value_t@concurrent_vector_base_v3@01@Usegment_not_used@301@@Z 0000000180008d80 f i concurrent_vector.obj
 0001:00007de0       ??$_Adl_verify_range1@PEAVsegment_t@concurrent_vector_base_v3@internal@tbb@@PEAV1234@@std@@YAXAEBQEAVsegment_t@concurrent_vector_base_v3@internal@tbb@@0U?$integral_constant@_N$00@0@@Z 0000000180008de0 f i concurrent_vector.obj
 0001:00007e30       ??$_Adl_verify_range@PEAVsegment_t@concurrent_vector_base_v3@internal@tbb@@PEAV1234@@std@@YAXAEBQEAVsegment_t@concurrent_vector_base_v3@internal@tbb@@0@Z 0000000180008e30 f i concurrent_vector.obj
 0001:00007e80       ??$_Construct_in_place@Vsegment_t@concurrent_vector_base_v3@internal@tbb@@AEBV1234@@std@@YAXAEAVsegment_t@concurrent_vector_base_v3@internal@tbb@@AEBV1234@@Z 0000000180008e80 f i concurrent_vector.obj
 0001:00007ee0       ??$_Copy_unchecked1@PEAVsegment_t@concurrent_vector_base_v3@internal@tbb@@PEAV1234@@std@@YAPEAVsegment_t@concurrent_vector_base_v3@internal@tbb@@PEAV1234@00U_General_ptr_iterator_tag@0@@Z 0000000180008ee0 f i concurrent_vector.obj
 0001:00007f60       ??$_Copy_unchecked@PEAVsegment_t@concurrent_vector_base_v3@internal@tbb@@PEAV1234@@std@@YAPEAVsegment_t@concurrent_vector_base_v3@internal@tbb@@PEAV1234@00@Z 0000000180008f60 f i concurrent_vector.obj
 0001:00007fc0       ??$_Destroy_in_place@Vsegment_t@concurrent_vector_base_v3@internal@tbb@@@std@@YAXAEAVsegment_t@concurrent_vector_base_v3@internal@tbb@@@Z 0000000180008fc0 f i concurrent_vector.obj
 0001:00007ff0       ??$_Destroy_range1@PEAVsegment_t@concurrent_vector_base_v3@internal@tbb@@@std@@YAXPEAVsegment_t@concurrent_vector_base_v3@internal@tbb@@0U?$integral_constant@_N$0A@@0@@Z 0000000180008ff0 f i concurrent_vector.obj
 0001:00008050       ??$_Destroy_range@PEAVsegment_t@concurrent_vector_base_v3@internal@tbb@@@std@@YAXPEAVsegment_t@concurrent_vector_base_v3@internal@tbb@@0@Z 0000000180009050 f i concurrent_vector.obj
 0001:00008090       ??$_Emplace_back@AEBVsegment_t@concurrent_vector_base_v3@internal@tbb@@@?$_Uninitialized_backout@PEAVsegment_t@concurrent_vector_base_v3@internal@tbb@@@std@@QEAAXAEBVsegment_t@concurrent_vector_base_v3@internal@tbb@@@Z 0000000180009090 f i concurrent_vector.obj
 0001:000080f0       ??$_Fill_memset_is_safe@PEAVsegment_t@concurrent_vector_base_v3@internal@tbb@@V1234@@std@@YA?AU?$integral_constant@_N$0A@@0@AEBQEAVsegment_t@concurrent_vector_base_v3@internal@tbb@@AEBV2345@@Z 00000001800090f0 f i concurrent_vector.obj
 0001:00008130       ??$_Fill_n_unchecked2@PEAVsegment_t@concurrent_vector_base_v3@internal@tbb@@_KV1234@@std@@YAPEAVsegment_t@concurrent_vector_base_v3@internal@tbb@@PEAV1234@_KAEBV1234@U?$integral_constant@_N$0A@@0@@Z 0000000180009130 f i concurrent_vector.obj
 0001:000081a0       ??$_Get_unwrapped@Vsegment_t@concurrent_vector_base_v3@internal@tbb@@@std@@YAPEAVsegment_t@concurrent_vector_base_v3@internal@tbb@@QEAV1234@@Z 00000001800091a0 f i concurrent_vector.obj
 0001:000081b0       ??$_Get_unwrapped_n@V?$_Array_iterator@Vsegment_t@concurrent_vector_base_v3@internal@tbb@@$0EA@@std@@_J$0A@@std@@YAPEAVsegment_t@concurrent_vector_base_v3@internal@tbb@@AEBV?$_Array_iterator@Vsegment_t@concurrent_vector_base_v3@internal@tbb@@$0EA@@0@_J@Z 00000001800091b0 f i concurrent_vector.obj
 0001:000082a0       ??$_Get_unwrapped_n@Vsegment_t@concurrent_vector_base_v3@internal@tbb@@_J$0A@@std@@YAPEAVsegment_t@concurrent_vector_base_v3@internal@tbb@@QEAV1234@_J@Z 00000001800092a0 f i concurrent_vector.obj
 0001:000082c0       ??$_Get_unwrapped_n@Vsegment_t@concurrent_vector_base_v3@internal@tbb@@_K$0A@@std@@YAPEAVsegment_t@concurrent_vector_base_v3@internal@tbb@@QEAV1234@_K@Z 00000001800092c0 f i concurrent_vector.obj
 0001:000082e0       ??$_Idl_distance1@PEAVsegment_t@concurrent_vector_base_v3@internal@tbb@@PEAV1234@@std@@YA_JAEBQEAVsegment_t@concurrent_vector_base_v3@internal@tbb@@0Urandom_access_iterator_tag@0@@Z 00000001800092e0 f i concurrent_vector.obj
 0001:00008310       ??$_Idl_distance@PEAVsegment_t@concurrent_vector_base_v3@internal@tbb@@PEAV1234@@std@@YA_JAEBQEAVsegment_t@concurrent_vector_base_v3@internal@tbb@@0@Z 0000000180009310 f i concurrent_vector.obj
 0001:00008350       ??$_Ptr_copy_cat@Vsegment_t@concurrent_vector_base_v3@internal@tbb@@V1234@@std@@YA?AU_General_ptr_iterator_tag@0@AEBQEAVsegment_t@concurrent_vector_base_v3@internal@tbb@@0@Z 0000000180009350 f i concurrent_vector.obj
 0001:00008390       ??$_Seek_wrapped@V?$_Array_iterator@Vsegment_t@concurrent_vector_base_v3@internal@tbb@@$0EA@@std@@PEAVsegment_t@concurrent_vector_base_v3@internal@tbb@@$0A@@std@@YAXAEAV?$_Array_iterator@Vsegment_t@concurrent_vector_base_v3@internal@tbb@@$0EA@@0@AEBQEAVsegment_t@concurrent_vector_base_v3@internal@tbb@@@Z 0000000180009390 f i concurrent_vector.obj
 0001:000083d0       ??$_Seek_wrapped@Vsegment_t@concurrent_vector_base_v3@internal@tbb@@@std@@YAXAEAPEAVsegment_t@concurrent_vector_base_v3@internal@tbb@@QEAV1234@@Z 00000001800093d0 f i concurrent_vector.obj
 0001:000083f0       ??$_Uninitialized_fill_n_unchecked1@PEAVsegment_t@concurrent_vector_base_v3@internal@tbb@@_KV1234@@std@@YAPEAVsegment_t@concurrent_vector_base_v3@internal@tbb@@QEAV1234@_KAEBV1234@U?$integral_constant@_N$0A@@0@@Z 00000001800093f0 f i concurrent_vector.obj
 0001:000084a0       ??$_Verify_range@Vsegment_t@concurrent_vector_base_v3@internal@tbb@@@std@@YAXQEBVsegment_t@concurrent_vector_base_v3@internal@tbb@@0@Z 00000001800094a0 f i concurrent_vector.obj
 0001:00008550       ??$__TBB_load_relaxed@_J@internal@tbb@@YA_JAED_J@Z 0000000180009550 f i concurrent_vector.obj
 0001:00008580       ??$__TBB_store_relaxed@_J_J@internal@tbb@@YAXAEC_J_J@Z 0000000180009580 f i concurrent_vector.obj
 0001:000085c0       ??$addressof@Vsegment_t@concurrent_vector_base_v3@internal@tbb@@@std@@YAPEAVsegment_t@concurrent_vector_base_v3@internal@tbb@@AEAV1234@@Z 00000001800095c0 f i concurrent_vector.obj
 0001:000085d0       ??$apply@Udestroy_body@helper@concurrent_vector_base_v3@internal@tbb@@@helper@concurrent_vector_base_v3@internal@tbb@@QEAA_KAEBUdestroy_body@0123@@Z 00000001800095d0 f i concurrent_vector.obj
 0001:00008740       ??$apply@Uinit_body@helper@concurrent_vector_base_v3@internal@tbb@@@helper@concurrent_vector_base_v3@internal@tbb@@QEAA_KAEBUinit_body@0123@@Z 0000000180009740 f i concurrent_vector.obj
 0001:000088b0       ??$apply@Usafe_init_body@helper@concurrent_vector_base_v3@internal@tbb@@@helper@concurrent_vector_base_v3@internal@tbb@@QEAA_KAEBUsafe_init_body@0123@@Z 00000001800098b0 f i concurrent_vector.obj
 0001:00008a20       ??$compare_and_swap@$0A@@?$atomic_impl@PEAVsegment_t@concurrent_vector_base_v3@internal@tbb@@@internal@tbb@@QEAAPEAVsegment_t@concurrent_vector_base_v3@12@PEAV3412@0@Z 0000000180009a20 f i concurrent_vector.obj
 0001:00008a90       ??$copy@PEAVsegment_t@concurrent_vector_base_v3@internal@tbb@@PEAV1234@@std@@YAPEAVsegment_t@concurrent_vector_base_v3@internal@tbb@@PEAV1234@00@Z 0000000180009a90 f i concurrent_vector.obj
 0001:00008b50       ??$copy@PEAVsegment_t@concurrent_vector_base_v3@internal@tbb@@V1234@$0EA@@std@@YAPEAVsegment_t@concurrent_vector_base_v3@internal@tbb@@PEAV1234@0AEAY0EA@V1234@@Z 0000000180009b50 f i concurrent_vector.obj
 0001:00008be0       ??$copy@PEAVsegment_t@concurrent_vector_base_v3@internal@tbb@@V?$_Array_iterator@Vsegment_t@concurrent_vector_base_v3@internal@tbb@@$0EA@@std@@@std@@YA?AV?$_Array_iterator@Vsegment_t@concurrent_vector_base_v3@internal@tbb@@$0EA@@0@PEAVsegment_t@concurrent_vector_base_v3@internal@tbb@@0V10@@Z 0000000180009be0 f i concurrent_vector.obj
 0001:00008ce0       ??$fetch_and_add@$00@?$atomic_impl_with_arithmetic@_K_KD@internal@tbb@@QEAA_K_K@Z 0000000180009ce0 f i concurrent_vector.obj
 0001:00008d20       ??$fetch_and_increment@$00@?$atomic_impl_with_arithmetic@_K_KD@internal@tbb@@QEAA_KXZ 0000000180009d20 f i concurrent_vector.obj
 0001:00008d60       ??$fill_n@PEAVsegment_t@concurrent_vector_base_v3@internal@tbb@@_KV1234@@std@@YAPEAVsegment_t@concurrent_vector_base_v3@internal@tbb@@PEAV1234@_KAEBV1234@@Z 0000000180009d60 f i concurrent_vector.obj
 0001:00008e10       ??$forward@AEBVsegment_t@concurrent_vector_base_v3@internal@tbb@@@std@@YAAEBVsegment_t@concurrent_vector_base_v3@internal@tbb@@AEBV1234@@Z 0000000180009e10 f i concurrent_vector.obj
 0001:00008e20       ??$load@$00@?$atomic_impl@PEAVsegment_t@concurrent_vector_base_v3@internal@tbb@@@internal@tbb@@QEBAPEAVsegment_t@concurrent_vector_base_v3@12@XZ 0000000180009e20 f i concurrent_vector.obj
 0001:00008e70       ??$load@$00@?$atomic_impl@PEAX@internal@tbb@@QEBAPEAXXZ 0000000180009e70 f i concurrent_vector.obj
 0001:00008ec0       ??$load@$00@?$atomic_impl@_K@internal@tbb@@QEBA_KXZ 0000000180009ec0 f i concurrent_vector.obj
 0001:00008f10       ??$load@$00@segment_t@concurrent_vector_base_v3@internal@tbb@@QEBA?AVsegment_value_t@123@XZ 0000000180009f10 f i concurrent_vector.obj
 0001:00008f60       ??$load@$02@?$atomic_impl@PEAVsegment_t@concurrent_vector_base_v3@internal@tbb@@@internal@tbb@@QEBAPEAVsegment_t@concurrent_vector_base_v3@12@XZ 0000000180009f60 f i concurrent_vector.obj
 0001:00008fb0       ??$load@$02@?$atomic_impl@PEAX@internal@tbb@@QEBAPEAXXZ 0000000180009fb0 f i concurrent_vector.obj
 0001:00009000       ??$load@$02@?$atomic_impl@_K@internal@tbb@@QEBA_KXZ 000000018000a000 f i concurrent_vector.obj
 0001:00009050       ??$load@$02@segment_t@concurrent_vector_base_v3@internal@tbb@@QEBA?AVsegment_value_t@123@XZ 000000018000a050 f i concurrent_vector.obj
 0001:000090a0       ??$load@$02PEAVsegment_t@concurrent_vector_base_v3@internal@tbb@@@tbb@@YAPEAVsegment_t@concurrent_vector_base_v3@internal@0@AEBU?$atomic@PEAVsegment_t@concurrent_vector_base_v3@internal@tbb@@@0@@Z 000000018000a0a0 f i concurrent_vector.obj
 0001:000090d0       ??$load@$02PEAX@tbb@@YAPEAXAEBU?$atomic@PEAX@0@@Z 000000018000a0d0 f i concurrent_vector.obj
 0001:00009100       ??$load@$02_K@tbb@@YA_KAEBU?$atomic@_K@0@@Z 000000018000a100 f i concurrent_vector.obj
 0001:00009130       ??$load@_J@?$atomic_load_store_traits@$00@internal@tbb@@SA_JAED_J@Z 000000018000a130 f i concurrent_vector.obj
 0001:00009160       ??$load@_J@?$atomic_load_store_traits@$02@internal@tbb@@SA_JAED_J@Z 000000018000a160 f i concurrent_vector.obj
 0001:00009190       ??$pointer@D@segment_value_t@concurrent_vector_base_v3@internal@tbb@@QEBAPEADXZ 000000018000a190 f i concurrent_vector.obj
 0001:000091a0       ??$pointer@X@segment_value_t@concurrent_vector_base_v3@internal@tbb@@QEBAPEAXXZ 000000018000a1a0 f i concurrent_vector.obj
 0001:000091b0       ??$publish_segment@PEAX@helper@concurrent_vector_base_v3@internal@tbb@@SAXAEAVsegment_t@123@PEAX@Z 000000018000a1b0 f i concurrent_vector.obj
 0001:00009200       ??$publish_segment@Usegment_allocation_failed@concurrent_vector_base_v3@internal@tbb@@@helper@concurrent_vector_base_v3@internal@tbb@@SAXAEAVsegment_t@123@Usegment_allocation_failed@123@@Z 000000018000a200 f i concurrent_vector.obj
 0001:00009250       ??$publish_segment@Usegment_not_used@concurrent_vector_base_v3@internal@tbb@@@helper@concurrent_vector_base_v3@internal@tbb@@SAXAEAVsegment_t@123@Usegment_not_used@123@@Z 000000018000a250 f i concurrent_vector.obj
 0001:000092a0       ??$spin_wait_while@Usegment_not_used_predicate@helper@concurrent_vector_base_v3@internal@tbb@@@internal@tbb@@YAXUsegment_not_used_predicate@helper@concurrent_vector_base_v3@01@@Z 000000018000a2a0 f i concurrent_vector.obj
 0001:00009300       ??$spin_wait_while_eq@U?$atomic@PEAVsegment_t@concurrent_vector_base_v3@internal@tbb@@@tbb@@PEAVsegment_t@concurrent_vector_base_v3@internal@2@@internal@tbb@@YAXAEDU?$atomic@PEAVsegment_t@concurrent_vector_base_v3@internal@tbb@@@1@PEAVsegment_t@concurrent_vector_base_v3@01@@Z 000000018000a300 f i concurrent_vector.obj
 0001:00009360       ??$store@$01@?$atomic_impl@PEAX@internal@tbb@@QEAAXPEAX@Z 000000018000a360 f i concurrent_vector.obj
 0001:000093c0       ??$store@$01@?$atomic_impl@_K@internal@tbb@@QEAAX_K@Z 000000018000a3c0 f i concurrent_vector.obj
 0001:00009420       ??$store@$01@segment_t@concurrent_vector_base_v3@internal@tbb@@QEAAXPEAX@Z 000000018000a420 f i concurrent_vector.obj
 0001:000094b0       ??$store@$01@segment_t@concurrent_vector_base_v3@internal@tbb@@QEAAXUsegment_allocation_failed@123@@Z 000000018000a4b0 f i concurrent_vector.obj
 0001:00009530       ??$store@$01@segment_t@concurrent_vector_base_v3@internal@tbb@@QEAAXUsegment_not_used@123@@Z 000000018000a530 f i concurrent_vector.obj
 0001:00009570       ??$store@$02@?$atomic_impl@PEAVsegment_t@concurrent_vector_base_v3@internal@tbb@@@internal@tbb@@QEAAXPEAVsegment_t@concurrent_vector_base_v3@12@@Z 000000018000a570 f i concurrent_vector.obj
 0001:000095d0       ??$store@$02@?$atomic_impl@PEAX@internal@tbb@@QEAAXPEAX@Z 000000018000a5d0 f i concurrent_vector.obj
 0001:00009630       ??$store@$02@?$atomic_impl@_K@internal@tbb@@QEAAX_K@Z 000000018000a630 f i concurrent_vector.obj
 0001:00009690       ??$store@$02@segment_t@concurrent_vector_base_v3@internal@tbb@@QEAAXPEAX@Z 000000018000a690 f i concurrent_vector.obj
 0001:00009720       ??$store@$02@segment_t@concurrent_vector_base_v3@internal@tbb@@QEAAXUsegment_not_used@123@@Z 000000018000a720 f i concurrent_vector.obj
 0001:00009760       ??$store@$02PEAVsegment_t@concurrent_vector_base_v3@internal@tbb@@@tbb@@YAXAEAU?$atomic@PEAVsegment_t@concurrent_vector_base_v3@internal@tbb@@@0@PEAVsegment_t@concurrent_vector_base_v3@internal@0@@Z 000000018000a760 f i concurrent_vector.obj
 0001:000097a0       ??$store@$02PEAX@tbb@@YAXAEAU?$atomic@PEAX@0@PEAX@Z 000000018000a7a0 f i concurrent_vector.obj
 0001:000097e0       ??$store@$02_K@tbb@@YAXAEAU?$atomic@_K@0@_K@Z 000000018000a7e0 f i concurrent_vector.obj
 0001:00009820       ??$store@_J@?$atomic_load_store_traits@$01@internal@tbb@@SAXAEC_J_J@Z 000000018000a820 f i concurrent_vector.obj
 0001:00009860       ??$store@_J@?$atomic_load_store_traits@$02@internal@tbb@@SAXAEC_J_J@Z 000000018000a860 f i concurrent_vector.obj
 0001:000098a0       ??$swap@$02PEAVsegment_t@concurrent_vector_base_v3@internal@tbb@@@internal@tbb@@YAXAEAU?$atomic@PEAVsegment_t@concurrent_vector_base_v3@internal@tbb@@@1@0@Z 000000018000a8a0 f i concurrent_vector.obj
 0001:00009900       ??$swap@$02PEAX@internal@tbb@@YAXAEAU?$atomic@PEAX@1@0@Z 000000018000a900 f i concurrent_vector.obj
 0001:00009960       ??$swap@$02_K@internal@tbb@@YAXAEAU?$atomic@_K@1@0@Z 000000018000a960 f i concurrent_vector.obj
 0001:000099c0       ??$to_bits@PEAVsegment_t@concurrent_vector_base_v3@internal@tbb@@@?$atomic_impl@PEAVsegment_t@concurrent_vector_base_v3@internal@tbb@@@internal@tbb@@CA_JPEAVsegment_t@concurrent_vector_base_v3@12@@Z 000000018000a9c0 f i concurrent_vector.obj
 0001:00009a00       ??$to_bits@PEAX@?$atomic_impl@PEAX@internal@tbb@@CA_JPEAX@Z 000000018000aa00 f i concurrent_vector.obj
 0001:00009a40       ??$to_bits_ref@$$CB_K@?$atomic_impl@_K@internal@tbb@@CAAEA_JAEB_K@Z 000000018000aa40 f i concurrent_vector.obj
 0001:00009a80       ??$to_bits_ref@PEAVsegment_t@concurrent_vector_base_v3@internal@tbb@@@?$atomic_impl@PEAVsegment_t@concurrent_vector_base_v3@internal@tbb@@@internal@tbb@@CAAEA_JAEAPEAVsegment_t@concurrent_vector_base_v3@12@@Z 000000018000aa80 f i concurrent_vector.obj
 0001:00009ac0       ??$to_bits_ref@PEAX@?$atomic_impl@PEAX@internal@tbb@@CAAEA_JAEAPEAX@Z 000000018000aac0 f i concurrent_vector.obj
 0001:00009b00       ??$to_bits_ref@QEAVsegment_t@concurrent_vector_base_v3@internal@tbb@@@?$atomic_impl@PEAVsegment_t@concurrent_vector_base_v3@internal@tbb@@@internal@tbb@@CAAEA_JAEBQEAVsegment_t@concurrent_vector_base_v3@12@@Z 000000018000ab00 f i concurrent_vector.obj
 0001:00009b40       ??$to_bits_ref@QEAX@?$atomic_impl@PEAX@internal@tbb@@CAAEA_JAEBQEAX@Z 000000018000ab40 f i concurrent_vector.obj
 0001:00009b80       ??$to_bits_ref@SEAVsegment_t@concurrent_vector_base_v3@internal@tbb@@@?$atomic_impl@PEAVsegment_t@concurrent_vector_base_v3@internal@tbb@@@internal@tbb@@CAAEA_JAEDSEAVsegment_t@concurrent_vector_base_v3@12@@Z 000000018000ab80 f i concurrent_vector.obj
 0001:00009bc0       ??$to_value@PEAVsegment_t@concurrent_vector_base_v3@internal@tbb@@@?$atomic_impl@PEAVsegment_t@concurrent_vector_base_v3@internal@tbb@@@internal@tbb@@CAPEAVsegment_t@concurrent_vector_base_v3@12@_J@Z 000000018000abc0 f i concurrent_vector.obj
 0001:00009c20       ??$to_value@PEAX@?$atomic_impl@PEAX@internal@tbb@@CAPEAX_J@Z 000000018000ac20 f i concurrent_vector.obj
 0001:00009c80       ??$uninitialized_fill_n@PEAVsegment_t@concurrent_vector_base_v3@internal@tbb@@_KV1234@@std@@YAPEAVsegment_t@concurrent_vector_base_v3@internal@tbb@@PEAV1234@_KAEBV1234@@Z 000000018000ac80 f i concurrent_vector.obj
 0001:00009d30       ??0?$_Array_const_iterator@Vsegment_t@concurrent_vector_base_v3@internal@tbb@@$0EA@@std@@QEAA@PEBVsegment_t@concurrent_vector_base_v3@internal@tbb@@_K@Z 000000018000ad30 f i concurrent_vector.obj
 0001:00009d90       ??0?$_Array_iterator@Vsegment_t@concurrent_vector_base_v3@internal@tbb@@$0EA@@std@@QEAA@PEAVsegment_t@concurrent_vector_base_v3@internal@tbb@@_K@Z 000000018000ad90 f i concurrent_vector.obj
 0001:00009de0       ??0?$_Uninitialized_backout@PEAVsegment_t@concurrent_vector_base_v3@internal@tbb@@@std@@QEAA@PEAVsegment_t@concurrent_vector_base_v3@internal@tbb@@@Z 000000018000ade0 f i concurrent_vector.obj
 0001:00009e10       ??0?$converter@PEAVsegment_t@concurrent_vector_base_v3@internal@tbb@@@?$atomic_impl@PEAVsegment_t@concurrent_vector_base_v3@internal@tbb@@@internal@tbb@@QEAA@PEAVsegment_t@concurrent_vector_base_v3@23@@Z 000000018000ae10 f i concurrent_vector.obj
 0001:00009e30       ??0?$converter@PEAVsegment_t@concurrent_vector_base_v3@internal@tbb@@@?$atomic_impl@PEAVsegment_t@concurrent_vector_base_v3@internal@tbb@@@internal@tbb@@QEAA@XZ 000000018000ae30 f i concurrent_vector.obj
 0001:00009e40       ??0?$converter@PEAX@?$atomic_impl@PEAX@internal@tbb@@QEAA@PEAX@Z 000000018000ae40 f i concurrent_vector.obj
 0001:00009e60       ??0?$converter@PEAX@?$atomic_impl@PEAX@internal@tbb@@QEAA@XZ 000000018000ae60 f i concurrent_vector.obj
 0001:00009e70       ??0?$ptr_converter@PEAPEAVsegment_t@concurrent_vector_base_v3@internal@tbb@@@?$atomic_impl@PEAVsegment_t@concurrent_vector_base_v3@internal@tbb@@@internal@tbb@@QEAA@PEAPEAVsegment_t@concurrent_vector_base_v3@23@@Z 000000018000ae70 f i concurrent_vector.obj
 0001:00009e90       ??0?$ptr_converter@PEAPEAX@?$atomic_impl@PEAX@internal@tbb@@QEAA@PEAPEAX@Z 000000018000ae90 f i concurrent_vector.obj
 0001:00009eb0       ??0?$ptr_converter@PEBQEAVsegment_t@concurrent_vector_base_v3@internal@tbb@@@?$atomic_impl@PEAVsegment_t@concurrent_vector_base_v3@internal@tbb@@@internal@tbb@@QEAA@PEBQEAVsegment_t@concurrent_vector_base_v3@23@@Z 000000018000aeb0 f i concurrent_vector.obj
 0001:00009ed0       ??0?$ptr_converter@PEBQEAX@?$atomic_impl@PEAX@internal@tbb@@QEAA@PEBQEAX@Z 000000018000aed0 f i concurrent_vector.obj
 0001:00009ef0       ??0?$ptr_converter@PEB_K@?$atomic_impl@_K@internal@tbb@@QEAA@PEB_K@Z 000000018000aef0 f i concurrent_vector.obj
 0001:00009f10       ??0?$ptr_converter@PEDSEAVsegment_t@concurrent_vector_base_v3@internal@tbb@@@?$atomic_impl@PEAVsegment_t@concurrent_vector_base_v3@internal@tbb@@@internal@tbb@@QEAA@PEDSEAVsegment_t@concurrent_vector_base_v3@23@@Z 000000018000af10 f i concurrent_vector.obj
 0001:00009f30       ??0_Iterator_base12_compatible@std@@QEAA@XZ 000000018000af30 f i concurrent_vector.obj
 0001:00009f60       ??0destroy_body@helper@concurrent_vector_base_v3@internal@tbb@@QEAA@P6AXPEAX_K@Z@Z 000000018000af60 f i concurrent_vector.obj
 0001:00009f80       ??0helper@concurrent_vector_base_v3@internal@tbb@@QEAA@PEAVsegment_t@123@_K1111@Z 000000018000af80 f i concurrent_vector.obj
 0001:0000a000       ??0init_body@helper@concurrent_vector_base_v3@internal@tbb@@QEAA@P6AXPEAXPEBX_K@Z1@Z 000000018000b000 f i concurrent_vector.obj
 0001:0000a040       ??0safe_init_body@helper@concurrent_vector_base_v3@internal@tbb@@QEAA@P6AXPEAXPEBX_K@Z1@Z 000000018000b040 f i concurrent_vector.obj
 0001:0000a080       ??0segment_not_used_predicate@helper@concurrent_vector_base_v3@internal@tbb@@QEAA@AEAVsegment_t@234@@Z 000000018000b080 f i concurrent_vector.obj
 0001:0000a100       ??0segment_t@concurrent_vector_base_v3@internal@tbb@@QEAA@AEBV0123@@Z 000000018000b100 f i concurrent_vector.obj
 0001:0000a150       ??0segment_t@concurrent_vector_base_v3@internal@tbb@@QEAA@XZ 000000018000b150 f i concurrent_vector.obj
 0001:0000a190       ??0segment_value_t@concurrent_vector_base_v3@internal@tbb@@AEAA@PEAX@Z 000000018000b190 f i concurrent_vector.obj
 0001:0000a1b0       ??1?$_Uninitialized_backout@PEAVsegment_t@concurrent_vector_base_v3@internal@tbb@@@std@@QEAA@XZ 000000018000b1b0 f i concurrent_vector.obj
 0001:0000a200       ??1helper@concurrent_vector_base_v3@internal@tbb@@QEAA@XZ 000000018000b200 f i concurrent_vector.obj
 0001:0000a2c0       ??1segment_t@concurrent_vector_base_v3@internal@tbb@@QEAA@XZ 000000018000b2c0 f i concurrent_vector.obj
 0001:0000a340       ??4?$atomic@PEAVsegment_t@concurrent_vector_base_v3@internal@tbb@@@tbb@@QEAAPEAVsegment_t@concurrent_vector_base_v3@internal@1@PEAV2341@@Z 000000018000b340 f i concurrent_vector.obj
 0001:0000a380       ??4segment_t@concurrent_vector_base_v3@internal@tbb@@QEAAAEAV0123@AEBV0123@@Z 000000018000b380 f i concurrent_vector.obj
 0001:0000a3d0       ??8internal@tbb@@YA_NAEBVsegment_value_t@concurrent_vector_base_v3@01@Usegment_allocated@301@@Z 000000018000b3d0 f i concurrent_vector.obj
 0001:0000a420       ??8internal@tbb@@YA_NAEBVsegment_value_t@concurrent_vector_base_v3@01@Usegment_allocation_failed@301@@Z 000000018000b420 f i concurrent_vector.obj
 0001:0000a470       ??8internal@tbb@@YA_NAEBVsegment_value_t@concurrent_vector_base_v3@01@Usegment_not_used@301@@Z 000000018000b470 f i concurrent_vector.obj
 0001:0000a4c0       ??B?$atomic_impl@PEAVsegment_t@concurrent_vector_base_v3@internal@tbb@@@internal@tbb@@QEDAPEAVsegment_t@concurrent_vector_base_v3@12@XZ 000000018000b4c0 f i concurrent_vector.obj
 0001:0000a510       ??Rdestroy_body@helper@concurrent_vector_base_v3@internal@tbb@@QEBAXAEAVsegment_t@234@PEAX_K@Z 000000018000b510 f i concurrent_vector.obj
 0001:0000a580       ??Rinit_body@helper@concurrent_vector_base_v3@internal@tbb@@QEBAXAEAVsegment_t@234@PEAX_K@Z 000000018000b580 f i concurrent_vector.obj
 0001:0000a5d0       ??Rsafe_init_body@helper@concurrent_vector_base_v3@internal@tbb@@QEBAXAEAVsegment_t@234@PEAX_K@Z 000000018000b5d0 f i concurrent_vector.obj
 0001:0000a640       ??Rsegment_not_used_predicate@helper@concurrent_vector_base_v3@internal@tbb@@QEBA_NXZ 000000018000b640 f i concurrent_vector.obj
 0001:0000a690       ??_Gsegment_t@concurrent_vector_base_v3@internal@tbb@@QEAAPEAXI@Z 000000018000b690 f i concurrent_vector.obj
 0001:0000a6f0       ?_Release@?$_Uninitialized_backout@PEAVsegment_t@concurrent_vector_base_v3@internal@tbb@@@std@@QEAAPEAVsegment_t@concurrent_vector_base_v3@internal@tbb@@XZ 000000018000b6f0 f i concurrent_vector.obj
 0001:0000a720       ?_Seek_to@?$_Array_const_iterator@Vsegment_t@concurrent_vector_base_v3@internal@tbb@@$0EA@@std@@QEAAXPEBVsegment_t@concurrent_vector_base_v3@internal@tbb@@@Z 000000018000b720 f i concurrent_vector.obj
 0001:0000a750       ?_Unwrapped@?$_Array_const_iterator@Vsegment_t@concurrent_vector_base_v3@internal@tbb@@$0EA@@std@@QEBAPEBVsegment_t@concurrent_vector_base_v3@internal@tbb@@XZ 000000018000b750 f i concurrent_vector.obj
 0001:0000a770       ?_Unwrapped@?$_Array_iterator@Vsegment_t@concurrent_vector_base_v3@internal@tbb@@$0EA@@std@@QEBAPEAVsegment_t@concurrent_vector_base_v3@internal@tbb@@XZ 000000018000b770 f i concurrent_vector.obj
 0001:0000a7a0       ?_Verify_offset@?$_Array_const_iterator@Vsegment_t@concurrent_vector_base_v3@internal@tbb@@$0EA@@std@@QEBAX_J@Z 000000018000b7a0 f i concurrent_vector.obj
 0001:0000a990       ?acquire_segment@helper@concurrent_vector_base_v3@internal@tbb@@SAAEAVsegment_t@234@AEAV234@_K1_N@Z 000000018000b990 f i concurrent_vector.obj
 0001:0000aab0       ?allocate_segment@helper@concurrent_vector_base_v3@internal@tbb@@SAPEAXAEAV234@_K@Z 000000018000bab0 f i concurrent_vector.obj
 0001:0000ab10       ?assign_first_segment_if_necessary@helper@concurrent_vector_base_v3@internal@tbb@@SAXAEAV234@_K@Z 000000018000bb10 f i concurrent_vector.obj
 0001:0000ab70       ?compare_and_swap@?$atomic_impl@PEAVsegment_t@concurrent_vector_base_v3@internal@tbb@@@internal@tbb@@QEAAPEAVsegment_t@concurrent_vector_base_v3@23@PEAV4523@0@Z 000000018000bb70 f i concurrent_vector.obj
 0001:0000abe0       ?enforce_segment_allocated@internal@tbb@@YAXAEBVsegment_value_t@concurrent_vector_base_v3@12@W4exception_id@12@@Z 000000018000bbe0 f i concurrent_vector.obj
 0001:0000ac30       ?extend_table_if_necessary@helper@concurrent_vector_base_v3@internal@tbb@@SAXAEAV234@_K1@Z 000000018000bc30 f i concurrent_vector.obj
 0001:0000aca0       ?fetch_and_add@?$atomic_traits@$07$00@internal@tbb@@SA_JPECX_J@Z 000000018000bca0 f i concurrent_vector.obj
 0001:0000ace0       ?find_segment_end@helper@concurrent_vector_base_v3@internal@tbb@@SA_KAEBV234@@Z 000000018000bce0 f i concurrent_vector.obj
 0001:0000ada0       ?first_segment@helper@concurrent_vector_base_v3@internal@tbb@@QEAAXXZ 000000018000bda0 f i concurrent_vector.obj
 0001:0000af00       ?get_segment_value@helper@concurrent_vector_base_v3@internal@tbb@@QEAA?AVsegment_value_t@234@_K_N@Z 000000018000bf00 f i concurrent_vector.obj
 0001:0000afd0       ?incompact_predicate@helper@concurrent_vector_base_v3@internal@tbb@@SA_N_K@Z 000000018000bfd0 f i concurrent_vector.obj
 0001:0000b040       ?load@?$machine_load_store_relaxed@_J$07@internal@tbb@@SA_JAED_J@Z 000000018000c040 f i concurrent_vector.obj
 0001:0000b050       ?next_segment@helper@concurrent_vector_base_v3@internal@tbb@@QEAAXXZ 000000018000c050 f i concurrent_vector.obj
 0001:0000b0f0       ?segment_base@concurrent_vector_base_v3@internal@tbb@@KA_K_K@Z 000000018000c0f0 f i concurrent_vector.obj
 0001:0000b130       ?segment_index_of@concurrent_vector_base_v3@internal@tbb@@KA_K_K@Z 000000018000c130 f i concurrent_vector.obj
 0001:0000b170       ?segment_size@concurrent_vector_base_v3@internal@tbb@@KA_K_K@Z 000000018000c170 f i concurrent_vector.obj
 0001:0000b1b0       ?store@?$machine_load_store_relaxed@_J$07@internal@tbb@@SAXAEC_J_J@Z 000000018000c1b0 f i concurrent_vector.obj
 0001:0000b1d0       ?store_with_release@?$atomic_impl@PEAVsegment_t@concurrent_vector_base_v3@internal@tbb@@@internal@tbb@@IEAAPEAVsegment_t@concurrent_vector_base_v3@23@PEAV4523@@Z 000000018000c1d0 f i concurrent_vector.obj
 0001:0000b230       ?swap@internal@tbb@@YAXAEAVsegment_t@concurrent_vector_base_v3@12@0@Z 000000018000c230 f i concurrent_vector.obj
 0001:0000b280       ?swap@segment_t@concurrent_vector_base_v3@internal@tbb@@QEAAXAEAV1234@@Z 000000018000c280 f i concurrent_vector.obj
 0001:0000b2c0       ?dynamic_link@internal@tbb@@YA_NPEBDQEBUdynamic_link_descriptor@12@_KPEAPEAUHINSTANCE__@@H@Z 000000018000c2c0 f   dynamic_link.obj
 0001:0000b3b0       ?dynamic_unlink@internal@tbb@@YAXPEAUHINSTANCE__@@@Z 000000018000c3b0 f   dynamic_link.obj
 0001:0000b3f0       ?dynamic_unlink_all@internal@tbb@@YAXXZ 000000018000c3f0 f   dynamic_link.obj
 0001:0000b6c0       ?init_atomic_incrementer@internal@tbb@@YAXAEAU?$atomic@_K@2@@Z 000000018000c6c0 f   dynamic_link.obj
 0001:0000b9b0       ?init_dynamic_link_data@internal@tbb@@YAXXZ 000000018000c9b0 f   dynamic_link.obj
 0001:0000bb30       ?dynamic_load@internal@tbb@@YAPEAUHINSTANCE__@@PEBDQEBUdynamic_link_descriptor@12@_K@Z 000000018000cb30 f   dynamic_link.obj
 0001:0000bcc0       ??$atomic_do_once@P6AXXZ@internal@tbb@@YAXAEBQ6AXXZAEAU?$atomic@W4do_once_state@internal@tbb@@@1@@Z 000000018000ccc0 f i dynamic_link.obj
 0001:0000bd50       ??$compare_and_swap@$0A@@?$atomic_impl@W4do_once_state@internal@tbb@@@internal@tbb@@QEAA?AW4do_once_state@12@W4312@0@Z 000000018000cd50 f i dynamic_link.obj
 0001:0000bdb0       ??$spin_wait_while_eq@U?$atomic@W4do_once_state@internal@tbb@@@tbb@@W4do_once_state@internal@2@@internal@tbb@@YAXAEDU?$atomic@W4do_once_state@internal@tbb@@@1@W4do_once_state@01@@Z 000000018000cdb0 f i dynamic_link.obj
 0001:0000be10       ??$suppress_unused_warning@PEBD@internal@tbb@@YAXAEBQEBD@Z 000000018000ce10 f i dynamic_link.obj
 0001:0000be20       ??$suppress_unused_warning@PEBDQEBUdynamic_link_descriptor@internal@tbb@@_K@internal@tbb@@YAXAEBQEBDAEBQEBUdynamic_link_descriptor@01@AEB_K@Z 000000018000ce20 f i dynamic_link.obj
 0001:0000be40       ??$to_bits@W4do_once_state@internal@tbb@@@?$atomic_impl@W4do_once_state@internal@tbb@@@internal@tbb@@CAHW4do_once_state@12@@Z 000000018000ce40 f i dynamic_link.obj
 0001:0000be80       ??$to_bits_ref@$$CDW4do_once_state@internal@tbb@@@?$atomic_impl@W4do_once_state@internal@tbb@@@internal@tbb@@CAAEAHAEDW4do_once_state@12@@Z 000000018000ce80 f i dynamic_link.obj
 0001:0000bec0       ??$to_bits_ref@W4do_once_state@internal@tbb@@@?$atomic_impl@W4do_once_state@internal@tbb@@@internal@tbb@@CAAEAHAEAW4do_once_state@12@@Z 000000018000cec0 f i dynamic_link.obj
 0001:0000bf00       ??$to_value@W4do_once_state@internal@tbb@@@?$atomic_impl@W4do_once_state@internal@tbb@@@internal@tbb@@CA?AW4do_once_state@12@H@Z 000000018000cf00 f i dynamic_link.obj
 0001:0000bf50       ??0?$converter@W4do_once_state@internal@tbb@@@?$atomic_impl@W4do_once_state@internal@tbb@@@internal@tbb@@QEAA@W4do_once_state@23@@Z 000000018000cf50 f i dynamic_link.obj
 0001:0000bf70       ??0?$converter@W4do_once_state@internal@tbb@@@?$atomic_impl@W4do_once_state@internal@tbb@@@internal@tbb@@QEAA@XZ 000000018000cf70 f i dynamic_link.obj
 0001:0000bf80       ??0?$ptr_converter@PEAW4do_once_state@internal@tbb@@@?$atomic_impl@W4do_once_state@internal@tbb@@@internal@tbb@@QEAA@PEAW4do_once_state@23@@Z 000000018000cf80 f i dynamic_link.obj
 0001:0000bfa0       ??0?$ptr_converter@PEDW4do_once_state@internal@tbb@@@?$atomic_impl@W4do_once_state@internal@tbb@@@internal@tbb@@QEAA@PEDW4do_once_state@23@@Z 000000018000cfa0 f i dynamic_link.obj
 0001:0000bfc0       ??0static_init_dl_data_t@internal@tbb@@QEAA@XZ 000000018000cfc0 f i dynamic_link.obj
 0001:0000bff0       ??4?$atomic@W4do_once_state@internal@tbb@@@tbb@@QEAA?AW4do_once_state@internal@1@W4231@@Z 000000018000cff0 f i dynamic_link.obj
 0001:0000c030       ??B?$atomic_impl@W4do_once_state@internal@tbb@@@internal@tbb@@QEDA?AW4do_once_state@12@XZ 000000018000d030 f i dynamic_link.obj
 0001:0000c070       ?add@handles_t@internal@tbb@@QEAAXAEBQEAUHINSTANCE__@@@Z 000000018000d070 f i dynamic_link.obj
 0001:0000c0f0       ?compare_and_swap@?$atomic_impl@W4do_once_state@internal@tbb@@@internal@tbb@@QEAA?AW4do_once_state@23@W4423@0@Z 000000018000d0f0 f i dynamic_link.obj
 0001:0000c130       ?compare_and_swap@?$atomic_traits@$03$0A@@internal@tbb@@SAHPECXHH@Z 000000018000d130 f i dynamic_link.obj
 0001:0000c170       ?free@handles_t@internal@tbb@@QEAAXXZ 000000018000d170 f i dynamic_link.obj
 0001:0000c1e0       ?init@handles_t@internal@tbb@@QEAAXXZ 000000018000d1e0 f i dynamic_link.obj
 0001:0000c220       ?run_initializer@internal@tbb@@YAXP6AXXZAEAU?$atomic@W4do_once_state@internal@tbb@@@2@@Z 000000018000d220 f i dynamic_link.obj
 0001:0000c260       ?store_with_release@?$atomic_impl@W4do_once_state@internal@tbb@@@internal@tbb@@IEAA?AW4do_once_state@23@W4423@@Z 000000018000d260 f i dynamic_link.obj
 0001:0000c2c0       ?strrchr@@YAPEADQEADH@Z    000000018000d2c0 f i dynamic_link.obj
 0001:0000c300       __itt_set_error_handler    000000018000d300 f   itt_notify.obj
 0001:0000c350       __itt_fini_ittlib          000000018000d350 f   itt_notify.obj
 0001:00011580       __itt_init_ittlib          0000000180012580 f   itt_notify.obj
 0001:000119a0       ?__TBB_load_ittnotify@internal@tbb@@YAHXZ 00000001800129a0 f   itt_notify.obj
 0001:000119d0       ?__itt_interlocked_increment@@YAJPECJ@Z 00000001800129d0 f i itt_notify.obj
 0001:000119f0       ?NFS_GetLineSize@internal@tbb@@YA_KXZ 00000001800129f0 f   cache_aligned_allocator.obj
 0001:00011a10       ?NFS_Allocate@internal@tbb@@YAPEAX_K0PEAX@Z 0000000180012a10 f   cache_aligned_allocator.obj
 0001:00011b60       ?NFS_Free@internal@tbb@@YAXPEAX@Z 0000000180012b60 f   cache_aligned_allocator.obj
 0001:00011ba0       ?deallocate_via_handler_v3@internal@tbb@@YAXPEAX@Z 0000000180012ba0 f   cache_aligned_allocator.obj
 0001:00011be0       ?allocate_via_handler_v3@internal@tbb@@YAPEAX_K@Z 0000000180012be0 f   cache_aligned_allocator.obj
 0001:00011c40       ?is_malloc_used_v3@internal@tbb@@YA_NXZ 0000000180012c40 f   cache_aligned_allocator.obj
 0001:00012130       ?initialize_handler_pointers@internal@tbb@@YAXXZ 0000000180013130 f   cache_aligned_allocator.obj
 0001:00012220       ?initialize_cache_aligned_allocator@internal@tbb@@YAXXZ 0000000180013220 f   cache_aligned_allocator.obj
 0001:00012260       ??$is_aligned@X@internal@tbb@@YA_NPEAX_K@Z 0000000180013260 f i cache_aligned_allocator.obj
 0001:000122e0       ?set_end_of_input@filter@tbb@@IEAAXXZ 00000001800132e0 f   pipeline.obj
 0001:000123c0       ??1filter@tbb@@UEAA@XZ     00000001800133c0 f   pipeline.obj
 0001:000124b0       ?has_more_work@filter@tbb@@AEAA_NXZ 00000001800134b0 f   pipeline.obj
 0001:00012570       ?try_process_item@thread_bound_filter@tbb@@QEAA?AW4result_type@12@XZ 0000000180013570 f   pipeline.obj
 0001:000125b0       ?process_item@thread_bound_filter@tbb@@QEAA?AW4result_type@12@XZ 00000001800135b0 f   pipeline.obj
 0001:000125f0       ?internal_process_item@thread_bound_filter@tbb@@AEAA?AW4result_type@12@_N@Z 00000001800135f0 f   pipeline.obj
 0001:00012950       ??0pipeline@tbb@@QEAA@XZ   0000000180013950 f   pipeline.obj
 0001:000129f0       ??1pipeline@tbb@@UEAA@XZ   00000001800139f0 f   pipeline.obj
 0001:00012a40       ?add_filter@pipeline@tbb@@QEAAXAEAVfilter@2@@Z 0000000180013a40 f   pipeline.obj
 0001:00012e80       ?run@pipeline@tbb@@QEAAX_K@Z 0000000180013e80 f   pipeline.obj
 0001:00012f80       ?run@pipeline@tbb@@QEAAX_KAEAVtask_group_context@2@@Z 0000000180013f80 f   pipeline.obj
 0001:000131a0       ?clear@pipeline@tbb@@QEAAXXZ 00000001800141a0 f   pipeline.obj
 0001:000132e0       ?remove_filter@pipeline@tbb@@AEAAXAEAVfilter@2@@Z 00000001800142e0 f   pipeline.obj
 0001:00013520       ?inject_token@pipeline@tbb@@AEAAXAEAVtask@2@@Z 0000000180014520 f   pipeline.obj
 0001:00013580       ?clear_filters@pipeline@tbb@@AEAAXXZ 0000000180014580 f   pipeline.obj
 0001:00013610       ?grow@input_buffer@internal@tbb@@AEAAXK@Z 0000000180014610 f   pipeline.obj
 0001:000137d0       ?execute@stage_task@internal@tbb@@UEAAPEAVtask@3@XZ 00000001800147d0 f   pipeline.obj
 0001:00013f70       ??$fetch_and_add@$0A@@?$atomic_impl_with_arithmetic@KKD@internal@tbb@@QEAAKK@Z 0000000180014f70 f i pipeline.obj
 0001:00013fb0       ??$note_done@Vstage_task@internal@tbb@@@input_buffer@internal@tbb@@QEAAXKAEAVstage_task@12@@Z 0000000180014fb0 f i pipeline.obj
 0001:00014100       ??$poison_pointer@Utask_info@internal@tbb@@@internal@tbb@@YAXAEAPEAUtask_info@01@@Z 0000000180015100 f i pipeline.obj
 0001:00014120       ??$suppress_unused_warning@PEAVtask@tbb@@@internal@tbb@@YAXAEBQEAVtask@1@@Z 0000000180015120 f i pipeline.obj
 0001:00014130       ??$to_bits@K@?$atomic_impl@K@internal@tbb@@CAHK@Z 0000000180015130 f i pipeline.obj
 0001:00014170       ??$to_bits_ref@$$CDK@?$atomic_impl@K@internal@tbb@@CAAEAHAEDK@Z 0000000180015170 f i pipeline.obj
 0001:000141b0       ??$to_bits_ref@K@?$atomic_impl@K@internal@tbb@@CAAEAHAEAK@Z 00000001800151b0 f i pipeline.obj
 0001:000141f0       ??$to_value@K@?$atomic_impl@K@internal@tbb@@CAKH@Z 00000001800151f0 f i pipeline.obj
 0001:00014240       ??0?$cache_aligned_allocator@Utask_info@internal@tbb@@@tbb@@QEAA@XZ 0000000180015240 f i pipeline.obj
 0001:00014250       ??0?$converter@K@?$atomic_impl@K@internal@tbb@@QEAA@K@Z 0000000180015250 f i pipeline.obj
 0001:00014270       ??0?$converter@K@?$atomic_impl@K@internal@tbb@@QEAA@XZ 0000000180015270 f i pipeline.obj
 0001:00014280       ??0?$ptr_converter@PEAK@?$atomic_impl@K@internal@tbb@@QEAA@PEAK@Z 0000000180015280 f i pipeline.obj
 0001:000142a0       ??0?$ptr_converter@PEDK@?$atomic_impl@K@internal@tbb@@QEAA@PEDK@Z 00000001800152a0 f i pipeline.obj
 0001:000142c0       ??0allocate_additional_child_of_proxy@internal@tbb@@QEAA@AEAVtask@2@@Z 00000001800152c0 f i pipeline.obj
 0001:00014320       ??0allocate_root_with_context_proxy@internal@tbb@@QEAA@AEAVtask_group_context@2@@Z 0000000180015320 f i pipeline.obj
 0001:00014340       ??0input_buffer@internal@tbb@@QEAA@_N0@Z 0000000180015340 f i pipeline.obj
 0001:00014440       ??0pipeline_cleaner@internal@tbb@@QEAA@AEAVpipeline@2@@Z 0000000180015440 f i pipeline.obj
 0001:00014490       ??0pipeline_root_task@internal@tbb@@QEAA@AEAVpipeline@2@@Z 0000000180015490 f i pipeline.obj
 0001:000145d0       ??0semaphore@internal@tbb@@QEAA@_K@Z 00000001800155d0 f i pipeline.obj
 0001:00014620       ??0stage_task@internal@tbb@@QEAA@AEAVpipeline@2@@Z 0000000180015620 f i pipeline.obj
 0001:000146b0       ??0stage_task@internal@tbb@@QEAA@AEAVpipeline@2@PEAVfilter@2@AEBUtask_info@12@@Z 00000001800156b0 f i pipeline.obj
 0001:00014740       ??0task@tbb@@IEAA@XZ       0000000180015740 f i pipeline.obj
 0001:000147a0       ??0task_base@internal@interface5@tbb@@QEAA@XZ 00000001800157a0 f i pipeline.obj
 0001:000147e0       ??0task_group_context@tbb@@QEAA@W4kind_type@01@_K@Z 00000001800157e0 f i pipeline.obj
 0001:00014860       ??0task_list@tbb@@QEAA@XZ  0000000180015860 f i pipeline.obj
 0001:000148b0       ??1input_buffer@internal@tbb@@QEAA@XZ 00000001800158b0 f i pipeline.obj
 0001:00014980       ??1pipeline_cleaner@internal@tbb@@QEAA@XZ 0000000180015980 f i pipeline.obj
 0001:000149f0       ??1pipeline_root_task@internal@tbb@@UEAA@XZ 00000001800159f0 f i pipeline.obj
 0001:00014a20       ??1semaphore@internal@tbb@@QEAA@XZ 0000000180015a20 f i pipeline.obj
 0001:00014a60       ??1stage_task@internal@tbb@@UEAA@XZ 0000000180015a60 f i pipeline.obj
 0001:00014b40       ??1task@tbb@@UEAA@XZ       0000000180015b40 f i pipeline.obj
 0001:00014b60       ??1task_list@tbb@@QEAA@XZ  0000000180015b60 f i pipeline.obj
 0001:00014b70       ??2@YAPEAX_KAEBVallocate_additional_child_of_proxy@internal@tbb@@@Z 0000000180015b70 f i pipeline.obj
 0001:00014bb0       ??2@YAPEAX_KAEBVallocate_child_proxy@internal@tbb@@@Z 0000000180015bb0 f i pipeline.obj
 0001:00014bf0       ??2@YAPEAX_KAEBVallocate_root_with_context_proxy@internal@tbb@@@Z 0000000180015bf0 f i pipeline.obj
 0001:00014c30       ??3@YAXPEAXAEBVallocate_additional_child_of_proxy@internal@tbb@@@Z 0000000180015c30 f i pipeline.obj
 0001:00014c80       ??3@YAXPEAXAEBVallocate_child_proxy@internal@tbb@@@Z 0000000180015c80 f i pipeline.obj
 0001:00014cd0       ??3@YAXPEAXAEBVallocate_root_with_context_proxy@internal@tbb@@@Z 0000000180015cd0 f i pipeline.obj
 0001:00014d20       ??4?$atomic@K@tbb@@QEAAKK@Z 0000000180015d20 f i pipeline.obj
 0001:00014d60       ??B?$atomic_impl@K@internal@tbb@@QEDAKXZ 0000000180015d60 f i pipeline.obj
 0001:00014da0       ??E?$atomic_impl_with_arithmetic@KKD@internal@tbb@@QEAAKH@Z 0000000180015da0 f i pipeline.obj
 0001:00014de0       ??E?$atomic_impl_with_arithmetic@KKD@internal@tbb@@QEAAKXZ 0000000180015de0 f i pipeline.obj
 0001:00014e20       ??F?$atomic_impl_with_arithmetic@KKD@internal@tbb@@QEAAKH@Z 0000000180015e20 f i pipeline.obj
 0001:00014e60       ??F?$atomic_impl_with_arithmetic@KKD@internal@tbb@@QEAAKXZ 0000000180015e60 f i pipeline.obj
 0001:00014ea0       ??_Efilter@tbb@@UEAAPEAXI@Z 0000000180015ea0 f i pipeline.obj
 0001:00014ea0       ??_Gfilter@tbb@@UEAAPEAXI@Z 0000000180015ea0 f i pipeline.obj
 0001:00014f00       ??_Ginput_buffer@internal@tbb@@QEAAPEAXI@Z 0000000180015f00 f i pipeline.obj
 0001:00014f60       ??_Gpipeline@tbb@@UEAAPEAXI@Z 0000000180015f60 f i pipeline.obj
 0001:00014f60       ??_Epipeline@tbb@@UEAAPEAXI@Z 0000000180015f60 f i pipeline.obj
 0001:00014fc0       ??_Gpipeline_root_task@internal@tbb@@UEAAPEAXI@Z 0000000180015fc0 f i pipeline.obj
 0001:00014fc0       ??_Epipeline_root_task@internal@tbb@@UEAAPEAXI@Z 0000000180015fc0 f i pipeline.obj
 0001:00015020       ??_Gsemaphore@internal@tbb@@QEAAPEAXI@Z 0000000180016020 f i pipeline.obj
 0001:00015080       ??_Estage_task@internal@tbb@@UEAAPEAXI@Z 0000000180016080 f i pipeline.obj
 0001:00015080       ??_Gstage_task@internal@tbb@@UEAAPEAXI@Z 0000000180016080 f i pipeline.obj
 0001:000150e0       ??_Etask@tbb@@UEAAPEAXI@Z  00000001800160e0 f i pipeline.obj
 0001:000150e0       ??_Gtask@tbb@@UEAAPEAXI@Z  00000001800160e0 f i pipeline.obj
 0001:00015140       ?P@semaphore@internal@tbb@@QEAAXXZ 0000000180016140 f i pipeline.obj
 0001:00015180       ?V@semaphore@internal@tbb@@QEAAXXZ 0000000180016180 f i pipeline.obj
 0001:000151c0       ?allocate@?$cache_aligned_allocator@Utask_info@internal@tbb@@@tbb@@QEAAPEAUtask_info@internal@2@_KPEBX@Z 00000001800161c0 f i pipeline.obj
 0001:00015210       ?allocate_additional_child_of@task_base@internal@interface5@tbb@@SA?AVallocate_additional_child_of_proxy@24@AEAVtask@4@@Z 0000000180016210 f i pipeline.obj
 0001:00015250       ?allocate_child@task@tbb@@QEAAAEAVallocate_child_proxy@internal@2@XZ 0000000180016250 f i pipeline.obj
 0001:00015260       ?allocate_root@task@tbb@@SA?AVallocate_root_with_context_proxy@internal@2@AEAVtask_group_context@2@@Z 0000000180016260 f i pipeline.obj
 0001:000152a0       ?clear@input_buffer@internal@tbb@@QEAAXPEAVfilter@3@@Z 00000001800162a0 f i pipeline.obj
 0001:00015360       ?clear@task_list@tbb@@QEAAXXZ 0000000180016360 f i pipeline.obj
 0001:00015390       ?create@?$basic_tls@_J@internal@tbb@@QEAAHXZ 0000000180016390 f i pipeline.obj
 0001:000153e0       ?create_my_tls@input_buffer@internal@tbb@@QEAAXXZ 00000001800163e0 f i pipeline.obj
 0001:00015440       ?create_sema@input_buffer@internal@tbb@@AEAAX_K@Z 0000000180016440 f i pipeline.obj
 0001:000154f0       ?deallocate@?$cache_aligned_allocator@Utask_info@internal@tbb@@@tbb@@QEAAXPEAUtask_info@internal@2@_K@Z 00000001800164f0 f i pipeline.obj
 0001:00015530       ?destroy@?$basic_tls@_J@internal@tbb@@QEAAHXZ 0000000180016530 f i pipeline.obj
 0001:00015570       ?destroy_my_tls@input_buffer@internal@tbb@@QEAAXXZ 0000000180016570 f i pipeline.obj
 0001:000155c0       ?execute@pipeline_root_task@internal@tbb@@EEAAPEAVtask@3@XZ 00000001800165c0 f i pipeline.obj
 0001:00015a90       ?fetch_and_add@?$atomic_impl_with_arithmetic@KKD@internal@tbb@@QEAAKK@Z 0000000180016a90 f i pipeline.obj
 0001:00015ad0       ?finalize@filter@tbb@@UEAAXPEAX@Z 0000000180016ad0 f i pipeline.obj
 0001:00015ae0       ?free_sema@input_buffer@internal@tbb@@AEAAXXZ 0000000180016ae0 f i pipeline.obj
 0001:00015b70       ?get@?$basic_tls@_J@internal@tbb@@QEAA_JXZ 0000000180016b70 f i pipeline.obj
 0001:00015bb0       ?has_item@input_buffer@internal@tbb@@QEAA_NXZ 0000000180016bb0 f i pipeline.obj
 0001:00015c40       ?init_semaphore@semaphore@internal@tbb@@AEAAX_K@Z 0000000180016c40 f i pipeline.obj
 0001:00015ca0       ?inlineCreateSemaphoreEx@@YAPEAXPEAU_SECURITY_ATTRIBUTES@@JJPEB_WKK@Z 0000000180016ca0 f i pipeline.obj
 0001:00015cf0       ?is_bound@filter@tbb@@QEBA_NXZ 0000000180016cf0 f i pipeline.obj
 0001:00015d40       ?is_cancelled@task@tbb@@QEBA_NXZ 0000000180016d40 f i pipeline.obj
 0001:00015d80       ?is_ordered@filter@tbb@@QEBA_NXZ 0000000180016d80 f i pipeline.obj
 0001:00015dd0       ?is_serial@filter@tbb@@QEBA_NXZ 0000000180016dd0 f i pipeline.obj
 0001:00015df0       ?my_tls_end_of_input@input_buffer@internal@tbb@@QEAA_NXZ 0000000180016df0 f i pipeline.obj
 0001:00015e50       ?not_in_pipeline@filter@tbb@@CAPEAV12@XZ 0000000180016e50 f i pipeline.obj
 0001:00015e60       ?object_may_be_null@filter@tbb@@QEAA_NXZ 0000000180016e60 f i pipeline.obj
 0001:00015eb0       ?parent@task@tbb@@QEBAPEAV12@XZ 0000000180016eb0 f i pipeline.obj
 0001:00015ef0       ?prefix@task@tbb@@AEBAAEAVtask_prefix@internal@2@PEAUversion_tag_v3@42@@Z 0000000180016ef0 f i pipeline.obj
 0001:00015f20       ?push_back@task_list@tbb@@QEAAXAEAVtask@2@@Z 0000000180016f20 f i pipeline.obj
 0001:00015f90       ?put_token@input_buffer@internal@tbb@@QEAA_NAEAUtask_info@23@_N@Z 0000000180016f90 f i pipeline.obj
 0001:00016230       ?recycle_as_continuation@task@tbb@@QEAAXXZ 0000000180017230 f i pipeline.obj
 0001:000162a0       ?reset@stage_task@internal@tbb@@QEAAXXZ 00000001800172a0 f i pipeline.obj
 0001:00016300       ?reset@task_info@internal@tbb@@QEAAXXZ 0000000180017300 f i pipeline.obj
 0001:00016340       ?return_item@input_buffer@internal@tbb@@QEAA_NAEAUtask_info@23@_N@Z 0000000180017340 f i pipeline.obj
 0001:00016470       ?sema_P@input_buffer@internal@tbb@@AEAAXXZ 0000000180017470 f i pipeline.obj
 0001:000164d0       ?sema_V@input_buffer@internal@tbb@@AEAAXXZ 00000001800174d0 f i pipeline.obj
 0001:00016530       ?set@?$basic_tls@_J@internal@tbb@@QEAAX_J@Z 0000000180017530 f i pipeline.obj
 0001:00016570       ?set_my_tls_end_of_input@input_buffer@internal@tbb@@QEAAXXZ 0000000180017570 f i pipeline.obj
 0001:000165b0       ?set_ref_count@task@tbb@@QEAAXH@Z 00000001800175b0 f i pipeline.obj
 0001:000165f0       ?spawn@task_base@internal@interface5@tbb@@SAXAEAVtask@4@@Z 00000001800175f0 f i pipeline.obj
 0001:00016660       ?spawn@task_base@internal@interface5@tbb@@SAXAEAVtask_list@4@@Z 0000000180017660 f i pipeline.obj
 0001:000166e0       ?spawn_root_and_wait@task@tbb@@SAXAEAV12@@Z 00000001800176e0 f i pipeline.obj
 0001:00016750       ?spawn_stage_task@stage_task@internal@tbb@@QEAAXAEBUtask_info@23@@Z 0000000180017750 f i pipeline.obj
 0001:00016810       ?store_with_release@?$atomic_impl@K@internal@tbb@@IEAAKK@Z 0000000180017810 f i pipeline.obj
 0001:00016910       ?acquire@scoped_lock@queuing_mutex@tbb@@QEAAXAEAV23@@Z 0000000180017910 f   queuing_mutex.obj
 0001:00016a50       ?try_acquire@scoped_lock@queuing_mutex@tbb@@QEAA_NAEAV23@@Z 0000000180017a50 f   queuing_mutex.obj
 0001:00016b20       ?release@scoped_lock@queuing_mutex@tbb@@QEAAXXZ 0000000180017b20 f   queuing_mutex.obj
 0001:00016c20       ?internal_construct@queuing_mutex@tbb@@QEAAXXZ 0000000180017c20 f   queuing_mutex.obj
 0001:00016c70       ??$__TBB_load_with_acquire@_K@internal@tbb@@YA_KAED_K@Z 0000000180017c70 f i queuing_mutex.obj
 0001:00016ca0       ??$__TBB_store_with_release@_KH@internal@tbb@@YAXAEC_KH@Z 0000000180017ca0 f i queuing_mutex.obj
 0001:00016ce0       ??$compare_and_swap@$01@?$atomic_impl@PEAVscoped_lock@queuing_mutex@tbb@@@internal@tbb@@QEAAPEAVscoped_lock@queuing_mutex@2@PEAV342@0@Z 0000000180017ce0 f i queuing_mutex.obj
 0001:00016d50       ??$fetch_and_store@$01@?$atomic_impl@PEAVscoped_lock@queuing_mutex@tbb@@@internal@tbb@@QEAAPEAVscoped_lock@queuing_mutex@2@PEAV342@@Z 0000000180017d50 f i queuing_mutex.obj
 0001:00016da0       ??$poison_pointer@Vscoped_lock@queuing_mutex@tbb@@@internal@tbb@@YAXAEAPEAVscoped_lock@queuing_mutex@1@@Z 0000000180017da0 f i queuing_mutex.obj
 0001:00016dc0       ??$spin_wait_while_eq@PEAVscoped_lock@queuing_mutex@tbb@@PEAV123@@internal@tbb@@YAXAEDSEAVscoped_lock@queuing_mutex@1@PEAV231@@Z 0000000180017dc0 f i queuing_mutex.obj
 0001:00016e20       ??$spin_wait_while_eq@_KK@internal@tbb@@YAXAED_KK@Z 0000000180017e20 f i queuing_mutex.obj
 0001:00016e80       ??$to_bits@PEAVscoped_lock@queuing_mutex@tbb@@@?$atomic_impl@PEAVscoped_lock@queuing_mutex@tbb@@@internal@tbb@@CA_JPEAVscoped_lock@queuing_mutex@2@@Z 0000000180017e80 f i queuing_mutex.obj
 0001:00016ec0       ??$to_value@PEAVscoped_lock@queuing_mutex@tbb@@@?$atomic_impl@PEAVscoped_lock@queuing_mutex@tbb@@@internal@tbb@@CAPEAVscoped_lock@queuing_mutex@2@_J@Z 0000000180017ec0 f i queuing_mutex.obj
 0001:00016f20       ??0?$converter@PEAVscoped_lock@queuing_mutex@tbb@@@?$atomic_impl@PEAVscoped_lock@queuing_mutex@tbb@@@internal@tbb@@QEAA@PEAVscoped_lock@queuing_mutex@3@@Z 0000000180017f20 f i queuing_mutex.obj
 0001:00016f40       ??0?$converter@PEAVscoped_lock@queuing_mutex@tbb@@@?$atomic_impl@PEAVscoped_lock@queuing_mutex@tbb@@@internal@tbb@@QEAA@XZ 0000000180017f40 f i queuing_mutex.obj
 0001:00016f50       ?compare_and_swap@?$atomic_traits@$07$01@internal@tbb@@SA_JPECX_J1@Z 0000000180017f50 f i queuing_mutex.obj
 0001:00016fa0       ?fetch_and_store@?$atomic_traits@$07$01@internal@tbb@@SA_JPECX_J@Z 0000000180017fa0 f i queuing_mutex.obj
 0001:00016fe0       ?initialize@scoped_lock@queuing_mutex@tbb@@AEAAXXZ 0000000180017fe0 f i queuing_mutex.obj
 0001:00017030       ?load_with_acquire@?$machine_load_store@_K$07@internal@tbb@@SA_KAED_K@Z 0000000180018030 f i queuing_mutex.obj
 0001:00017070       ?store_with_release@?$machine_load_store@_K$07@internal@tbb@@SAXAEC_K_K@Z 0000000180018070 f i queuing_mutex.obj
 0001:000171b0       ?acquire@scoped_lock@queuing_rw_mutex@tbb@@QEAAXAEAV23@_N@Z 00000001800181b0 f   queuing_rw_mutex.obj
 0001:00017620       ?try_acquire@scoped_lock@queuing_rw_mutex@tbb@@QEAA_NAEAV23@_N@Z 0000000180018620 f   queuing_rw_mutex.obj
 0001:00017770       ?release@scoped_lock@queuing_rw_mutex@tbb@@QEAAXXZ 0000000180018770 f   queuing_rw_mutex.obj
 0001:00017d80       ?upgrade_to_writer@scoped_lock@queuing_rw_mutex@tbb@@QEAA_NXZ 0000000180018d80 f   queuing_rw_mutex.obj
 0001:00018540       ?downgrade_to_reader@scoped_lock@queuing_rw_mutex@tbb@@QEAA_NXZ 0000000180019540 f   queuing_rw_mutex.obj
 0001:000186e0       ?internal_construct@queuing_rw_mutex@tbb@@QEAAXXZ 00000001800196e0 f   queuing_rw_mutex.obj
 0001:00018730       ??$__TBB_load_full_fence@_J@internal@tbb@@YA_JAED_J@Z 0000000180019730 f i queuing_rw_mutex.obj
 0001:00018760       ??$__TBB_load_relaxed@PEAVscoped_lock@queuing_rw_mutex@tbb@@@internal@tbb@@YAPEAVscoped_lock@queuing_rw_mutex@1@AEDSEAV231@@Z 0000000180019760 f i queuing_rw_mutex.obj
 0001:00018790       ??$__TBB_load_with_acquire@E@internal@tbb@@YAEAEDE@Z 0000000180019790 f i queuing_rw_mutex.obj
 0001:000187c0       ??$__TBB_load_with_acquire@PEAVscoped_lock@queuing_rw_mutex@tbb@@@internal@tbb@@YAPEAVscoped_lock@queuing_rw_mutex@1@AEDSEAV231@@Z 00000001800197c0 f i queuing_rw_mutex.obj
 0001:000187f0       ??$__TBB_store_relaxed@EH@internal@tbb@@YAXAECEH@Z 00000001800197f0 f i queuing_rw_mutex.obj
 0001:00018830       ??$__TBB_store_relaxed@PEAVscoped_lock@queuing_rw_mutex@tbb@@PEAV123@@internal@tbb@@YAXAECREAVscoped_lock@queuing_rw_mutex@1@PEAV231@@Z 0000000180019830 f i queuing_rw_mutex.obj
 0001:00018870       ??$__TBB_store_with_release@EE@internal@tbb@@YAXAECEE@Z 0000000180019870 f i queuing_rw_mutex.obj
 0001:000188b0       ??$__TBB_store_with_release@EH@internal@tbb@@YAXAECEH@Z 00000001800198b0 f i queuing_rw_mutex.obj
 0001:000188f0       ??$__TBB_store_with_release@PEAVscoped_lock@queuing_rw_mutex@tbb@@PEAV123@@internal@tbb@@YAXAECREAVscoped_lock@queuing_rw_mutex@1@PEAV231@@Z 00000001800198f0 f i queuing_rw_mutex.obj
 0001:00018930       ??$as_atomic@E@internal@tbb@@YAAEAU?$atomic@E@1@AEAE@Z 0000000180019930 f i queuing_rw_mutex.obj
 0001:00018940       ??$compare_and_swap@$00@?$atomic_impl@E@internal@tbb@@QEAAEEE@Z 0000000180019940 f i queuing_rw_mutex.obj
 0001:000189b0       ??$compare_and_swap@$01@?$atomic_impl@E@internal@tbb@@QEAAEEE@Z 00000001800199b0 f i queuing_rw_mutex.obj
 0001:00018a20       ??$compare_and_swap@$01@?$atomic_impl@PEAVscoped_lock@queuing_rw_mutex@tbb@@@internal@tbb@@QEAAPEAVscoped_lock@queuing_rw_mutex@2@PEAV342@0@Z 0000000180019a20 f i queuing_rw_mutex.obj
 0001:00018a90       ??$compare_and_swap@$01@?$tricky_atomic_pointer@Vscoped_lock@queuing_rw_mutex@tbb@@@tbb@@SAPEAVscoped_lock@queuing_rw_mutex@1@PECREAV231@PEAV231@1@Z 0000000180019a90 f i queuing_rw_mutex.obj
 0001:00018ae0       ??$fetch_and_add@$00@?$tricky_atomic_pointer@Vscoped_lock@queuing_rw_mutex@tbb@@@tbb@@SAPEAVscoped_lock@queuing_rw_mutex@1@PECREAV231@_J@Z 0000000180019ae0 f i queuing_rw_mutex.obj
 0001:00018b20       ??$fetch_and_store@$01@?$atomic_impl@PEAVscoped_lock@queuing_rw_mutex@tbb@@@internal@tbb@@QEAAPEAVscoped_lock@queuing_rw_mutex@2@PEAV342@@Z 0000000180019b20 f i queuing_rw_mutex.obj
 0001:00018b70       ??$fetch_and_store@$01@?$tricky_atomic_pointer@Vscoped_lock@queuing_rw_mutex@tbb@@@tbb@@SAPEAVscoped_lock@queuing_rw_mutex@1@PECREAV231@PEAV231@@Z 0000000180019b70 f i queuing_rw_mutex.obj
 0001:00018bb0       ??$load@$02@?$atomic_impl@PEAVscoped_lock@queuing_rw_mutex@tbb@@@internal@tbb@@QEBAPEAVscoped_lock@queuing_rw_mutex@2@XZ 0000000180019bb0 f i queuing_rw_mutex.obj
 0001:00018c00       ??$load@$02PEAVscoped_lock@queuing_rw_mutex@tbb@@@tbb@@YAPEAVscoped_lock@queuing_rw_mutex@0@AEBU?$atomic@PEAVscoped_lock@queuing_rw_mutex@tbb@@@0@@Z 0000000180019c00 f i queuing_rw_mutex.obj
 0001:00018c30       ??$load@$0A@@?$atomic_impl@PEAVscoped_lock@queuing_rw_mutex@tbb@@@internal@tbb@@QEBAPEAVscoped_lock@queuing_rw_mutex@2@XZ 0000000180019c30 f i queuing_rw_mutex.obj
 0001:00018c80       ??$load@_J@?$atomic_load_store_traits@$0A@@internal@tbb@@SA_JAED_J@Z 0000000180019c80 f i queuing_rw_mutex.obj
 0001:00018cb0       ??$poison_pointer@Vscoped_lock@queuing_rw_mutex@tbb@@@internal@tbb@@YAXAEAPEAVscoped_lock@queuing_rw_mutex@1@@Z 0000000180019cb0 f i queuing_rw_mutex.obj
 0001:00018cd0       ??$spin_wait_until_eq@EE@internal@tbb@@YAXAEDEE@Z 0000000180019cd0 f i queuing_rw_mutex.obj
 0001:00018d40       ??$spin_wait_until_eq@EH@internal@tbb@@YAXAEDEH@Z 0000000180019d40 f i queuing_rw_mutex.obj
 0001:00018da0       ??$spin_wait_while_eq@EH@internal@tbb@@YAXAEDEH@Z 0000000180019da0 f i queuing_rw_mutex.obj
 0001:00018e00       ??$spin_wait_while_eq@PEAVscoped_lock@queuing_rw_mutex@tbb@@PEAV123@@internal@tbb@@YAXAEDSEAVscoped_lock@queuing_rw_mutex@1@PEAV231@@Z 0000000180019e00 f i queuing_rw_mutex.obj
 0001:00018e60       ??$spin_wait_while_eq@PEAVscoped_lock@queuing_rw_mutex@tbb@@PEAX@internal@tbb@@YAXAEDSEAVscoped_lock@queuing_rw_mutex@1@PEAX@Z 0000000180019e60 f i queuing_rw_mutex.obj
 0001:00018ec0       ??$to_bits@E@?$atomic_impl@E@internal@tbb@@CACE@Z 0000000180019ec0 f i queuing_rw_mutex.obj
 0001:00018f00       ??$to_bits@PEAVscoped_lock@queuing_rw_mutex@tbb@@@?$atomic_impl@PEAVscoped_lock@queuing_rw_mutex@tbb@@@internal@tbb@@CA_JPEAVscoped_lock@queuing_rw_mutex@2@@Z 0000000180019f00 f i queuing_rw_mutex.obj
 0001:00018f40       ??$to_bits_ref@$$CDE@?$atomic_impl@E@internal@tbb@@CAAEACAEDE@Z 0000000180019f40 f i queuing_rw_mutex.obj
 0001:00018f80       ??$to_bits_ref@E@?$atomic_impl@E@internal@tbb@@CAAEACAEAE@Z 0000000180019f80 f i queuing_rw_mutex.obj
 0001:00018fc0       ??$to_bits_ref@QEAVscoped_lock@queuing_rw_mutex@tbb@@@?$atomic_impl@PEAVscoped_lock@queuing_rw_mutex@tbb@@@internal@tbb@@CAAEA_JAEBQEAVscoped_lock@queuing_rw_mutex@2@@Z 0000000180019fc0 f i queuing_rw_mutex.obj
 0001:00019000       ??$to_value@E@?$atomic_impl@E@internal@tbb@@CAEC@Z 000000018001a000 f i queuing_rw_mutex.obj
 0001:00019050       ??$to_value@PEAVscoped_lock@queuing_rw_mutex@tbb@@@?$atomic_impl@PEAVscoped_lock@queuing_rw_mutex@tbb@@@internal@tbb@@CAPEAVscoped_lock@queuing_rw_mutex@2@_J@Z 000000018001a050 f i queuing_rw_mutex.obj
 0001:000190b0       ??0?$converter@E@?$atomic_impl@E@internal@tbb@@QEAA@E@Z 000000018001a0b0 f i queuing_rw_mutex.obj
 0001:000190d0       ??0?$converter@E@?$atomic_impl@E@internal@tbb@@QEAA@XZ 000000018001a0d0 f i queuing_rw_mutex.obj
 0001:000190e0       ??0?$converter@PEAVscoped_lock@queuing_rw_mutex@tbb@@@?$atomic_impl@PEAVscoped_lock@queuing_rw_mutex@tbb@@@internal@tbb@@QEAA@PEAVscoped_lock@queuing_rw_mutex@3@@Z 000000018001a0e0 f i queuing_rw_mutex.obj
 0001:00019100       ??0?$converter@PEAVscoped_lock@queuing_rw_mutex@tbb@@@?$atomic_impl@PEAVscoped_lock@queuing_rw_mutex@tbb@@@internal@tbb@@QEAA@XZ 000000018001a100 f i queuing_rw_mutex.obj
 0001:00019110       ??0?$ptr_converter@PEAE@?$atomic_impl@E@internal@tbb@@QEAA@PEAE@Z 000000018001a110 f i queuing_rw_mutex.obj
 0001:00019130       ??0?$ptr_converter@PEBQEAVscoped_lock@queuing_rw_mutex@tbb@@@?$atomic_impl@PEAVscoped_lock@queuing_rw_mutex@tbb@@@internal@tbb@@QEAA@PEBQEAVscoped_lock@queuing_rw_mutex@3@@Z 000000018001a130 f i queuing_rw_mutex.obj
 0001:00019150       ??0?$ptr_converter@PEDE@?$atomic_impl@E@internal@tbb@@QEAA@PEDE@Z 000000018001a150 f i queuing_rw_mutex.obj
 0001:00019170       ??0?$tricky_atomic_pointer@Vscoped_lock@queuing_rw_mutex@tbb@@@tbb@@QEAA@AEAPEAVscoped_lock@queuing_rw_mutex@1@@Z 000000018001a170 f i queuing_rw_mutex.obj
 0001:000191c0       ??4?$atomic@E@tbb@@QEAAEE@Z 000000018001a1c0 f i queuing_rw_mutex.obj
 0001:00019200       ??B?$atomic_impl@E@internal@tbb@@QEDAEXZ 000000018001a200 f i queuing_rw_mutex.obj
 0001:00019250       ??I?$tricky_atomic_pointer@Vscoped_lock@queuing_rw_mutex@tbb@@@tbb@@QEBAPEAVscoped_lock@queuing_rw_mutex@1@_J@Z 000000018001a250 f i queuing_rw_mutex.obj
 0001:00019270       ??U?$tricky_atomic_pointer@Vscoped_lock@queuing_rw_mutex@tbb@@@tbb@@QEBAPEAVscoped_lock@queuing_rw_mutex@1@_J@Z 000000018001a270 f i queuing_rw_mutex.obj
 0001:00019290       ?acquire_internal_lock@scoped_lock@queuing_rw_mutex@tbb@@AEAAXXZ 000000018001a290 f i queuing_rw_mutex.obj
 0001:000192e0       ?compare_and_swap@?$atomic_traits@$00$00@internal@tbb@@SACPECXCC@Z 000000018001a2e0 f i queuing_rw_mutex.obj
 0001:00019330       ?compare_and_swap@?$atomic_traits@$00$01@internal@tbb@@SACPECXCC@Z 000000018001a330 f i queuing_rw_mutex.obj
 0001:00019380       ?get_flag@tbb@@YA_KPEAVscoped_lock@queuing_rw_mutex@1@@Z 000000018001a380 f i queuing_rw_mutex.obj
 0001:000193a0       ?initialize@scoped_lock@queuing_rw_mutex@tbb@@AEAAXXZ 000000018001a3a0 f i queuing_rw_mutex.obj
 0001:00019420       ?load@?$machine_load_store_relaxed@PEAVscoped_lock@queuing_rw_mutex@tbb@@$07@internal@tbb@@SAPEAVscoped_lock@queuing_rw_mutex@3@AEDSEAV453@@Z 000000018001a420 f i queuing_rw_mutex.obj
 0001:00019430       ?load@?$machine_load_store_seq_cst@_J$07@internal@tbb@@SA_JAED_J@Z 000000018001a430 f i queuing_rw_mutex.obj
 0001:00019470       ?load_with_acquire@?$machine_load_store@E$00@internal@tbb@@SAEAEDE@Z 000000018001a470 f i queuing_rw_mutex.obj
 0001:000194b0       ?load_with_acquire@?$machine_load_store@PEAVscoped_lock@queuing_rw_mutex@tbb@@$07@internal@tbb@@SAPEAVscoped_lock@queuing_rw_mutex@3@AEDSEAV453@@Z 000000018001a4b0 f i queuing_rw_mutex.obj
 0001:000194f0       ?release_internal_lock@scoped_lock@queuing_rw_mutex@tbb@@AEAAXXZ 000000018001a4f0 f i queuing_rw_mutex.obj
 0001:00019530       ?store@?$machine_load_store_relaxed@E$00@internal@tbb@@SAXAECEE@Z 000000018001a530 f i queuing_rw_mutex.obj
 0001:00019550       ?store@?$machine_load_store_relaxed@PEAVscoped_lock@queuing_rw_mutex@tbb@@$07@internal@tbb@@SAXAECREAVscoped_lock@queuing_rw_mutex@3@PEAV453@@Z 000000018001a550 f i queuing_rw_mutex.obj
 0001:00019570       ?store_with_release@?$atomic_impl@E@internal@tbb@@IEAAEE@Z 000000018001a570 f i queuing_rw_mutex.obj
 0001:000195d0       ?store_with_release@?$machine_load_store@E$00@internal@tbb@@SAXAECEE@Z 000000018001a5d0 f i queuing_rw_mutex.obj
 0001:000195f0       ?store_with_release@?$machine_load_store@PEAVscoped_lock@queuing_rw_mutex@tbb@@$07@internal@tbb@@SAXAECREAVscoped_lock@queuing_rw_mutex@3@PEAV453@@Z 000000018001a5f0 f i queuing_rw_mutex.obj
 0001:00019610       ?try_acquire_internal_lock@scoped_lock@queuing_rw_mutex@tbb@@AEAA_NXZ 000000018001a610 f i queuing_rw_mutex.obj
 0001:00019670       ?unblock_or_wait_on_internal_lock@scoped_lock@queuing_rw_mutex@tbb@@AEAAX_K@Z 000000018001a670 f i queuing_rw_mutex.obj
 0001:000196c0       ?wait_for_release_of_internal_lock@scoped_lock@queuing_rw_mutex@tbb@@AEAAXXZ 000000018001a6c0 f i queuing_rw_mutex.obj
 0001:00019800       ?internal_construct@scoped_lock@reader_writer_lock@interface5@tbb@@AEAAXAEAV234@@Z 000000018001a800 f   reader_writer_lock.obj
 0001:000198a0       ?internal_destroy@scoped_lock@reader_writer_lock@interface5@tbb@@AEAAXXZ 000000018001a8a0 f   reader_writer_lock.obj
 0001:00019940       ?internal_construct@scoped_lock_read@reader_writer_lock@interface5@tbb@@AEAAXAEAV234@@Z 000000018001a940 f   reader_writer_lock.obj
 0001:000199e0       ?internal_destroy@scoped_lock_read@reader_writer_lock@interface5@tbb@@AEAAXXZ 000000018001a9e0 f   reader_writer_lock.obj
 0001:00019a40       ?lock@reader_writer_lock@interface5@tbb@@QEAAXXZ 000000018001aa40 f   reader_writer_lock.obj
 0001:00019af0       ?try_lock@reader_writer_lock@interface5@tbb@@QEAA_NXZ 000000018001aaf0 f   reader_writer_lock.obj
 0001:00019bb0       ?lock_read@reader_writer_lock@interface5@tbb@@QEAAXXZ 000000018001abb0 f   reader_writer_lock.obj
 0001:00019c40       ?try_lock_read@reader_writer_lock@interface5@tbb@@QEAA_NXZ 000000018001ac40 f   reader_writer_lock.obj
 0001:00019ce0       ?unlock@reader_writer_lock@interface5@tbb@@QEAAXXZ 000000018001ace0 f   reader_writer_lock.obj
 0001:00019e80       ?internal_construct@reader_writer_lock@interface5@tbb@@AEAAXXZ 000000018001ae80 f   reader_writer_lock.obj
 0001:00019f40       ?internal_destroy@reader_writer_lock@interface5@tbb@@AEAAXXZ 000000018001af40 f   reader_writer_lock.obj
 0001:0001a050       ?start_write@reader_writer_lock@interface5@tbb@@AEAA_NPEAVscoped_lock@123@@Z 000000018001b050 f   reader_writer_lock.obj
 0001:0001a310       ?set_next_writer@reader_writer_lock@interface5@tbb@@AEAAXPEAVscoped_lock@123@@Z 000000018001b310 f   reader_writer_lock.obj
 0001:0001a420       ?end_write@reader_writer_lock@interface5@tbb@@AEAAXPEAVscoped_lock@123@@Z 000000018001b420 f   reader_writer_lock.obj
 0001:0001a5f0       ?start_read@reader_writer_lock@interface5@tbb@@AEAAXPEAVscoped_lock_read@123@@Z 000000018001b5f0 f   reader_writer_lock.obj
 0001:0001a780       ?unblock_readers@reader_writer_lock@interface5@tbb@@AEAAXXZ 000000018001b780 f   reader_writer_lock.obj
 0001:0001a900       ?end_read@reader_writer_lock@interface5@tbb@@AEAAXXZ 000000018001b900 f   reader_writer_lock.obj
 0001:0001a990       ??$compare_and_swap@$0A@@?$atomic_impl@PEAVscoped_lock@reader_writer_lock@interface5@tbb@@@internal@tbb@@QEAAPEAVscoped_lock@reader_writer_lock@interface5@2@PEAV3452@0@Z 000000018001b990 f i reader_writer_lock.obj
 0001:0001aa00       ??$fetch_and_store@$0A@@?$atomic_impl@PEAVscoped_lock@reader_writer_lock@interface5@tbb@@@internal@tbb@@QEAAPEAVscoped_lock@reader_writer_lock@interface5@2@PEAV3452@@Z 000000018001ba00 f i reader_writer_lock.obj
 0001:0001aa50       ??$fetch_and_store@$0A@@?$atomic_impl@PEAVscoped_lock_read@reader_writer_lock@interface5@tbb@@@internal@tbb@@QEAAPEAVscoped_lock_read@reader_writer_lock@interface5@2@PEAV3452@@Z 000000018001ba50 f i reader_writer_lock.obj
 0001:0001aaa0       ??$spin_wait_until_and@U?$atomic@_K@tbb@@_K@interface5@tbb@@YAXAEDU?$atomic@_K@1@_K@Z 000000018001baa0 f i reader_writer_lock.obj
 0001:0001ab10       ??$spin_wait_while_eq@PEAVscoped_lock@reader_writer_lock@interface5@tbb@@PEAV1234@@internal@tbb@@YAXAEDSEAVscoped_lock@reader_writer_lock@interface5@1@PEAV2341@@Z 000000018001bb10 f i reader_writer_lock.obj
 0001:0001ab70       ??$spin_wait_while_eq@U?$atomic@W4status_t@reader_writer_lock@interface5@tbb@@@tbb@@W4status_t@reader_writer_lock@interface5@2@@internal@tbb@@YAXAEDU?$atomic@W4status_t@reader_writer_lock@interface5@tbb@@@1@W4status_t@reader_writer_lock@interface5@1@@Z 000000018001bb70 f i reader_writer_lock.obj
 0001:0001abd0       ??$spin_wait_while_geq@U?$atomic@_K@tbb@@_K@interface5@tbb@@YAXAEDU?$atomic@_K@1@_K@Z 000000018001bbd0 f i reader_writer_lock.obj
 0001:0001ac30       ??$to_bits@PEAVscoped_lock@reader_writer_lock@interface5@tbb@@@?$atomic_impl@PEAVscoped_lock@reader_writer_lock@interface5@tbb@@@internal@tbb@@CA_JPEAVscoped_lock@reader_writer_lock@interface5@2@@Z 000000018001bc30 f i reader_writer_lock.obj
 0001:0001ac70       ??$to_bits@PEAVscoped_lock_read@reader_writer_lock@interface5@tbb@@@?$atomic_impl@PEAVscoped_lock_read@reader_writer_lock@interface5@tbb@@@internal@tbb@@CA_JPEAVscoped_lock_read@reader_writer_lock@interface5@2@@Z 000000018001bc70 f i reader_writer_lock.obj
 0001:0001acb0       ??$to_bits@W4status_t@reader_writer_lock@interface5@tbb@@@?$atomic_impl@W4status_t@reader_writer_lock@interface5@tbb@@@internal@tbb@@CAHW4status_t@reader_writer_lock@interface5@2@@Z 000000018001bcb0 f i reader_writer_lock.obj
 0001:0001acf0       ??$to_bits_ref@$$CDW4status_t@reader_writer_lock@interface5@tbb@@@?$atomic_impl@W4status_t@reader_writer_lock@interface5@tbb@@@internal@tbb@@CAAEAHAEDW4status_t@reader_writer_lock@interface5@2@@Z 000000018001bcf0 f i reader_writer_lock.obj
 0001:0001ad30       ??$to_bits_ref@PEAVscoped_lock@reader_writer_lock@interface5@tbb@@@?$atomic_impl@PEAVscoped_lock@reader_writer_lock@interface5@tbb@@@internal@tbb@@CAAEA_JAEAPEAVscoped_lock@reader_writer_lock@interface5@2@@Z 000000018001bd30 f i reader_writer_lock.obj
 0001:0001ad70       ??$to_bits_ref@PEAVscoped_lock_read@reader_writer_lock@interface5@tbb@@@?$atomic_impl@PEAVscoped_lock_read@reader_writer_lock@interface5@tbb@@@internal@tbb@@CAAEA_JAEAPEAVscoped_lock_read@reader_writer_lock@interface5@2@@Z 000000018001bd70 f i reader_writer_lock.obj
 0001:0001adb0       ??$to_bits_ref@SEAVscoped_lock@reader_writer_lock@interface5@tbb@@@?$atomic_impl@PEAVscoped_lock@reader_writer_lock@interface5@tbb@@@internal@tbb@@CAAEA_JAEDSEAVscoped_lock@reader_writer_lock@interface5@2@@Z 000000018001bdb0 f i reader_writer_lock.obj
 0001:0001adf0       ??$to_bits_ref@SEAVscoped_lock_read@reader_writer_lock@interface5@tbb@@@?$atomic_impl@PEAVscoped_lock_read@reader_writer_lock@interface5@tbb@@@internal@tbb@@CAAEA_JAEDSEAVscoped_lock_read@reader_writer_lock@interface5@2@@Z 000000018001bdf0 f i reader_writer_lock.obj
 0001:0001ae30       ??$to_bits_ref@W4status_t@reader_writer_lock@interface5@tbb@@@?$atomic_impl@W4status_t@reader_writer_lock@interface5@tbb@@@internal@tbb@@CAAEAHAEAW4status_t@reader_writer_lock@interface5@2@@Z 000000018001be30 f i reader_writer_lock.obj
 0001:0001ae70       ??$to_value@PEAVscoped_lock@reader_writer_lock@interface5@tbb@@@?$atomic_impl@PEAVscoped_lock@reader_writer_lock@interface5@tbb@@@internal@tbb@@CAPEAVscoped_lock@reader_writer_lock@interface5@2@_J@Z 000000018001be70 f i reader_writer_lock.obj
 0001:0001aed0       ??$to_value@PEAVscoped_lock_read@reader_writer_lock@interface5@tbb@@@?$atomic_impl@PEAVscoped_lock_read@reader_writer_lock@interface5@tbb@@@internal@tbb@@CAPEAVscoped_lock_read@reader_writer_lock@interface5@2@_J@Z 000000018001bed0 f i reader_writer_lock.obj
 0001:0001af30       ??$to_value@W4status_t@reader_writer_lock@interface5@tbb@@@?$atomic_impl@W4status_t@reader_writer_lock@interface5@tbb@@@internal@tbb@@CA?AW4status_t@reader_writer_lock@interface5@2@H@Z 000000018001bf30 f i reader_writer_lock.obj
 0001:0001af80       ??0?$converter@PEAVscoped_lock@reader_writer_lock@interface5@tbb@@@?$atomic_impl@PEAVscoped_lock@reader_writer_lock@interface5@tbb@@@internal@tbb@@QEAA@PEAVscoped_lock@reader_writer_lock@interface5@3@@Z 000000018001bf80 f i reader_writer_lock.obj
 0001:0001afa0       ??0?$converter@PEAVscoped_lock@reader_writer_lock@interface5@tbb@@@?$atomic_impl@PEAVscoped_lock@reader_writer_lock@interface5@tbb@@@internal@tbb@@QEAA@XZ 000000018001bfa0 f i reader_writer_lock.obj
 0001:0001afb0       ??0?$converter@PEAVscoped_lock_read@reader_writer_lock@interface5@tbb@@@?$atomic_impl@PEAVscoped_lock_read@reader_writer_lock@interface5@tbb@@@internal@tbb@@QEAA@PEAVscoped_lock_read@reader_writer_lock@interface5@3@@Z 000000018001bfb0 f i reader_writer_lock.obj
 0001:0001afd0       ??0?$converter@PEAVscoped_lock_read@reader_writer_lock@interface5@tbb@@@?$atomic_impl@PEAVscoped_lock_read@reader_writer_lock@interface5@tbb@@@internal@tbb@@QEAA@XZ 000000018001bfd0 f i reader_writer_lock.obj
 0001:0001afe0       ??0?$converter@W4status_t@reader_writer_lock@interface5@tbb@@@?$atomic_impl@W4status_t@reader_writer_lock@interface5@tbb@@@internal@tbb@@QEAA@W4status_t@reader_writer_lock@interface5@3@@Z 000000018001bfe0 f i reader_writer_lock.obj
 0001:0001b000       ??0?$converter@W4status_t@reader_writer_lock@interface5@tbb@@@?$atomic_impl@W4status_t@reader_writer_lock@interface5@tbb@@@internal@tbb@@QEAA@XZ 000000018001c000 f i reader_writer_lock.obj
 0001:0001b010       ??0?$ptr_converter@PEAPEAVscoped_lock@reader_writer_lock@interface5@tbb@@@?$atomic_impl@PEAVscoped_lock@reader_writer_lock@interface5@tbb@@@internal@tbb@@QEAA@PEAPEAVscoped_lock@reader_writer_lock@interface5@3@@Z 000000018001c010 f i reader_writer_lock.obj
 0001:0001b030       ??0?$ptr_converter@PEAPEAVscoped_lock_read@reader_writer_lock@interface5@tbb@@@?$atomic_impl@PEAVscoped_lock_read@reader_writer_lock@interface5@tbb@@@internal@tbb@@QEAA@PEAPEAVscoped_lock_read@reader_writer_lock@interface5@3@@Z 000000018001c030 f i reader_writer_lock.obj
 0001:0001b050       ??0?$ptr_converter@PEAW4status_t@reader_writer_lock@interface5@tbb@@@?$atomic_impl@W4status_t@reader_writer_lock@interface5@tbb@@@internal@tbb@@QEAA@PEAW4status_t@reader_writer_lock@interface5@3@@Z 000000018001c050 f i reader_writer_lock.obj
 0001:0001b070       ??0?$ptr_converter@PEDSEAVscoped_lock@reader_writer_lock@interface5@tbb@@@?$atomic_impl@PEAVscoped_lock@reader_writer_lock@interface5@tbb@@@internal@tbb@@QEAA@PEDSEAVscoped_lock@reader_writer_lock@interface5@3@@Z 000000018001c070 f i reader_writer_lock.obj
 0001:0001b090       ??0?$ptr_converter@PEDSEAVscoped_lock_read@reader_writer_lock@interface5@tbb@@@?$atomic_impl@PEAVscoped_lock_read@reader_writer_lock@interface5@tbb@@@internal@tbb@@QEAA@PEDSEAVscoped_lock_read@reader_writer_lock@interface5@3@@Z 000000018001c090 f i reader_writer_lock.obj
 0001:0001b0b0       ??0?$ptr_converter@PEDW4status_t@reader_writer_lock@interface5@tbb@@@?$atomic_impl@W4status_t@reader_writer_lock@interface5@tbb@@@internal@tbb@@QEAA@PEDW4status_t@reader_writer_lock@interface5@3@@Z 000000018001c0b0 f i reader_writer_lock.obj
 0001:0001b0d0       ??0id@tbb_thread_v3@internal@tbb@@QEAA@XZ 000000018001c0d0 f i reader_writer_lock.obj
 0001:0001b0f0       ??0scoped_lock@reader_writer_lock@interface5@tbb@@AEAA@XZ 000000018001c0f0 f i reader_writer_lock.obj
 0001:0001b160       ??0scoped_lock_read@reader_writer_lock@interface5@tbb@@AEAA@XZ 000000018001c160 f i reader_writer_lock.obj
 0001:0001b1d0       ??1scoped_lock@reader_writer_lock@interface5@tbb@@QEAA@XZ 000000018001c1d0 f i reader_writer_lock.obj
 0001:0001b210       ??1scoped_lock_read@reader_writer_lock@interface5@tbb@@QEAA@XZ 000000018001c210 f i reader_writer_lock.obj
 0001:0001b250       ??2scoped_lock@reader_writer_lock@interface5@tbb@@SAPEAX_K@Z 000000018001c250 f i reader_writer_lock.obj
 0001:0001b280       ??3scoped_lock@reader_writer_lock@interface5@tbb@@SAXPEAX@Z 000000018001c280 f i reader_writer_lock.obj
 0001:0001b2c0       ??4?$atomic@PEAVscoped_lock@reader_writer_lock@interface5@tbb@@@tbb@@QEAAPEAVscoped_lock@reader_writer_lock@interface5@1@PEAV2341@@Z 000000018001c2c0 f i reader_writer_lock.obj
 0001:0001b300       ??4?$atomic@PEAVscoped_lock_read@reader_writer_lock@interface5@tbb@@@tbb@@QEAAPEAVscoped_lock_read@reader_writer_lock@interface5@1@PEAV2341@@Z 000000018001c300 f i reader_writer_lock.obj
 0001:0001b340       ??4?$atomic@W4status_t@reader_writer_lock@interface5@tbb@@@tbb@@QEAA?AW4status_t@reader_writer_lock@interface5@1@W42341@@Z 000000018001c340 f i reader_writer_lock.obj
 0001:0001b380       ??8internal@tbb@@YA_NVid@tbb_thread_v3@01@0@Z 000000018001c380 f i reader_writer_lock.obj
 0001:0001b3d0       ??9internal@tbb@@YA_NVid@tbb_thread_v3@01@0@Z 000000018001c3d0 f i reader_writer_lock.obj
 0001:0001b420       ??B?$atomic_impl@PEAVscoped_lock@reader_writer_lock@interface5@tbb@@@internal@tbb@@QEDAPEAVscoped_lock@reader_writer_lock@interface5@2@XZ 000000018001c420 f i reader_writer_lock.obj
 0001:0001b470       ??B?$atomic_impl@PEAVscoped_lock_read@reader_writer_lock@interface5@tbb@@@internal@tbb@@QEDAPEAVscoped_lock_read@reader_writer_lock@interface5@2@XZ 000000018001c470 f i reader_writer_lock.obj
 0001:0001b4c0       ??B?$atomic_impl@W4status_t@reader_writer_lock@interface5@tbb@@@internal@tbb@@QEDA?AW4status_t@reader_writer_lock@interface5@2@XZ 000000018001c4c0 f i reader_writer_lock.obj
 0001:0001b500       ??C?$atomic@PEAVscoped_lock@reader_writer_lock@interface5@tbb@@@tbb@@QEBAPEAVscoped_lock@reader_writer_lock@interface5@1@XZ 000000018001c500 f i reader_writer_lock.obj
 0001:0001b530       ??Z?$atomic_impl_with_arithmetic@_K_KD@internal@tbb@@QEAA_K_K@Z 000000018001c530 f i reader_writer_lock.obj
 0001:0001b570       ??_Gscoped_lock@reader_writer_lock@interface5@tbb@@QEAAPEAXI@Z 000000018001c570 f i reader_writer_lock.obj
 0001:0001b5e0       ?compare_and_swap@?$atomic_impl@PEAVscoped_lock@reader_writer_lock@interface5@tbb@@@internal@tbb@@QEAAPEAVscoped_lock@reader_writer_lock@interface5@3@PEAV4563@0@Z 000000018001c5e0 f i reader_writer_lock.obj
 0001:0001b630       ?fetch_and_and@interface5@tbb@@YA_KAEAU?$atomic@_K@2@_K@Z 000000018001c630 f i reader_writer_lock.obj
 0001:0001b6d0       ?fetch_and_or@interface5@tbb@@YA_KAEAU?$atomic@_K@2@_K@Z 000000018001c6d0 f i reader_writer_lock.obj
 0001:0001b770       ?fetch_and_store@?$atomic_impl@PEAVscoped_lock@reader_writer_lock@interface5@tbb@@@internal@tbb@@QEAAPEAVscoped_lock@reader_writer_lock@interface5@3@PEAV4563@@Z 000000018001c770 f i reader_writer_lock.obj
 0001:0001b7b0       ?fetch_and_store@?$atomic_impl@PEAVscoped_lock_read@reader_writer_lock@interface5@tbb@@@internal@tbb@@QEAAPEAVscoped_lock_read@reader_writer_lock@interface5@3@PEAV4563@@Z 000000018001c7b0 f i reader_writer_lock.obj
 0001:0001b7f0       ?fetch_and_store@?$atomic_traits@$07$0A@@internal@tbb@@SA_JPECX_J@Z 000000018001c7f0 f i reader_writer_lock.obj
 0001:0001b830       ?get_id@this_tbb_thread@tbb@@YA?AVid@tbb_thread_v3@internal@2@XZ 000000018001c830 f i reader_writer_lock.obj
 0001:0001b870       ?is_current_writer@reader_writer_lock@interface5@tbb@@AEAA_NXZ 000000018001c870 f i reader_writer_lock.obj
 0001:0001b8b0       ?store_with_release@?$atomic_impl@PEAVscoped_lock@reader_writer_lock@interface5@tbb@@@internal@tbb@@IEAAPEAVscoped_lock@reader_writer_lock@interface5@3@PEAV4563@@Z 000000018001c8b0 f i reader_writer_lock.obj
 0001:0001b910       ?store_with_release@?$atomic_impl@PEAVscoped_lock_read@reader_writer_lock@interface5@tbb@@@internal@tbb@@IEAAPEAVscoped_lock_read@reader_writer_lock@interface5@3@PEAV4563@@Z 000000018001c910 f i reader_writer_lock.obj
 0001:0001b970       ?store_with_release@?$atomic_impl@W4status_t@reader_writer_lock@interface5@tbb@@@internal@tbb@@IEAA?AW4status_t@reader_writer_lock@interface5@3@W44563@@Z 000000018001c970 f i reader_writer_lock.obj
 0001:0001bae0       ?internal_acquire_writer@spin_rw_mutex_v3@tbb@@AEAA_NXZ 000000018001cae0 f   spin_rw_mutex.obj
 0001:0001bbd0       ?internal_release_writer@spin_rw_mutex_v3@tbb@@AEAAXXZ 000000018001cbd0 f   spin_rw_mutex.obj
 0001:0001bc30       ?internal_acquire_reader@spin_rw_mutex_v3@tbb@@AEAAXXZ 000000018001cc30 f   spin_rw_mutex.obj
 0001:0001bd40       ?internal_upgrade@spin_rw_mutex_v3@tbb@@AEAA_NXZ 000000018001cd40 f   spin_rw_mutex.obj
 0001:0001bee0       ?internal_downgrade@spin_rw_mutex_v3@tbb@@AEAAXXZ 000000018001cee0 f   spin_rw_mutex.obj
 0001:0001bf70       ?internal_release_reader@spin_rw_mutex_v3@tbb@@AEAAXXZ 000000018001cf70 f   spin_rw_mutex.obj
 0001:0001c000       ?internal_try_acquire_writer@spin_rw_mutex_v3@tbb@@AEAA_NXZ 000000018001d000 f   spin_rw_mutex.obj
 0001:0001c080       ?internal_try_acquire_reader@spin_rw_mutex_v3@tbb@@AEAA_NXZ 000000018001d080 f   spin_rw_mutex.obj
 0001:0001c120       ?internal_construct@spin_rw_mutex_v3@tbb@@AEAAXXZ 000000018001d120 f   spin_rw_mutex.obj
 0001:0001c1d0       ??$as_atomic@$$CC_J@internal@tbb@@YAAEAU?$atomic@$$CC_J@1@AEC_J@Z 000000018001d1d0 f i spin_rw_mutex.obj
 0001:0001c1e0       ??$compare_and_swap@$0A@@?$atomic_impl@$$CC_J@internal@tbb@@QEAA?C_J_J0@Z 000000018001d1e0 f i spin_rw_mutex.obj
 0001:0001c250       ??$to_bits@_J@?$atomic_impl@$$CC_J@internal@tbb@@CA_J_J@Z 000000018001d250 f i spin_rw_mutex.obj
 0001:0001c290       ??$to_value@$$CC_J@?$atomic_impl@$$CC_J@internal@tbb@@CA?C_J_J@Z 000000018001d290 f i spin_rw_mutex.obj
 0001:0001c2f0       ??0?$converter@$$CC_J@?$atomic_impl@$$CC_J@internal@tbb@@QEAA@XZ 000000018001d2f0 f i spin_rw_mutex.obj
 0001:0001c300       ??0?$converter@_J@?$atomic_impl@$$CC_J@internal@tbb@@QEAA@_J@Z 000000018001d300 f i spin_rw_mutex.obj
 0001:0001c320       ?compare_and_swap@?$atomic_impl@$$CC_J@internal@tbb@@QEAA?C_J_J0@Z 000000018001d320 f i spin_rw_mutex.obj
 0001:0001c370       ?reset@atomic_backoff@internal@tbb@@QEAAXXZ 000000018001d370 f i spin_rw_mutex.obj
 0001:0001c3c0       ?internal_construct@x86_rtm_rw_mutex@internal@interface8@tbb@@AEAAXXZ 000000018001d3c0 f   x86_rtm_rw_mutex.obj
 0001:0001c420       ?internal_acquire_writer@x86_rtm_rw_mutex@internal@interface8@tbb@@AEAAXAEAVscoped_lock@1234@_N@Z 000000018001d420 f   x86_rtm_rw_mutex.obj
 0001:0001c5c0       ?internal_acquire_reader@x86_rtm_rw_mutex@internal@interface8@tbb@@AEAAXAEAVscoped_lock@1234@_N@Z 000000018001d5c0 f   x86_rtm_rw_mutex.obj
 0001:0001c740       ?internal_upgrade@x86_rtm_rw_mutex@internal@interface8@tbb@@AEAA_NAEAVscoped_lock@1234@@Z 000000018001d740 f   x86_rtm_rw_mutex.obj
 0001:0001c870       ?internal_downgrade@x86_rtm_rw_mutex@internal@interface8@tbb@@AEAA_NAEAVscoped_lock@1234@@Z 000000018001d870 f   x86_rtm_rw_mutex.obj
 0001:0001c960       ?internal_try_acquire_writer@x86_rtm_rw_mutex@internal@interface8@tbb@@AEAA_NAEAVscoped_lock@1234@@Z 000000018001d960 f   x86_rtm_rw_mutex.obj
 0001:0001ca60       ?internal_release@x86_rtm_rw_mutex@internal@interface8@tbb@@AEAAXAEAVscoped_lock@1234@@Z 000000018001da60 f   x86_rtm_rw_mutex.obj
 0001:0001cc10       ?acquire@scoped_lock@spin_rw_mutex_v3@tbb@@QEAAXAEAV23@_N@Z 000000018001dc10 f i x86_rtm_rw_mutex.obj
 0001:0001ccb0       ?downgrade_to_reader@scoped_lock@spin_rw_mutex_v3@tbb@@QEAA_NXZ 000000018001dcb0 f i x86_rtm_rw_mutex.obj
 0001:0001cd30       ?release@scoped_lock@spin_rw_mutex_v3@tbb@@QEAAXXZ 000000018001dd30 f i x86_rtm_rw_mutex.obj
 0001:0001cdc0       ?speculation_enabled@governor@internal@tbb@@SA_NXZ 000000018001ddc0 f i x86_rtm_rw_mutex.obj
 0001:0001cdd0       ?try_acquire@scoped_lock@spin_rw_mutex_v3@tbb@@QEAA_NAEAV23@_N@Z 000000018001ddd0 f i x86_rtm_rw_mutex.obj
 0001:0001ce90       ?upgrade_to_writer@scoped_lock@spin_rw_mutex_v3@tbb@@QEAA_NXZ 000000018001de90 f i x86_rtm_rw_mutex.obj
 0001:0001cf90       ?internal_acquire@scoped_lock@spin_mutex@tbb@@AEAAXAEAV23@@Z 000000018001df90 f   spin_mutex.obj
 0001:0001d040       ?internal_try_acquire@scoped_lock@spin_mutex@tbb@@AEAA_NAEAV23@@Z 000000018001e040 f   spin_mutex.obj
 0001:0001d0e0       ?internal_release@scoped_lock@spin_mutex@tbb@@AEAAXXZ 000000018001e0e0 f   spin_mutex.obj
 0001:0001d170       ?internal_construct@spin_mutex@tbb@@QEAAXXZ 000000018001e170 f   spin_mutex.obj
 0001:0001d1c0       ?__TBB_LockByte@@YAEAEAE@Z 000000018001e1c0 f i spin_mutex.obj
 0001:0001d230       ?__TBB_TryLockByte@@YA_NAEAE@Z 000000018001e230 f i spin_mutex.obj
 0001:0001d290       ?internal_construct@critical_section_v4@internal@tbb@@QEAAXXZ 000000018001e290 f   critical_section.obj
 0001:0001d2f0       ?internal_acquire@scoped_lock@mutex@tbb@@AEAAXAEAV23@@Z 000000018001e2f0 f   mutex.obj
 0001:0001d3f0       ?internal_try_acquire@scoped_lock@mutex@tbb@@AEAA_NAEAV23@@Z 000000018001e3f0 f   mutex.obj
 0001:0001d530       ?internal_release@scoped_lock@mutex@tbb@@AEAAXXZ 000000018001e530 f   mutex.obj
 0001:0001d660       ?internal_construct@mutex@tbb@@AEAAXXZ 000000018001e660 f   mutex.obj
 0001:0001d6e0       ?internal_destroy@mutex@tbb@@AEAAXXZ 000000018001e6e0 f   mutex.obj
 0001:0001d7a0       ?inlineInitializeCriticalSectionEx@@YAHPEAU_RTL_CRITICAL_SECTION@@KK@Z 000000018001e7a0 f i mutex.obj
 0001:0001d7e0       ?internal_acquire@scoped_lock@recursive_mutex@tbb@@AEAAXAEAV23@@Z 000000018001e7e0 f   recursive_mutex.obj
 0001:0001d8a0       ?internal_try_acquire@scoped_lock@recursive_mutex@tbb@@AEAA_NAEAV23@@Z 000000018001e8a0 f   recursive_mutex.obj
 0001:0001d990       ?internal_release@scoped_lock@recursive_mutex@tbb@@AEAAXXZ 000000018001e990 f   recursive_mutex.obj
 0001:0001da80       ?internal_construct@recursive_mutex@tbb@@AEAAXXZ 000000018001ea80 f   recursive_mutex.obj
 0001:0001db00       ?internal_destroy@recursive_mutex@tbb@@AEAAXXZ 000000018001eb00 f   recursive_mutex.obj
 0001:0001dc40       ?internal_initialize_condition_variable@internal@interface5@tbb@@YAXAEATcondvar_impl_t@123@@Z 000000018001ec40 f   condition_variable.obj
 0001:0001dca0       ?internal_destroy_condition_variable@internal@interface5@tbb@@YAXAEATcondvar_impl_t@123@@Z 000000018001eca0 f   condition_variable.obj
 0001:0001dce0       ?internal_condition_variable_notify_one@internal@interface5@tbb@@YAXAEATcondvar_impl_t@123@@Z 000000018001ece0 f   condition_variable.obj
 0001:0001dd20       ?internal_condition_variable_notify_all@internal@interface5@tbb@@YAXAEATcondvar_impl_t@123@@Z 000000018001ed20 f   condition_variable.obj
 0001:0001dd60       ?internal_condition_variable_wait@internal@interface5@tbb@@YA_NAEATcondvar_impl_t@123@PEAVmutex@3@PEBVinterval_t@tick_count@3@@Z 000000018001ed60 f   condition_variable.obj
 0001:0001de20       ?init_condvar_using_event@internal@tbb@@YAXPEAUcondition_variable_using_event@1interface5@2@@Z 000000018001ee20 f   condition_variable.obj
 0001:0001deb0       ?sleep_condition_variable_cs_using_event@internal@tbb@@YAHPEAUcondition_variable_using_event@1interface5@2@PEAU_RTL_CRITICAL_SECTION@@K@Z 000000018001eeb0 f   condition_variable.obj
 0001:0001e0a0       ?wake_condition_variable_using_event@internal@tbb@@YAXPEAUcondition_variable_using_event@1interface5@2@@Z 000000018001f0a0 f   condition_variable.obj
 0001:0001e140       ?wake_all_condition_variable_using_event@internal@tbb@@YAXPEAUcondition_variable_using_event@1interface5@2@@Z 000000018001f140 f   condition_variable.obj
 0001:0001e1d0       ?destroy_condvar_using_event@internal@tbb@@YAXPEAUcondition_variable_using_event@1interface5@2@@Z 000000018001f1d0 f   condition_variable.obj
 0001:0001e290       ?destroy_condvar_noop@internal@tbb@@YAXPEAU_RTL_CONDITION_VARIABLE@@@Z 000000018001f290 f   condition_variable.obj
 0001:0001e2a0       ?init_condvar_module@internal@tbb@@YAXXZ 000000018001f2a0 f   condition_variable.obj
 0001:0001e330       ??$spin_wait_until_eq@HH@internal@tbb@@YAXAEDHH@Z 000000018001f330 f i condition_variable.obj
 0001:0001e390       ?inlineCreateEventEx@@YAPEAXPEAU_SECURITY_ATTRIBUTES@@PEBDKK@Z 000000018001f390 f i condition_variable.obj
 0001:0001e430       ?native_handle@mutex@tbb@@QEAAPEAU_RTL_CRITICAL_SECTION@@XZ 000000018001f430 f i condition_variable.obj
 0001:0001e440       ?resolution@tick_count@tbb@@SANXZ 000000018001f440 f i condition_variable.obj
 0001:0001e480       ?seconds@interval_t@tick_count@tbb@@QEBANXZ 000000018001f480 f i condition_variable.obj
 0001:0001e4d0       ?set_state@mutex@tbb@@QEAAXW4state_t@12@@Z 000000018001f4d0 f i condition_variable.obj
 0001:0001e4f0       ?ticks_per_second@interval_t@tick_count@tbb@@CA_JXZ 000000018001f4f0 f i condition_variable.obj
 0001:0001e560       ?allocate_closure_v3@internal@tbb@@YAPEAX_K@Z 000000018001f560 f   tbb_thread.obj
 0001:0001e5a0       ?free_closure_v3@internal@tbb@@YAXPEAX@Z 000000018001f5a0 f   tbb_thread.obj
 0001:0001e5e0       ?join@tbb_thread_v3@internal@tbb@@QEAAXXZ 000000018001f5e0 f   tbb_thread.obj
 0001:0001e6e0       ?detach@tbb_thread_v3@internal@tbb@@QEAAXXZ 000000018001f6e0 f   tbb_thread.obj
 0001:0001e770       ?hardware_concurrency@tbb_thread_v3@internal@tbb@@SAIXZ 000000018001f770 f   tbb_thread.obj
 0001:0001e7a0       ?internal_start@tbb_thread_v3@internal@tbb@@AEAAXP6AIPEAX@Z0@Z 000000018001f7a0 f   tbb_thread.obj
 0001:0001e850       ?move_v3@internal@tbb@@YAXAEAVtbb_thread_v3@12@0@Z 000000018001f850 f   tbb_thread.obj
 0001:0001e8e0       ?thread_get_id_v3@internal@tbb@@YA?AVid@tbb_thread_v3@12@XZ 000000018001f8e0 f   tbb_thread.obj
 0001:0001e930       ?thread_yield_v3@internal@tbb@@YAXXZ 000000018001f930 f   tbb_thread.obj
 0001:0001e960       ?thread_sleep_v3@internal@tbb@@YAXAEBVinterval_t@tick_count@2@@Z 000000018001f960 f   tbb_thread.obj
 0001:0001ea60       ??0id@tbb_thread_v3@internal@tbb@@AEAA@K@Z 000000018001fa60 f i tbb_thread.obj
 0001:0001ea80       ??0interval_t@tick_count@tbb@@AEAA@_J@Z 000000018001fa80 f i tbb_thread.obj
 0001:0001eaa0       ??0tick_count@tbb@@QEAA@XZ 000000018001faa0 f i tbb_thread.obj
 0001:0001eac0       ??Gtbb@@YA?AVinterval_t@tick_count@0@AEBV120@0@Z 000000018001fac0 f i tbb_thread.obj
 0001:0001eb20       ??Gtbb@@YA?AVinterval_t@tick_count@0@AEBV20@0@Z 000000018001fb20 f i tbb_thread.obj
 0001:0001eb80       ?active_value@global_control@interface9@tbb@@SA_KW4parameter@123@@Z 000000018001fb80 f i tbb_thread.obj
 0001:0001ebe0       ?default_num_threads@governor@internal@tbb@@SAIXZ 000000018001fbe0 f i tbb_thread.obj
 0001:0001ec30       ?get_id@tbb_thread_v3@internal@tbb@@QEBA?AVid@123@XZ 000000018001fc30 f i tbb_thread.obj
 0001:0001ec80       ?joinable@tbb_thread_v3@internal@tbb@@QEBA_NXZ 000000018001fc80 f i tbb_thread.obj
 0001:0001ecd0       ?now@tick_count@tbb@@SA?AV12@XZ 000000018001fcd0 f i tbb_thread.obj
 0001:0001ed70       ?init@thread_context@concurrent_monitor@internal@tbb@@AEAAXXZ 000000018001fd70 f   concurrent_monitor.obj
 0001:0001edd0       ??1concurrent_monitor@internal@tbb@@QEAA@XZ 000000018001fdd0 f   concurrent_monitor.obj
 0001:0001ee60       ?prepare_wait@concurrent_monitor@internal@tbb@@QEAAXAEAVthread_context@123@_K@Z 000000018001fe60 f   concurrent_monitor.obj
 0001:0001ef70       ?cancel_wait@concurrent_monitor@internal@tbb@@QEAAXAEAVthread_context@123@@Z 000000018001ff70 f   concurrent_monitor.obj
 0001:0001f050       ?notify_one_relaxed@concurrent_monitor@internal@tbb@@QEAAXXZ 0000000180020050 f   concurrent_monitor.obj
 0001:0001f190       ?notify_all_relaxed@concurrent_monitor@internal@tbb@@QEAAXXZ 0000000180020190 f   concurrent_monitor.obj
 0001:0001f350       ?abort_all_relaxed@concurrent_monitor@internal@tbb@@QEAAXXZ 0000000180020350 f   concurrent_monitor.obj
 0001:0001f520       ??0binary_semaphore@internal@tbb@@QEAA@XZ 0000000180020520 f i concurrent_monitor.obj
 0001:0001f570       ?flush_to@circular_doubly_linked_list_with_sentinel@internal@tbb@@QEAAXAEAV123@@Z 0000000180020570 f i concurrent_monitor.obj
 0001:0001f6b0       ?join@thread_monitor@internal@rml@@SAXPEAX@Z 00000001800206b0 f   private_server.obj
 0001:0001f750       ?detach_thread@thread_monitor@internal@rml@@SAXPEAX@Z 0000000180020750 f   private_server.obj
 0001:0001f7b0       ?run@private_worker@rml@internal@tbb@@AEAAXXZ 00000001800207b0 f   private_server.obj
 0001:0001f960       ?start_shutdown@private_worker@rml@internal@tbb@@AEAAXXZ 0000000180020960 f   private_server.obj
 0001:0001fa40       ?thread_routine@private_worker@rml@internal@tbb@@CAIPEAX@Z 0000000180020a40 f   private_server.obj
 0001:0001fb70       ?release_handle@private_worker@rml@internal@tbb@@CAXPEAX_N@Z 0000000180020b70 f   private_server.obj
 0001:0001fbc0       ?wake_some@private_server@rml@internal@tbb@@AEAAXH@Z 0000000180020bc0 f   private_server.obj
 0001:0001fe10       ??1private_server@rml@internal@tbb@@EEAA@XZ 0000000180020e10 f   private_server.obj
 0001:0001ff20       ??0private_server@rml@internal@tbb@@QEAA@AEAVtbb_client@123@@Z 0000000180020f20 f   private_server.obj
 0001:00020100       ?adjust_job_count_estimate@private_server@rml@internal@tbb@@UEAAXH@Z 0000000180021100 f   private_server.obj
 0001:00020180       ?make_private_server@rml@internal@tbb@@YAPEAVtbb_server@123@AEAVtbb_client@123@@Z 0000000180021180 f   private_server.obj
 0001:000201e0       ??$__TBB_store_full_fence@CC@internal@tbb@@YAXAECCC@Z 00000001800211e0 f i private_server.obj
 0001:00020220       ??$compare_and_swap@$0A@@?$atomic_impl@H@internal@tbb@@QEAAHHH@Z 0000000180021220 f i private_server.obj
 0001:00020280       ??$compare_and_swap@$0A@@?$atomic_impl@W4state_t@private_worker@rml@internal@tbb@@@internal@tbb@@QEAA?AW4state_t@private_worker@rml@12@W434512@0@Z 0000000180021280 f i private_server.obj
 0001:000202e0       ??$fetch_and_add@$0A@@?$atomic_impl_with_arithmetic@HHD@internal@tbb@@QEAAHH@Z 00000001800212e0 f i private_server.obj
 0001:00020320       ??$fetch_and_store@$0A@@?$atomic_impl@_N@internal@tbb@@QEAA_N_N@Z 0000000180021320 f i private_server.obj
 0001:00020370       ??$poison_pointer@Vpadded_private_worker@rml@internal@tbb@@@internal@tbb@@YAXAEAPEAVpadded_private_worker@rml@01@@Z 0000000180021370 f i private_server.obj
 0001:00020390       ??$store@$0A@@?$atomic_impl@_N@internal@tbb@@QEAAX_N@Z 0000000180021390 f i private_server.obj
 0001:000203e0       ??$store@C@?$atomic_load_store_traits@$0A@@internal@tbb@@SAXAECCC@Z 00000001800213e0 f i private_server.obj
 0001:00020420       ??$suppress_unused_warning@$$BY0DI@D@internal@tbb@@YAXAEAY0DI@$$CBD@Z 0000000180021420 f i private_server.obj
 0001:00020430       ??$to_bits@H@?$atomic_impl@H@internal@tbb@@CAHH@Z 0000000180021430 f i private_server.obj
 0001:00020470       ??$to_bits@PEAVprivate_worker@rml@internal@tbb@@@?$atomic_impl@PEAVprivate_worker@rml@internal@tbb@@@internal@tbb@@CA_JPEAVprivate_worker@rml@12@@Z 0000000180021470 f i private_server.obj
 0001:000204b0       ??$to_bits@W4state_t@private_worker@rml@internal@tbb@@@?$atomic_impl@W4state_t@private_worker@rml@internal@tbb@@@internal@tbb@@CAHW4state_t@private_worker@rml@12@@Z 00000001800214b0 f i private_server.obj
 0001:000204f0       ??$to_bits_ref@$$CDH@?$atomic_impl@H@internal@tbb@@CAAEAHAEDH@Z 00000001800214f0 f i private_server.obj
 0001:00020530       ??$to_bits_ref@$$CDW4state_t@private_worker@rml@internal@tbb@@@?$atomic_impl@W4state_t@private_worker@rml@internal@tbb@@@internal@tbb@@CAAEAHAEDW4state_t@private_worker@rml@12@@Z 0000000180021530 f i private_server.obj
 0001:00020570       ??$to_bits_ref@H@?$atomic_impl@H@internal@tbb@@CAAEAHAEAH@Z 0000000180021570 f i private_server.obj
 0001:000205b0       ??$to_bits_ref@PEAVprivate_worker@rml@internal@tbb@@@?$atomic_impl@PEAVprivate_worker@rml@internal@tbb@@@internal@tbb@@CAAEA_JAEAPEAVprivate_worker@rml@12@@Z 00000001800215b0 f i private_server.obj
 0001:000205f0       ??$to_bits_ref@SEAVprivate_worker@rml@internal@tbb@@@?$atomic_impl@PEAVprivate_worker@rml@internal@tbb@@@internal@tbb@@CAAEA_JAEDSEAVprivate_worker@rml@12@@Z 00000001800215f0 f i private_server.obj
 0001:00020630       ??$to_bits_ref@W4state_t@private_worker@rml@internal@tbb@@@?$atomic_impl@W4state_t@private_worker@rml@internal@tbb@@@internal@tbb@@CAAEAHAEAW4state_t@private_worker@rml@12@@Z 0000000180021630 f i private_server.obj
 0001:00020670       ??$to_value@H@?$atomic_impl@H@internal@tbb@@CAHH@Z 0000000180021670 f i private_server.obj
 0001:000206c0       ??$to_value@PEAVprivate_worker@rml@internal@tbb@@@?$atomic_impl@PEAVprivate_worker@rml@internal@tbb@@@internal@tbb@@CAPEAVprivate_worker@rml@12@_J@Z 00000001800216c0 f i private_server.obj
 0001:00020720       ??$to_value@W4state_t@private_worker@rml@internal@tbb@@@?$atomic_impl@W4state_t@private_worker@rml@internal@tbb@@@internal@tbb@@CA?AW4state_t@private_worker@rml@12@H@Z 0000000180021720 f i private_server.obj
 0001:00020770       ??0?$cache_aligned_allocator@Vpadded_private_worker@rml@internal@tbb@@@tbb@@QEAA@XZ 0000000180021770 f i private_server.obj
 0001:00020780       ??0?$cache_aligned_allocator@Vprivate_server@rml@internal@tbb@@@tbb@@QEAA@XZ 0000000180021780 f i private_server.obj
 0001:00020790       ??0?$converter@H@?$atomic_impl@H@internal@tbb@@QEAA@H@Z 0000000180021790 f i private_server.obj
 0001:000207b0       ??0?$converter@H@?$atomic_impl@H@internal@tbb@@QEAA@XZ 00000001800217b0 f i private_server.obj
 0001:000207c0       ??0?$converter@PEAVprivate_worker@rml@internal@tbb@@@?$atomic_impl@PEAVprivate_worker@rml@internal@tbb@@@internal@tbb@@QEAA@PEAVprivate_worker@rml@23@@Z 00000001800217c0 f i private_server.obj
 0001:000207e0       ??0?$converter@PEAVprivate_worker@rml@internal@tbb@@@?$atomic_impl@PEAVprivate_worker@rml@internal@tbb@@@internal@tbb@@QEAA@XZ 00000001800217e0 f i private_server.obj
 0001:000207f0       ??0?$converter@W4state_t@private_worker@rml@internal@tbb@@@?$atomic_impl@W4state_t@private_worker@rml@internal@tbb@@@internal@tbb@@QEAA@W4state_t@private_worker@rml@23@@Z 00000001800217f0 f i private_server.obj
 0001:00020810       ??0?$converter@W4state_t@private_worker@rml@internal@tbb@@@?$atomic_impl@W4state_t@private_worker@rml@internal@tbb@@@internal@tbb@@QEAA@XZ 0000000180021810 f i private_server.obj
 0001:00020820       ??0?$ptr_converter@PEAH@?$atomic_impl@H@internal@tbb@@QEAA@PEAH@Z 0000000180021820 f i private_server.obj
 0001:00020840       ??0?$ptr_converter@PEAPEAVprivate_worker@rml@internal@tbb@@@?$atomic_impl@PEAVprivate_worker@rml@internal@tbb@@@internal@tbb@@QEAA@PEAPEAVprivate_worker@rml@23@@Z 0000000180021840 f i private_server.obj
 0001:00020860       ??0?$ptr_converter@PEAW4state_t@private_worker@rml@internal@tbb@@@?$atomic_impl@W4state_t@private_worker@rml@internal@tbb@@@internal@tbb@@QEAA@PEAW4state_t@private_worker@rml@23@@Z 0000000180021860 f i private_server.obj
 0001:00020880       ??0?$ptr_converter@PEDH@?$atomic_impl@H@internal@tbb@@QEAA@PEDH@Z 0000000180021880 f i private_server.obj
 0001:000208a0       ??0?$ptr_converter@PEDSEAVprivate_worker@rml@internal@tbb@@@?$atomic_impl@PEAVprivate_worker@rml@internal@tbb@@@internal@tbb@@QEAA@PEDSEAVprivate_worker@rml@23@@Z 00000001800218a0 f i private_server.obj
 0001:000208c0       ??0?$ptr_converter@PEDW4state_t@private_worker@rml@internal@tbb@@@?$atomic_impl@W4state_t@private_worker@rml@internal@tbb@@@internal@tbb@@QEAA@PEDW4state_t@private_worker@rml@23@@Z 00000001800218c0 f i private_server.obj
 0001:000208e0       ??0padded_private_worker@rml@internal@tbb@@QEAA@AEAVprivate_server@123@AEAVtbb_client@123@_K@Z 00000001800218e0 f i private_server.obj
 0001:00020950       ??0private_worker@rml@internal@tbb@@IEAA@AEAVprivate_server@123@AEAVtbb_client@123@_K@Z 0000000180021950 f i private_server.obj
 0001:00020a10       ??0scoped_lock@spin_mutex@tbb@@QEAA@XZ 0000000180021a10 f i private_server.obj
 0001:00020a60       ??0server@rml@@QEAA@XZ     0000000180021a60 f i private_server.obj
 0001:00020ab0       ??0tbb_server@rml@internal@tbb@@QEAA@XZ 0000000180021ab0 f i private_server.obj
 0001:00020b00       ??0thread_monitor@internal@rml@@QEAA@XZ 0000000180021b00 f i private_server.obj
 0001:00020bb0       ??0versioned_object@rml@@QEAA@XZ 0000000180021bb0 f i private_server.obj
 0001:00020bd0       ??1padded_private_worker@rml@internal@tbb@@QEAA@XZ 0000000180021bd0 f i private_server.obj
 0001:00020c00       ??1private_worker@rml@internal@tbb@@QEAA@XZ 0000000180021c00 f i private_server.obj
 0001:00020c40       ??1thread_monitor@internal@rml@@QEAA@XZ 0000000180021c40 f i private_server.obj
 0001:00020c80       ??4?$atomic@H@tbb@@QEAAHH@Z 0000000180021c80 f i private_server.obj
 0001:00020cc0       ??4?$atomic@PEAVprivate_worker@rml@internal@tbb@@@tbb@@QEAAPEAVprivate_worker@rml@internal@1@PEAV2341@@Z 0000000180021cc0 f i private_server.obj
 0001:00020d00       ??4?$atomic@W4state_t@private_worker@rml@internal@tbb@@@tbb@@QEAA?AW4state_t@private_worker@rml@internal@1@W423451@@Z 0000000180021d00 f i private_server.obj
 0001:00020d40       ??4cookie@thread_monitor@internal@rml@@QEAAAEAV0123@AEBV0123@@Z 0000000180021d40 f i private_server.obj
 0001:00020d80       ??B?$atomic_impl@H@internal@tbb@@QEDAHXZ 0000000180021d80 f i private_server.obj
 0001:00020dc0       ??B?$atomic_impl@PEAVprivate_worker@rml@internal@tbb@@@internal@tbb@@QEDAPEAVprivate_worker@rml@12@XZ 0000000180021dc0 f i private_server.obj
 0001:00020e10       ??B?$atomic_impl@W4state_t@private_worker@rml@internal@tbb@@@internal@tbb@@QEDA?AW4state_t@private_worker@rml@12@XZ 0000000180021e10 f i private_server.obj
 0001:00020e50       ??E?$atomic_impl_with_arithmetic@HHD@internal@tbb@@QEAAHXZ 0000000180021e50 f i private_server.obj
 0001:00020e90       ??F?$atomic_impl_with_arithmetic@HHD@internal@tbb@@QEAAHXZ 0000000180021e90 f i private_server.obj
 0001:00020ed0       ??Y?$atomic_impl_with_arithmetic@HHD@internal@tbb@@QEAAHH@Z 0000000180021ed0 f i private_server.obj
 0001:00020f10       ??_Gpadded_private_worker@rml@internal@tbb@@QEAAPEAXI@Z 0000000180021f10 f i private_server.obj
 0001:00020f70       ??_Eprivate_server@rml@internal@tbb@@EEAAPEAXI@Z 0000000180021f70 f i private_server.obj
 0001:00020f70       ??_Gprivate_server@rml@internal@tbb@@EEAAPEAXI@Z 0000000180021f70 f i private_server.obj
 0001:00020fd0       ?allocate@?$cache_aligned_allocator@Vpadded_private_worker@rml@internal@tbb@@@tbb@@QEAAPEAVpadded_private_worker@rml@internal@2@_KPEBX@Z 0000000180021fd0 f i private_server.obj
 0001:00021020       ?allocate@?$cache_aligned_allocator@Vprivate_server@rml@internal@tbb@@@tbb@@QEAAPEAVprivate_server@rml@internal@2@_KPEBX@Z 0000000180022020 f i private_server.obj
 0001:00021070       ?cancel_wait@thread_monitor@internal@rml@@QEAAXXZ 0000000180022070 f i private_server.obj
 0001:000210d0       ?commit_wait@thread_monitor@internal@rml@@QEAAXAEAVcookie@123@@Z 00000001800220d0 f i private_server.obj
 0001:00021160       ?compare_and_swap@?$atomic_impl@H@internal@tbb@@QEAAHHH@Z 0000000180022160 f i private_server.obj
 0001:000211a0       ?compare_and_swap@?$atomic_impl@W4state_t@private_worker@rml@internal@tbb@@@internal@tbb@@QEAA?AW4state_t@private_worker@rml@23@W445623@0@Z 00000001800221a0 f i private_server.obj
 0001:000211e0       ?deallocate@?$cache_aligned_allocator@Vpadded_private_worker@rml@internal@tbb@@@tbb@@QEAAXPEAVpadded_private_worker@rml@internal@2@_K@Z 00000001800221e0 f i private_server.obj
 0001:00021220       ?deallocate@?$cache_aligned_allocator@Vprivate_server@rml@internal@tbb@@@tbb@@QEAAXPEAVprivate_server@rml@internal@2@_K@Z 0000000180022220 f i private_server.obj
 0001:00021260       ?default_concurrency@private_server@rml@internal@tbb@@UEBAIXZ 0000000180022260 f i private_server.obj
 0001:00021290       ?fetch_and_add@?$atomic_impl_with_arithmetic@HHD@internal@tbb@@QEAAHH@Z 0000000180022290 f i private_server.obj
 0001:000212d0       ?fetch_and_store@?$atomic_impl@_N@internal@tbb@@QEAA_N_N@Z 00000001800222d0 f i private_server.obj
 0001:00021310       ?fetch_and_store@?$atomic_traits@$00$0A@@internal@tbb@@SACPECXC@Z 0000000180022310 f i private_server.obj
 0001:00021350       ?fetch_store@?$atomic_selector@$00@internal@tbb@@SACPECXC@Z 0000000180022350 f i private_server.obj
 0001:00021390       ?independent_thread_number_changed@private_server@rml@internal@tbb@@UEAAXH@Z 0000000180022390 f i private_server.obj
 0001:000213e0       ?launch@thread_monitor@internal@rml@@SAPEAXP6AIPEAX@Z0_KPEB_K@Z 00000001800223e0 f i private_server.obj
 0001:00021510       ?notify@thread_monitor@internal@rml@@QEAAXXZ 0000000180022510 f i private_server.obj
 0001:00021590       ?prepare_wait@thread_monitor@internal@rml@@QEAAXAEAVcookie@123@@Z 0000000180022590 f i private_server.obj
 0001:00021610       ?propagate_chain_reaction@private_server@rml@internal@tbb@@AEAAXXZ 0000000180022610 f i private_server.obj
 0001:00021660       ?register_master@private_server@rml@internal@tbb@@UEAAXAEAPEAX@Z 0000000180022660 f i private_server.obj
 0001:00021670       ?remove_server_ref@private_server@rml@internal@tbb@@AEAAXXZ 0000000180022670 f i private_server.obj
 0001:000216f0       ?request_close_connection@private_server@rml@internal@tbb@@UEAAX_N@Z 00000001800226f0 f i private_server.obj
 0001:00021770       ?store@?$machine_load_store_seq_cst@C$00@internal@tbb@@SAXAECCC@Z 0000000180022770 f i private_server.obj
 0001:000217b0       ?store_with_release@?$atomic_impl@H@internal@tbb@@IEAAHH@Z 00000001800227b0 f i private_server.obj
 0001:00021810       ?store_with_release@?$atomic_impl@PEAVprivate_worker@rml@internal@tbb@@@internal@tbb@@IEAAPEAVprivate_worker@rml@23@PEAV4523@@Z 0000000180022810 f i private_server.obj
 0001:00021870       ?store_with_release@?$atomic_impl@W4state_t@private_worker@rml@internal@tbb@@@internal@tbb@@IEAA?AW4state_t@private_worker@rml@23@W445623@@Z 0000000180022870 f i private_server.obj
 0001:000218d0       ?try_acquire@scoped_lock@spin_mutex@tbb@@QEAA_NAEAV23@@Z 00000001800228d0 f i private_server.obj
 0001:00021910       ?try_insert_in_asleep_list@private_server@rml@internal@tbb@@AEAA_NAEAVprivate_worker@234@@Z 0000000180022910 f i private_server.obj
 0001:00021a30       ?unregister_master@private_server@rml@internal@tbb@@UEAAXPEAX@Z 0000000180022a30 f i private_server.obj
 0001:00021a40       ?version@private_server@rml@internal@tbb@@UEBAIXZ 0000000180022a40 f i private_server.obj
 0001:00021a50       ?wake_or_launch@private_worker@rml@internal@tbb@@AEAAXXZ 0000000180022a50 f i private_server.obj
 0001:00021b80       ?yield@private_server@rml@internal@tbb@@UEAAXXZ 0000000180022b80 f i private_server.obj
 0001:00021bb0       __local_stdio_printf_options 0000000180022bb0 f i private_server.obj
 0001:00021bc0       _vfprintf_l                0000000180022bc0 f i private_server.obj
 0001:00021c20       fprintf                    0000000180022c20 f i private_server.obj
 0001:00021ca0       ?open@tbb_factory@rml@internal@tbb@@QEAA?AW4status_type@factory@2@XZ 0000000180022ca0 f   rml_tbb.obj
 0001:00021e30       ?make_server@tbb_factory@rml@internal@tbb@@QEAA?AW4status_type@factory@2@AEAPEAVtbb_server@234@AEAVtbb_client@234@@Z 0000000180022e30 f   rml_tbb.obj
 0001:00021eb0       ?close@tbb_factory@rml@internal@tbb@@QEAAXXZ 0000000180022eb0 f   rml_tbb.obj
 0001:00021f20       ?call_with_server_info@tbb_factory@rml@internal@tbb@@QEBAXP6AXPEAXPEBD@Z0@Z 0000000180022f20 f   rml_tbb.obj
 0001:00021f90       ?set_assertion_handler@tbb@@YAP6AXPEBDH00@ZP6AX0H00@Z@Z 0000000180022f90 f   tbb_misc.obj
 0001:00021fe0       ?assertion_failure@tbb@@YAXPEBDH00@Z 0000000180022fe0 f   tbb_misc.obj
 0001:00022120       TBB_runtime_interface_version 0000000180023120 f   tbb_misc.obj
 0001:00022130       ?handle_perror@internal@tbb@@YAXHPEBD@Z 0000000180023130 f   tbb_misc.obj
 0001:00022270       ?runtime_warning@internal@tbb@@YAXPEBDZZ 0000000180023270 f   tbb_misc.obj
 0001:00022350       ?what@bad_last_alloc@tbb@@UEBAPEBDXZ 0000000180023350 f   tbb_misc.obj
 0001:00022370       ?what@improper_lock@tbb@@UEBAPEBDXZ 0000000180023370 f   tbb_misc.obj
 0001:00022390       ?what@user_abort@tbb@@UEBAPEBDXZ 0000000180023390 f   tbb_misc.obj
 0001:000223b0       ?what@missing_wait@tbb@@UEBAPEBDXZ 00000001800233b0 f   tbb_misc.obj
 0001:000223d0       ?what@invalid_multiple_scheduling@tbb@@UEBAPEBDXZ 00000001800233d0 f   tbb_misc.obj
 0001:000223f0       ?throw_bad_last_alloc_exception_v4@internal@tbb@@YAXXZ 00000001800233f0 f   tbb_misc.obj
 0001:00022420       ?throw_exception_v4@internal@tbb@@YAXW4exception_id@12@@Z 0000000180023420 f   tbb_misc.obj
 0001:00022860       ?handle_win_error@internal@tbb@@YAXH@Z 0000000180023860 f   tbb_misc.obj
 0001:00022920       ?PrintVersion@internal@tbb@@YAXXZ 0000000180023920 f   tbb_misc.obj
 0001:00022970       ?PrintExtraVersionInfo@internal@tbb@@YAXPEBD0ZZ 0000000180023970 f   tbb_misc.obj
 0001:00022a70       ?PrintRMLVersionInfo@internal@tbb@@YAXPEAXPEBD@Z 0000000180023a70 f   tbb_misc.obj
 0001:00022ab0       ?cpu_has_speculation@internal@tbb@@YA_NXZ 0000000180023ab0 f   tbb_misc.obj
 0001:00022b90       ?gcc_rethrow_exception_broken@internal@tbb@@YA_NXZ 0000000180023b90 f   tbb_misc.obj
 0001:00022ba0       ?fix_broken_rethrow@internal@tbb@@YAXXZ 0000000180023ba0 f   tbb_misc.obj
 0001:00022bb0       ??0bad_alloc@std@@QEAA@AEBV01@@Z 0000000180023bb0 f i tbb_misc.obj
 0001:00022c00       ??0bad_alloc@std@@QEAA@XZ  0000000180023c00 f i tbb_misc.obj
 0001:00022c50       ??0bad_last_alloc@tbb@@QEAA@AEBV01@@Z 0000000180023c50 f i tbb_misc.obj
 0001:00022ca0       ??0bad_last_alloc@tbb@@QEAA@XZ 0000000180023ca0 f i tbb_misc.obj
 0001:00022cf0       ??0exception@std@@QEAA@AEBV01@@Z 0000000180023cf0 f i tbb_misc.obj
 0001:00022d60       ??0exception@std@@QEAA@QEBD@Z 0000000180023d60 f i tbb_misc.obj
 0001:00022df0       ??0exception@std@@QEAA@QEBDH@Z 0000000180023df0 f i tbb_misc.obj
 0001:00022e40       ??0exception@std@@QEAA@XZ  0000000180023e40 f i tbb_misc.obj
 0001:00022e80       ??0improper_lock@tbb@@QEAA@AEBV01@@Z 0000000180023e80 f i tbb_misc.obj
 0001:00022ed0       ??0improper_lock@tbb@@QEAA@XZ 0000000180023ed0 f i tbb_misc.obj
 0001:00022f20       ??0invalid_argument@std@@QEAA@AEBV01@@Z 0000000180023f20 f i tbb_misc.obj
 0001:00022f70       ??0invalid_argument@std@@QEAA@PEBD@Z 0000000180023f70 f i tbb_misc.obj
 0001:00022fc0       ??0invalid_multiple_scheduling@tbb@@QEAA@AEBV01@@Z 0000000180023fc0 f i tbb_misc.obj
 0001:00023010       ??0invalid_multiple_scheduling@tbb@@QEAA@XZ 0000000180024010 f i tbb_misc.obj
 0001:00023060       ??0length_error@std@@QEAA@AEBV01@@Z 0000000180024060 f i tbb_misc.obj
 0001:000230b0       ??0length_error@std@@QEAA@PEBD@Z 00000001800240b0 f i tbb_misc.obj
 0001:00023100       ??0logic_error@std@@QEAA@AEBV01@@Z 0000000180024100 f i tbb_misc.obj
 0001:00023150       ??0logic_error@std@@QEAA@PEBD@Z 0000000180024150 f i tbb_misc.obj
 0001:000231a0       ??0missing_wait@tbb@@QEAA@AEBV01@@Z 00000001800241a0 f i tbb_misc.obj
 0001:000231f0       ??0missing_wait@tbb@@QEAA@XZ 00000001800241f0 f i tbb_misc.obj
 0001:00023240       ??0out_of_range@std@@QEAA@AEBV01@@Z 0000000180024240 f i tbb_misc.obj
 0001:00023290       ??0out_of_range@std@@QEAA@PEBD@Z 0000000180024290 f i tbb_misc.obj
 0001:000232e0       ??0range_error@std@@QEAA@AEBV01@@Z 00000001800242e0 f i tbb_misc.obj
 0001:00023330       ??0range_error@std@@QEAA@PEBD@Z 0000000180024330 f i tbb_misc.obj
 0001:00023380       ??0runtime_error@std@@QEAA@AEBV01@@Z 0000000180024380 f i tbb_misc.obj
 0001:000233d0       ??0runtime_error@std@@QEAA@PEBD@Z 00000001800243d0 f i tbb_misc.obj
 0001:00023420       ??0user_abort@tbb@@QEAA@AEBV01@@Z 0000000180024420 f i tbb_misc.obj
 0001:00023470       ??0user_abort@tbb@@QEAA@XZ 0000000180024470 f i tbb_misc.obj
 0001:000234c0       ??1bad_alloc@std@@UEAA@XZ  00000001800244c0 f i tbb_misc.obj
 0001:000234f0       ??1bad_last_alloc@tbb@@UEAA@XZ 00000001800244f0 f i tbb_misc.obj
 0001:00023520       ??1exception@std@@UEAA@XZ  0000000180024520 f i tbb_misc.obj
 0001:00023570       ??1improper_lock@tbb@@UEAA@XZ 0000000180024570 f i tbb_misc.obj
 0001:000235a0       ??1invalid_argument@std@@UEAA@XZ 00000001800245a0 f i tbb_misc.obj
 0001:000235d0       ??1invalid_multiple_scheduling@tbb@@UEAA@XZ 00000001800245d0 f i tbb_misc.obj
 0001:00023600       ??1length_error@std@@UEAA@XZ 0000000180024600 f i tbb_misc.obj
 0001:00023630       ??1logic_error@std@@UEAA@XZ 0000000180024630 f i tbb_misc.obj
 0001:00023660       ??1missing_wait@tbb@@UEAA@XZ 0000000180024660 f i tbb_misc.obj
 0001:00023690       ??1out_of_range@std@@UEAA@XZ 0000000180024690 f i tbb_misc.obj
 0001:000236c0       ??1range_error@std@@UEAA@XZ 00000001800246c0 f i tbb_misc.obj
 0001:000236f0       ??1runtime_error@std@@UEAA@XZ 00000001800246f0 f i tbb_misc.obj
 0001:00023720       ??1user_abort@tbb@@UEAA@XZ 0000000180024720 f i tbb_misc.obj
 0001:00023750       ??_Gbad_alloc@std@@UEAAPEAXI@Z 0000000180024750 f i tbb_misc.obj
 0001:00023750       ??_Ebad_alloc@std@@UEAAPEAXI@Z 0000000180024750 f i tbb_misc.obj
 0001:000237b0       ??_Gbad_last_alloc@tbb@@UEAAPEAXI@Z 00000001800247b0 f i tbb_misc.obj
 0001:000237b0       ??_Ebad_last_alloc@tbb@@UEAAPEAXI@Z 00000001800247b0 f i tbb_misc.obj
 0001:00023810       ??_Gexception@std@@UEAAPEAXI@Z 0000000180024810 f i tbb_misc.obj
 0001:00023810       ??_Eexception@std@@UEAAPEAXI@Z 0000000180024810 f i tbb_misc.obj
 0001:00023870       ??_Gimproper_lock@tbb@@UEAAPEAXI@Z 0000000180024870 f i tbb_misc.obj
 0001:00023870       ??_Eimproper_lock@tbb@@UEAAPEAXI@Z 0000000180024870 f i tbb_misc.obj
 0001:000238d0       ??_Ginvalid_argument@std@@UEAAPEAXI@Z 00000001800248d0 f i tbb_misc.obj
 0001:000238d0       ??_Einvalid_argument@std@@UEAAPEAXI@Z 00000001800248d0 f i tbb_misc.obj
 0001:00023930       ??_Ginvalid_multiple_scheduling@tbb@@UEAAPEAXI@Z 0000000180024930 f i tbb_misc.obj
 0001:00023930       ??_Einvalid_multiple_scheduling@tbb@@UEAAPEAXI@Z 0000000180024930 f i tbb_misc.obj
 0001:00023990       ??_Glength_error@std@@UEAAPEAXI@Z 0000000180024990 f i tbb_misc.obj
 0001:00023990       ??_Elength_error@std@@UEAAPEAXI@Z 0000000180024990 f i tbb_misc.obj
 0001:000239f0       ??_Glogic_error@std@@UEAAPEAXI@Z 00000001800249f0 f i tbb_misc.obj
 0001:000239f0       ??_Elogic_error@std@@UEAAPEAXI@Z 00000001800249f0 f i tbb_misc.obj
 0001:00023a50       ??_Emissing_wait@tbb@@UEAAPEAXI@Z 0000000180024a50 f i tbb_misc.obj
 0001:00023a50       ??_Gmissing_wait@tbb@@UEAAPEAXI@Z 0000000180024a50 f i tbb_misc.obj
 0001:00023ab0       ??_Gout_of_range@std@@UEAAPEAXI@Z 0000000180024ab0 f i tbb_misc.obj
 0001:00023ab0       ??_Eout_of_range@std@@UEAAPEAXI@Z 0000000180024ab0 f i tbb_misc.obj
 0001:00023b10       ??_Erange_error@std@@UEAAPEAXI@Z 0000000180024b10 f i tbb_misc.obj
 0001:00023b10       ??_Grange_error@std@@UEAAPEAXI@Z 0000000180024b10 f i tbb_misc.obj
 0001:00023b70       ??_Gruntime_error@std@@UEAAPEAXI@Z 0000000180024b70 f i tbb_misc.obj
 0001:00023b70       ??_Eruntime_error@std@@UEAAPEAXI@Z 0000000180024b70 f i tbb_misc.obj
 0001:00023bd0       ??_Euser_abort@tbb@@UEAAPEAXI@Z 0000000180024bd0 f i tbb_misc.obj
 0001:00023bd0       ??_Guser_abort@tbb@@UEAAPEAXI@Z 0000000180024bd0 f i tbb_misc.obj
 0001:00023c30       ?what@exception@std@@UEBAPEBDXZ 0000000180024c30 f i tbb_misc.obj
 0001:00023c80       _snprintf                  0000000180024c80 f i tbb_misc.obj
 0001:00023d00       _vsnprintf                 0000000180024d00 f i tbb_misc.obj
 0001:00023d60       _vsnprintf_l               0000000180024d60 f i tbb_misc.obj
 0001:00023df0       vsnprintf                  0000000180024df0 f i tbb_misc.obj
 0001:00023f00       ?AvailableHwConcurrency@internal@tbb@@YAHXZ 0000000180024f00 f   tbb_misc_ex.obj
 0001:00023f60       ?NumberOfProcessorGroups@internal@tbb@@YAHXZ 0000000180024f60 f   tbb_misc_ex.obj
 0001:00023fc0       ?FindProcessorGroupIndex@internal@tbb@@YAHH@Z 0000000180024fc0 f   tbb_misc_ex.obj
 0001:00024200       ?MoveThreadIntoProcessorGroup@internal@tbb@@YAXPEAXH@Z 0000000180025200 f   tbb_misc_ex.obj
 0001:00024730       ?allocate@allocate_additional_child_of_proxy@internal@tbb@@QEBAAEAVtask@3@_K@Z 0000000180025730 f   task.obj
 0001:000247b0       ?free@allocate_additional_child_of_proxy@internal@tbb@@QEBAXAEAVtask@3@@Z 00000001800257b0 f   task.obj
 0001:00024800       ?destroy@task_base@internal@interface5@tbb@@SAXAEAVtask@4@@Z 0000000180025800 f   task.obj
 0001:00024920       ?allocate@allocate_root_with_context_proxy@internal@tbb@@QEBAAEAVtask@3@_K@Z 0000000180025920 f   task.obj
 0001:00024aa0       ?free@allocate_root_with_context_proxy@internal@tbb@@QEBAXAEAVtask@3@@Z 0000000180025aa0 f   task.obj
 0001:00024b20       ?allocate@allocate_root_proxy@internal@tbb@@SAAEAVtask@3@_K@Z 0000000180025b20 f   task.obj
 0001:00024be0       ?free@allocate_root_proxy@internal@tbb@@SAXAEAVtask@3@@Z 0000000180025be0 f   task.obj
 0001:00024c50       ?allocate@allocate_continuation_proxy@internal@tbb@@QEBAAEAVtask@3@_K@Z 0000000180025c50 f   task.obj
 0001:00024cf0       ?free@allocate_continuation_proxy@internal@tbb@@QEBAXAEAVtask@3@@Z 0000000180025cf0 f   task.obj
 0001:00024d60       ?allocate@allocate_child_proxy@internal@tbb@@QEBAAEAVtask@3@_K@Z 0000000180025d60 f   task.obj
 0001:00024de0       ?free@allocate_child_proxy@internal@tbb@@QEBAXAEAVtask@3@@Z 0000000180025de0 f   task.obj
 0001:00024e30       ?internal_set_ref_count@task@tbb@@AEAAXH@Z 0000000180025e30 f   task.obj
 0001:00024f20       ?internal_decrement_ref_count@task@tbb@@AEAA_JXZ 0000000180025f20 f   task.obj
 0001:00025000       ?spawn_and_wait_for_all@task@tbb@@QEAAXAEAVtask_list@2@@Z 0000000180026000 f   task.obj
 0001:000250b0       ?self@task@tbb@@SAAEAV12@XZ 00000001800260b0 f   task.obj
 0001:00025120       ?is_owned_by_current_thread@task@tbb@@QEBA_NXZ 0000000180026120 f   task.obj
 0001:00025130       ?note_affinity@task@tbb@@UEAAXG@Z 0000000180026130 f   task.obj
 0001:00025150       ?change_group@task@tbb@@QEAAXAEAVtask_group_context@2@@Z 0000000180026150 f   task.obj
 0001:00025250       ?get_initial_auto_partitioner_divisor@internal@tbb@@YA_KXZ 0000000180026250 f   task.obj
 0001:00025290       ?resize@affinity_partitioner_base_v3@internal@tbb@@AEAAXI@Z 0000000180026290 f   task.obj
 0001:00025380       ??$__TBB_load_relaxed@W4kind_type@task_group_context@tbb@@@internal@tbb@@YA?AW4kind_type@task_group_context@1@AEDW4231@@Z 0000000180026380 f i task.obj
 0001:000253b0       ??$__TBB_store_relaxed@W4kind_type@task_group_context@tbb@@W4123@@internal@tbb@@YAXAECW4kind_type@task_group_context@1@W4231@@Z 00000001800263b0 f i task.obj
 0001:000253f0       ??$free_task@$00@generic_scheduler@internal@tbb@@QEAAXAEAVtask@2@@Z 00000001800263f0 f i task.obj
 0001:000255a0       ??$free_task@$03@generic_scheduler@internal@tbb@@QEAAXAEAVtask@2@@Z 00000001800265a0 f i task.obj
 0001:00025760       ??$is_poisoned@PEBVtask@tbb@@@internal@tbb@@YA_NPEAPEBVtask@1@@Z 0000000180026760 f i task.obj
 0001:000257a0       ??$poison_pointer@Vscheduler@internal@tbb@@@internal@tbb@@YAXAEAPEAVscheduler@01@@Z 00000001800267a0 f i task.obj
 0001:000257c0       ??$poison_pointer@Vtask@tbb@@@internal@tbb@@YAXAEAPEAVtask@1@@Z 00000001800267c0 f i task.obj
 0001:000257e0       ??$poison_value@H@internal@tbb@@YAXAEAH@Z 00000001800267e0 f i task.obj
 0001:00025820       ??$poison_value@_J@internal@tbb@@YAXAEA_J@Z 0000000180026820 f i task.obj
 0001:00025860       ??$punned_cast@PEAH$$CB_K@internal@tbb@@YAPEAHPEB_K@Z 0000000180026860 f i task.obj
 0001:000258a0       ??$punned_cast@PEA_J$$CB_K@internal@tbb@@YAPEA_JPEB_K@Z 00000001800268a0 f i task.obj
 0001:000258e0       ?assert_task_pool_valid@generic_scheduler@internal@tbb@@QEBAXXZ 00000001800268e0 f i task.obj
 0001:000258f0       ?assert_task_valid@internal@tbb@@YAXPEBVtask@2@@Z 00000001800268f0 f i task.obj
 0001:000259d0       ?deallocate_task@generic_scheduler@internal@tbb@@QEAAXAEAVtask@3@@Z 00000001800269d0 f i task.obj
 0001:00025a60       ?default_context@generic_scheduler@internal@tbb@@QEAAPEAVtask_group_context@3@XZ 0000000180026a60 f i task.obj
 0001:00025aa0       ?get@?$basic_tls@_K@internal@tbb@@QEAA_KXZ 0000000180026aa0 f i task.obj
 0001:00025ae0       ?increment_ref_count@task@tbb@@QEAAXXZ 0000000180026ae0 f i task.obj
 0001:00025b30       ?is_worker@generic_scheduler@internal@tbb@@QEBA_NXZ 0000000180026b30 f i task.obj
 0001:00025b80       ?load@?$machine_load_store_relaxed@W4kind_type@task_group_context@tbb@@$03@internal@tbb@@SA?AW4kind_type@task_group_context@3@AEDW4453@@Z 0000000180026b80 f i task.obj
 0001:00025b90       ?local_scheduler@governor@internal@tbb@@SAPEAVgeneric_scheduler@23@XZ 0000000180026b90 f i task.obj
 0001:00025c00       ?local_scheduler_weak@governor@internal@tbb@@SAPEAVgeneric_scheduler@23@XZ 0000000180026c00 f i task.obj
 0001:00025c60       ?master_outermost_level@generic_scheduler@internal@tbb@@QEBA_NXZ 0000000180026c60 f i task.obj
 0001:00025cc0       ?max_threads_in_arena@generic_scheduler@internal@tbb@@QEAAIXZ 0000000180026cc0 f i task.obj
 0001:00025d20       ?outermost_level@generic_scheduler@internal@tbb@@QEBA_NXZ 0000000180026d20 f i task.obj
 0001:00025d40       ?prefix@task@tbb@@QEBAAEAVtask_prefix@internal@2@PEAUversion_tag_v3@42@@Z 0000000180026d40 f i task.obj
 0001:00025d70       ?state@task@tbb@@QEBA?AW4state_type@12@XZ 0000000180026d70 f i task.obj
 0001:00025db0       ?store@?$machine_load_store_relaxed@W4kind_type@task_group_context@tbb@@$03@internal@tbb@@SAXAECW4kind_type@task_group_context@3@W4453@@Z 0000000180026db0 f i task.obj
 0001:00025dd0       ?tls_scheduler_of@governor@internal@tbb@@SAPEAVgeneric_scheduler@23@_K@Z 0000000180026dd0 f i task.obj
 0001:00025ec0       ??1task_group_context@tbb@@QEAA@XZ 0000000180026ec0 f   task_group_context.obj
 0001:00026290       ?reset@task_group_context@tbb@@QEAAXXZ 0000000180027290 f   task_group_context.obj
 0001:00026300       ?cancel_group_execution@task_group_context@tbb@@QEAA_NXZ 0000000180027300 f   task_group_context.obj
 0001:000263c0       ?is_group_execution_cancelled@task_group_context@tbb@@QEBA_NXZ 00000001800273c0 f   task_group_context.obj
 0001:00026410       ?register_pending_exception@task_group_context@tbb@@QEAAXXZ 0000000180027410 f   task_group_context.obj
 0001:00026480       ?capture_fp_settings@task_group_context@tbb@@QEAAXXZ 0000000180027480 f   task_group_context.obj
 0001:00026520       ?set_priority@task_group_context@tbb@@QEAAXW4priority_t@2@@Z 0000000180027520 f   task_group_context.obj
 0001:00026650       ?priority@task_group_context@tbb@@QEBA?AW4priority_t@2@XZ 0000000180027650 f   task_group_context.obj
 0001:00026680       ?init@task_group_context@tbb@@IEAAXXZ 0000000180027680 f   task_group_context.obj
 0001:00026840       ?bind_to@task_group_context@tbb@@QEAAXPEAVgeneric_scheduler@internal@2@@Z 0000000180027840 f   task_group_context.obj
 0001:00026a90       ?register_with@task_group_context@tbb@@QEAAXPEAVgeneric_scheduler@internal@2@@Z 0000000180027a90 f   task_group_context.obj
 0001:00026c50       ?copy_fp_settings@task_group_context@tbb@@QEAAXAEBV12@@Z 0000000180027c50 f   task_group_context.obj
 0001:00026d60       ??1captured_exception@tbb@@UEAA@XZ 0000000180027d60 f   task_group_context.obj
 0001:00026db0       ?move@captured_exception@tbb@@UEAAPEAV12@XZ 0000000180027db0 f   task_group_context.obj
 0001:00026e60       ?destroy@captured_exception@tbb@@UEAAXXZ 0000000180027e60 f   task_group_context.obj
 0001:00026ee0       ?name@captured_exception@tbb@@UEBAPEBDXZ 0000000180027ee0 f   task_group_context.obj
 0001:00026f00       ?what@captured_exception@tbb@@UEBAPEBDXZ 0000000180027f00 f   task_group_context.obj
 0001:00026f20       ?set@captured_exception@tbb@@QEAAXPEBD0@Z 0000000180027f20 f   task_group_context.obj
 0001:00026f80       ?clear@captured_exception@tbb@@QEAAXXZ 0000000180027f80 f   task_group_context.obj
 0001:00026fd0       ?allocate@captured_exception@tbb@@SAPEAV12@PEBD0@Z 0000000180027fd0 f   task_group_context.obj
 0001:00027050       ?allocate@tbb_exception_ptr@internal@tbb@@SAPEAV123@XZ 0000000180028050 f   task_group_context.obj
 0001:000270c0       ?allocate@tbb_exception_ptr@internal@tbb@@SAPEAV123@AEBVtbb_exception@3@@Z 00000001800280c0 f   task_group_context.obj
 0001:00027130       ?allocate@tbb_exception_ptr@internal@tbb@@SAPEAV123@AEAVcaptured_exception@3@@Z 0000000180028130 f   task_group_context.obj
 0001:00027180       ?destroy@tbb_exception_ptr@internal@tbb@@QEAAXXZ 0000000180028180 f   task_group_context.obj
 0001:000271c0       ??$AllocateExceptionContainer@Vcaptured_exception@tbb@@@internal@tbb@@YAPEAVtbb_exception_ptr@01@AEBVcaptured_exception@1@@Z 00000001800281c0 f i task_group_context.obj
 0001:00027230       ??$AllocateExceptionContainer@Vexception_ptr@std@@@internal@tbb@@YAPEAVtbb_exception_ptr@01@AEBVexception_ptr@std@@@Z 0000000180028230 f i task_group_context.obj
 0001:000272a0       ??$__TBB_load_with_acquire@PEAUcontext_list_node_t@internal@tbb@@@internal@tbb@@YAPEAUcontext_list_node_t@01@AEDSEAU201@@Z 00000001800282a0 f i task_group_context.obj
 0001:000272d0       ??$__TBB_store_with_release@PEAUcontext_list_node_t@internal@tbb@@PEAU123@@internal@tbb@@YAXAECREAUcontext_list_node_t@01@PEAU201@@Z 00000001800282d0 f i task_group_context.obj
 0001:00027310       ??$addressof@Vcaptured_exception@tbb@@@std@@YAPEAVcaptured_exception@tbb@@AEAV12@@Z 0000000180028310 f i task_group_context.obj
 0001:00027320       ??$as_atomic@W4kind_type@task_group_context@tbb@@@internal@tbb@@YAAEAU?$atomic@W4kind_type@task_group_context@tbb@@@1@AEAW4kind_type@task_group_context@1@@Z 0000000180028320 f i task_group_context.obj
 0001:00027330       ??$as_atomic@_K@internal@tbb@@YAAEAU?$atomic@_K@1@AEA_K@Z 0000000180028330 f i task_group_context.obj
 0001:00027340       ??$fetch_and_decrement@$0A@@?$atomic_impl_with_arithmetic@_K_KD@internal@tbb@@QEAA_KXZ 0000000180028340 f i task_group_context.obj
 0001:00027380       ??$fetch_and_increment@$0A@@?$atomic_impl_with_arithmetic@_K_KD@internal@tbb@@QEAA_KXZ 0000000180028380 f i task_group_context.obj
 0001:000273c0       ??$fetch_and_store@$0A@@?$atomic_impl@W4kind_type@task_group_context@tbb@@@internal@tbb@@QEAA?AW4kind_type@task_group_context@2@W4342@@Z 00000001800283c0 f i task_group_context.obj
 0001:00027410       ??$make_exception_ptr@Vcaptured_exception@tbb@@@std@@YA?AVexception_ptr@0@Vcaptured_exception@tbb@@@Z 0000000180028410 f i task_group_context.obj
 0001:00027480       ??$poison_value@_K@internal@tbb@@YAXAEA_K@Z 0000000180028480 f i task_group_context.obj
 0001:000274c0       ??$propagate_task_group_state@_J@generic_scheduler@internal@tbb@@QEAAXPEQtask_group_context@2@_JAEAV32@_J@Z 00000001800284c0 f i task_group_context.obj
 0001:00027610       ??$propagate_task_group_state@_J@market@internal@tbb@@QEAA_NPEQtask_group_context@2@_JAEAV32@_J@Z 0000000180028610 f i task_group_context.obj
 0001:00027810       ??$propagate_task_group_state@_J@task_group_context@tbb@@QEAAXPEQ01@_JAEAV01@_J@Z 0000000180028810 f i task_group_context.obj
 0001:00027920       ??$propagate_task_group_state@_K@generic_scheduler@internal@tbb@@QEAAXPEQtask_group_context@2@_KAEAV32@_K@Z 0000000180028920 f i task_group_context.obj
 0001:00027a70       ??$propagate_task_group_state@_K@market@internal@tbb@@QEAA_NPEQtask_group_context@2@_KAEAV32@_K@Z 0000000180028a70 f i task_group_context.obj
 0001:00027c70       ??$propagate_task_group_state@_K@task_group_context@tbb@@QEAAXPEQ01@_KAEAV01@_K@Z 0000000180028c70 f i task_group_context.obj
 0001:00027d80       ??$punned_cast@PEAVcpu_ctl_env@internal@tbb@@$$CBUcpu_ctl_env_space@23@@internal@tbb@@YAPEAVcpu_ctl_env@01@PEBUcpu_ctl_env_space@01@@Z 0000000180028d80 f i task_group_context.obj
 0001:00027dc0       ??$punned_cast@PEAVcpu_ctl_env@internal@tbb@@Ucpu_ctl_env_space@23@@internal@tbb@@YAPEAVcpu_ctl_env@01@PEAUcpu_ctl_env_space@01@@Z 0000000180028dc0 f i task_group_context.obj
 0001:00027e00       ??$punned_cast@PEAVscoped_lock@spin_mutex@tbb@@$$CBV?$aligned_space@Vscoped_lock@spin_mutex@tbb@@$00@3@@internal@tbb@@YAPEAVscoped_lock@spin_mutex@1@PEBV?$aligned_space@Vscoped_lock@spin_mutex@tbb@@$00@1@@Z 0000000180028e00 f i task_group_context.obj
 0001:00027e40       ??$punned_cast@PEA_K$$CB_K@internal@tbb@@YAPEA_KPEB_K@Z 0000000180028e40 f i task_group_context.obj
 0001:00027e80       ??$spin_wait_until_eq@U?$atomic@_K@tbb@@I@internal@tbb@@YAXAEDU?$atomic@_K@1@I@Z 0000000180028e80 f i task_group_context.obj
 0001:00027ee0       ??$suppress_unused_warning@$$BY01H@internal@tbb@@YAXAEAY01$$CBH@Z 0000000180028ee0 f i task_group_context.obj
 0001:00027ef0       ??$to_bits@W4kind_type@task_group_context@tbb@@@?$atomic_impl@W4kind_type@task_group_context@tbb@@@internal@tbb@@SAHW4kind_type@task_group_context@2@@Z 0000000180028ef0 f i task_group_context.obj
 0001:00027f30       ??$to_bits@_K@?$atomic_impl@_K@internal@tbb@@SA_J_K@Z 0000000180028f30 f i task_group_context.obj
 0001:00027f70       ??$to_bits_ref@$$CB_K@?$atomic_impl@_K@internal@tbb@@SAAEA_JAEB_K@Z 0000000180028f70 f i task_group_context.obj
 0001:00027fb0       ??$to_bits_ref@$$CDI@?$atomic_impl@I@internal@tbb@@SAAEAHAEDI@Z 0000000180028fb0 f i task_group_context.obj
 0001:00027ff0       ??$to_bits_ref@$$CD_K@?$atomic_impl@_K@internal@tbb@@SAAEA_JAED_K@Z 0000000180028ff0 f i task_group_context.obj
 0001:00028030       ??$to_bits_ref@_K@?$atomic_impl@_K@internal@tbb@@SAAEA_JAEA_K@Z 0000000180029030 f i task_group_context.obj
 0001:00028070       ??$to_value@I@?$atomic_impl@I@internal@tbb@@SAIH@Z 0000000180029070 f i task_group_context.obj
 0001:000280c0       ??$to_value@W4kind_type@task_group_context@tbb@@@?$atomic_impl@W4kind_type@task_group_context@tbb@@@internal@tbb@@SA?AW4kind_type@task_group_context@2@H@Z 00000001800290c0 f i task_group_context.obj
 0001:00028110       ??$to_value@_K@?$atomic_impl@_K@internal@tbb@@SA_K_J@Z 0000000180029110 f i task_group_context.obj
 0001:00028170       ??0?$converter@W4kind_type@task_group_context@tbb@@@?$atomic_impl@W4kind_type@task_group_context@tbb@@@internal@tbb@@QEAA@W4kind_type@task_group_context@3@@Z 0000000180029170 f i task_group_context.obj
 0001:00028190       ??0?$converter@W4kind_type@task_group_context@tbb@@@?$atomic_impl@W4kind_type@task_group_context@tbb@@@internal@tbb@@QEAA@XZ 0000000180029190 f i task_group_context.obj
 0001:000281a0       ??0?$iterator_impl@Viterator@?$intrusive_list_base@V?$intrusive_list@Vgeneric_scheduler@internal@tbb@@@internal@tbb@@Vgeneric_scheduler@23@@internal@tbb@@@?$intrusive_list_base@V?$intrusive_list@Vgeneric_scheduler@internal@tbb@@@internal@tbb@@Vgeneric_scheduler@23@@internal@tbb@@IEAA@PEAUintrusive_list_node@23@@Z 00000001800291a0 f i task_group_context.obj
 0001:000281c0       ??0captured_exception@tbb@@QEAA@AEBV01@@Z 00000001800291c0 f i task_group_context.obj
 0001:00028240       ??0captured_exception@tbb@@QEAA@PEBD0@Z 0000000180029240 f i task_group_context.obj
 0001:000282b0       ??0captured_exception@tbb@@QEAA@XZ 00000001800292b0 f i task_group_context.obj
 0001:00028300       ??0exception_ptr@std@@QEAA@AEBV01@@Z 0000000180029300 f i task_group_context.obj
 0001:00028350       ??0exception_ptr@std@@QEAA@XZ 0000000180029350 f i task_group_context.obj
 0001:00028390       ??0iterator@?$intrusive_list_base@V?$intrusive_list@Vgeneric_scheduler@internal@tbb@@@internal@tbb@@Vgeneric_scheduler@23@@internal@tbb@@QEAA@PEAUintrusive_list_node@23@@Z 0000000180029390 f i task_group_context.obj
 0001:000283d0       ??0tbb_exception@tbb@@QEAA@AEBV01@@Z 00000001800293d0 f i task_group_context.obj
 0001:00028420       ??0tbb_exception@tbb@@QEAA@XZ 0000000180029420 f i task_group_context.obj
 0001:00028470       ??0tbb_exception_ptr@internal@tbb@@QEAA@AEBVcaptured_exception@2@@Z 0000000180029470 f i task_group_context.obj
 0001:000284d0       ??0tbb_exception_ptr@internal@tbb@@QEAA@AEBVexception_ptr@std@@@Z 00000001800294d0 f i task_group_context.obj
 0001:00028510       ??1exception_ptr@std@@QEAA@XZ 0000000180029510 f i task_group_context.obj
 0001:00028550       ??1tbb_exception@tbb@@UEAA@XZ 0000000180029550 f i task_group_context.obj
 0001:00028580       ??1tbb_exception_ptr@internal@tbb@@QEAA@XZ 0000000180029580 f i task_group_context.obj
 0001:000285c0       ??3tbb_exception@tbb@@SAXPEAX@Z 00000001800295c0 f i task_group_context.obj
 0001:00028600       ??9?$iterator_impl@Viterator@?$intrusive_list_base@V?$intrusive_list@Vgeneric_scheduler@internal@tbb@@@internal@tbb@@Vgeneric_scheduler@23@@internal@tbb@@@?$intrusive_list_base@V?$intrusive_list@Vgeneric_scheduler@internal@tbb@@@internal@tbb@@Vgeneric_scheduler@23@@internal@tbb@@QEBA_NAEBViterator@123@@Z 0000000180029600 f i task_group_context.obj
 0001:00028650       ??Citerator@?$intrusive_list_base@V?$intrusive_list@Vgeneric_scheduler@internal@tbb@@@internal@tbb@@Vgeneric_scheduler@23@@internal@tbb@@QEBAPEAVgeneric_scheduler@23@XZ 0000000180029650 f i task_group_context.obj
 0001:00028680       ??E?$iterator_impl@Viterator@?$intrusive_list_base@V?$intrusive_list@Vgeneric_scheduler@internal@tbb@@@internal@tbb@@Vgeneric_scheduler@23@@internal@tbb@@@?$intrusive_list_base@V?$intrusive_list@Vgeneric_scheduler@internal@tbb@@@internal@tbb@@Vgeneric_scheduler@23@@internal@tbb@@QEAA?AViterator@123@H@Z 0000000180029680 f i task_group_context.obj
 0001:00028700       ??E?$iterator_impl@Viterator@?$intrusive_list_base@V?$intrusive_list@Vgeneric_scheduler@internal@tbb@@@internal@tbb@@Vgeneric_scheduler@23@@internal@tbb@@@?$intrusive_list_base@V?$intrusive_list@Vgeneric_scheduler@internal@tbb@@@internal@tbb@@Vgeneric_scheduler@23@@internal@tbb@@QEAAAEAViterator@123@XZ 0000000180029700 f i task_group_context.obj
 0001:00028750       ??_Ecaptured_exception@tbb@@UEAAPEAXI@Z 0000000180029750 f i task_group_context.obj
 0001:00028750       ??_Gcaptured_exception@tbb@@UEAAPEAXI@Z 0000000180029750 f i task_group_context.obj
 0001:000287c0       ??_Gtbb_exception@tbb@@UEAAPEAXI@Z 00000001800297c0 f i task_group_context.obj
 0001:000287c0       ??_Etbb_exception@tbb@@UEAAPEAXI@Z 00000001800297c0 f i task_group_context.obj
 0001:00028830       ?_Copy_exception@exception_ptr@std@@SA?AV12@PEAXPEBX@Z 0000000180029830 f i task_group_context.obj
 0001:00028900       ?_Current_exception@exception_ptr@std@@SA?AV12@XZ 0000000180029900 f i task_group_context.obj
 0001:00028980       ?__TBB_store_with_release@internal@tbb@@YAXAEC_K_K@Z 0000000180029980 f i task_group_context.obj
 0001:000289c0       ?begin@?$aligned_space@Vscoped_lock@spin_mutex@tbb@@$00@tbb@@QEBAPEAVscoped_lock@spin_mutex@2@XZ 00000001800299c0 f i task_group_context.obj
 0001:000289f0       ?begin@?$intrusive_list_base@V?$intrusive_list@Vgeneric_scheduler@internal@tbb@@@internal@tbb@@Vgeneric_scheduler@23@@internal@tbb@@QEAA?AViterator@123@XZ 00000001800299f0 f i task_group_context.obj
 0001:00028a40       ?current_exception@std@@YA?AVexception_ptr@1@XZ 0000000180029a40 f i task_group_context.obj
 0001:00028a80       ?duplicate_string@tbb@@YAPEADPEBD@Z 0000000180029a80 f i task_group_context.obj
 0001:00028af0       ?end@?$intrusive_list_base@V?$intrusive_list@Vgeneric_scheduler@internal@tbb@@@internal@tbb@@Vgeneric_scheduler@23@@internal@tbb@@QEAA?AViterator@123@XZ 0000000180029af0 f i task_group_context.obj
 0001:00028b30       ?fetch_and_store@?$atomic_impl@W4kind_type@task_group_context@tbb@@@internal@tbb@@QEAA?AW4kind_type@task_group_context@3@W4453@@Z 0000000180029b30 f i task_group_context.obj
 0001:00028b70       ?fetch_and_store@?$atomic_traits@$03$0A@@internal@tbb@@SAHPECXH@Z 0000000180029b70 f i task_group_context.obj
 0001:00028bb0       ?get_env@cpu_ctl_env@internal@tbb@@QEAAXXZ 0000000180029bb0 f i task_group_context.obj
 0001:00028bf0       ?is_alive@internal@tbb@@YA_N_K@Z 0000000180029bf0 f i task_group_context.obj
 0001:00028c40       ?item@?$intrusive_list@Vgeneric_scheduler@internal@tbb@@@internal@tbb@@CAAEAVgeneric_scheduler@23@PEAUintrusive_list_node@23@@Z 0000000180029c40 f i task_group_context.obj
 0001:00028c90       ?item@?$intrusive_list_base@V?$intrusive_list@Vgeneric_scheduler@internal@tbb@@@internal@tbb@@Vgeneric_scheduler@23@@internal@tbb@@CAAEAVgeneric_scheduler@23@PEAUintrusive_list_node@23@@Z 0000000180029c90 f i task_group_context.obj
 0001:00028cc0       ?item@?$iterator_impl@Viterator@?$intrusive_list_base@V?$intrusive_list@Vgeneric_scheduler@internal@tbb@@@internal@tbb@@Vgeneric_scheduler@23@@internal@tbb@@@?$intrusive_list_base@V?$intrusive_list@Vgeneric_scheduler@internal@tbb@@@internal@tbb@@Vgeneric_scheduler@23@@internal@tbb@@IEBAAEAVgeneric_scheduler@34@XZ 0000000180029cc0 f i task_group_context.obj
 0001:00028d00       ?load_with_acquire@?$machine_load_store@PEAUcontext_list_node_t@internal@tbb@@$07@internal@tbb@@SAPEAUcontext_list_node_t@23@AEDSEAU423@@Z 0000000180029d00 f i task_group_context.obj
 0001:00028d40       ?local_scheduler_if_initialized@governor@internal@tbb@@SAPEAVgeneric_scheduler@23@XZ 0000000180029d40 f i task_group_context.obj
 0001:00028d70       ?lock@spin_mutex@tbb@@QEAAXXZ 0000000180029d70 f i task_group_context.obj
 0001:00028df0       ?name@type_info@@QEBAPEBDXZ 0000000180029df0 f i task_group_context.obj
 0001:00028e30       ?normalize_priority@internal@tbb@@YA_JW4priority_t@2@@Z 0000000180029e30 f i task_group_context.obj
 0001:00028e50       ?self@?$iterator_impl@Viterator@?$intrusive_list_base@V?$intrusive_list@Vgeneric_scheduler@internal@tbb@@@internal@tbb@@Vgeneric_scheduler@23@@internal@tbb@@@?$intrusive_list_base@V?$intrusive_list@Vgeneric_scheduler@internal@tbb@@@internal@tbb@@Vgeneric_scheduler@23@@internal@tbb@@AEAAAEAViterator@234@XZ 0000000180029e50 f i task_group_context.obj
 0001:00028e60       ?store_with_release@?$machine_load_store@PEAUcontext_list_node_t@internal@tbb@@$07@internal@tbb@@SAXAECREAUcontext_list_node_t@23@PEAU423@@Z 0000000180029e60 f i task_group_context.obj
 0001:00028e80       ?throw_self@captured_exception@tbb@@UEAAXXZ 0000000180029e80 f i task_group_context.obj
 0001:00028ed0       ?unlock@spin_mutex@tbb@@QEAAXXZ 0000000180029ed0 f i task_group_context.obj
 0001:00028f50       ?internal_terminate@task_scheduler_init@tbb@@AEAA_N_N@Z 0000000180029f50 f   governor.obj
 0001:00029060       ?internal_blocking_terminate@task_scheduler_init@tbb@@AEAA_N_N@Z 000000018002a060 f   governor.obj
 0001:000290c0       ?initialize@task_scheduler_init@tbb@@QEAAXH@Z 000000018002a0c0 f   governor.obj
 0001:00029100       ?initialize@task_scheduler_init@tbb@@QEAAXH_K@Z 000000018002a100 f   governor.obj
 0001:000292f0       ?terminate@task_scheduler_init@tbb@@QEAAXXZ 000000018002a2f0 f   governor.obj
 0001:00029330       ?default_num_threads@task_scheduler_init@tbb@@SAHXZ 000000018002a330 f   governor.obj
 0001:000293e0       ?acquire_resources@governor@internal@tbb@@CAXXZ 000000018002a3e0 f   governor.obj
 0001:00029440       ?release_resources@governor@internal@tbb@@CAXXZ 000000018002a440 f   governor.obj
 0001:000294d0       ?create_rml_server@governor@internal@tbb@@CAPEAVtbb_server@rml@23@AEAVtbb_client@523@@Z 000000018002a4d0 f   governor.obj
 0001:000295d0       ?auto_terminate@governor@internal@tbb@@CAXPEAX@Z 000000018002a5d0 f   governor.obj
 0001:000296b0       ?one_time_init@governor@internal@tbb@@SAXXZ 000000018002a6b0 f   governor.obj
 0001:00029700       ?init_scheduler@governor@internal@tbb@@SAPEAVgeneric_scheduler@23@H_K_N@Z 000000018002a700 f   governor.obj
 0001:00029990       ?init_scheduler_weak@governor@internal@tbb@@SAPEAVgeneric_scheduler@23@XZ 000000018002a990 f   governor.obj
 0001:00029a10       ?terminate_scheduler@governor@internal@tbb@@SA_NPEAVgeneric_scheduler@23@_N@Z 000000018002aa10 f   governor.obj
 0001:00029af0       ?sign_on@governor@internal@tbb@@SAXPEAVgeneric_scheduler@23@@Z 000000018002aaf0 f   governor.obj
 0001:00029c30       ?sign_off@governor@internal@tbb@@SAXPEAVgeneric_scheduler@23@@Z 000000018002ac30 f   governor.obj
 0001:00029cd0       ?is_set@governor@internal@tbb@@SA_NPEAVgeneric_scheduler@23@@Z 000000018002acd0 f   governor.obj
 0001:00029d40       ?assume_scheduler@governor@internal@tbb@@SAXPEAVgeneric_scheduler@23@@Z 000000018002ad40 f   governor.obj
 0001:00029d90       ?tls_value_of@governor@internal@tbb@@SA_KPEAVgeneric_scheduler@23@@Z 000000018002ad90 f   governor.obj
 0001:00029e30       ?print_version_info@governor@internal@tbb@@SAXXZ 000000018002ae30 f   governor.obj
 0001:00029ec0       ?initialize_rml_factory@governor@internal@tbb@@SAXXZ 000000018002aec0 f   governor.obj
 0001:00029f20       ?stack_op_handler@governor@internal@tbb@@SAHW4__cilk_tbb_stack_op@@PEAX@Z 000000018002af20 f   governor.obj
 0001:0002a160       ?initialize_cilk_interop@internal@tbb@@YA_NXZ 000000018002b160 f   governor.obj
 0001:0002a1a0       ??$__TBB_load_with_acquire@_N@internal@tbb@@YA_NAED_N@Z 000000018002b1a0 f i governor.obj
 0001:0002a1d0       ??$atomic_do_once@P6A_NXZ@internal@tbb@@YAXAEBQ6A_NXZAEAU?$atomic@W4do_once_state@internal@tbb@@@1@@Z 000000018002b1d0 f i governor.obj
 0001:0002a260       ??$suppress_unused_warning@PEAVgeneric_scheduler@internal@tbb@@@internal@tbb@@YAXAEBQEAVgeneric_scheduler@01@@Z 000000018002b260 f i governor.obj
 0001:0002a270       ?create@?$basic_tls@_K@internal@tbb@@QEAAHXZ 000000018002b270 f i governor.obj
 0001:0002a2c0       ?destroy@?$basic_tls@_K@internal@tbb@@QEAAHXZ 000000018002b2c0 f i governor.obj
 0001:0002a300       ?destroy_process_mask@internal@tbb@@YAXXZ 000000018002b300 f i governor.obj
 0001:0002a310       ?initialization_done@__TBB_InitOnce@internal@tbb@@SA_NXZ 000000018002b310 f i governor.obj
 0001:0002a340       ?load_with_acquire@?$machine_load_store@_N$00@internal@tbb@@SA_NAED_N@Z 000000018002b340 f i governor.obj
 0001:0002a380       ?run_initializer@internal@tbb@@YAXP6A_NXZAEAU?$atomic@W4do_once_state@internal@tbb@@@2@@Z 000000018002b380 f i governor.obj
 0001:0002a3e0       ?set@?$basic_tls@_K@internal@tbb@@QEAAX_K@Z 000000018002b3e0 f i governor.obj
 0001:0002a4c0       ??0market@internal@tbb@@AEAA@II_K@Z 000000018002b4c0 f   market.obj
 0001:0002a660       ?global_market@market@internal@tbb@@CAAEAV123@_NI_K@Z 000000018002b660 f   market.obj
 0001:0002aa50       ?destroy@market@internal@tbb@@AEAAXXZ 000000018002ba50 f   market.obj
 0001:0002aad0       ?arena_in_need@market@internal@tbb@@AEAAPEAVarena@23@PEAV423@@Z 000000018002bad0 f   market.obj
 0001:0002aca0       ?update_allotment@market@internal@tbb@@AEAAX_J@Z 000000018002bca0 f   market.obj
 0001:0002aef0       ?update_arena_top_priority@market@internal@tbb@@AEAAXAEAVarena@23@_J@Z 000000018002bef0 f   market.obj
 0001:0002b040       ?insert_arena_into_list@market@internal@tbb@@AEAAXAEAVarena@23@@Z 000000018002c040 f   market.obj
 0001:0002b0f0       ?remove_arena_from_list@market@internal@tbb@@AEAAXAEAVarena@23@@Z 000000018002c0f0 f   market.obj
 0001:0002b260       ?arena_in_need@market@internal@tbb@@AEAAPEAVarena@23@AEAV?$intrusive_list@Varena@internal@tbb@@@23@PEAV423@@Z 000000018002c260 f   market.obj
 0001:0002b400       ?update_allotment@market@internal@tbb@@CAHAEAV?$intrusive_list@Varena@internal@tbb@@@23@HH@Z 000000018002c400 f   market.obj
 0001:0002b610       ?is_arena_in_list@market@internal@tbb@@AEAA_NAEAV?$intrusive_list@Varena@internal@tbb@@@23@PEAVarena@23@@Z 000000018002c610 f   market.obj
 0001:0002b6c0       ?create_one_job@market@internal@tbb@@EEAAPEAVjob@rml@@XZ 000000018002c6c0 f   market.obj
 0001:0002b800       ?cleanup@market@internal@tbb@@EEAAXAEAVjob@rml@@@Z 000000018002c800 f   market.obj
 0001:0002b920       ?acknowledge_close_connection@market@internal@tbb@@EEAAXXZ 000000018002c920 f   market.obj
 0001:0002b960       ?process@market@internal@tbb@@EEAAXAEAVjob@rml@@@Z 000000018002c960 f   market.obj
 0001:0002ba60       ?create_arena@market@internal@tbb@@SAPEAVarena@23@HH_K@Z 000000018002ca60 f   market.obj
 0001:0002bb90       ?try_destroy_arena@market@internal@tbb@@QEAAXPEAVarena@23@_K@Z 000000018002cb90 f   market.obj
 0001:0002be10       ?detach_arena@market@internal@tbb@@QEAAXAEAVarena@23@@Z 000000018002ce10 f   market.obj
 0001:0002bef0       ?release@market@internal@tbb@@QEAA_N_N0@Z 000000018002cef0 f   market.obj
 0001:0002c1d0       ?mandatory_concurrency_enable_impl@market@internal@tbb@@QEAA_NPEAVarena@23@PEA_N@Z 000000018002d1d0 f   market.obj
 0001:0002c330       ?mandatory_concurrency_enable@market@internal@tbb@@QEAA_NPEAVarena@23@@Z 000000018002d330 f   market.obj
 0001:0002c400       ?mandatory_concurrency_disable@market@internal@tbb@@QEAAXPEAVarena@23@@Z 000000018002d400 f   market.obj
 0001:0002c710       ?adjust_demand@market@internal@tbb@@QEAAXAEAVarena@23@H@Z 000000018002d710 f   market.obj
 0001:0002cd20       ?set_active_num_workers@market@internal@tbb@@SAXI@Z 000000018002dd20 f   market.obj
 0001:0002d0a0       ?lower_arena_priority@market@internal@tbb@@QEAA_NAEAVarena@23@_J_K@Z 000000018002e0a0 f   market.obj
 0001:0002d2f0       ?update_arena_priority@market@internal@tbb@@QEAA_NAEAVarena@23@_J@Z 000000018002e2f0 f   market.obj
 0001:0002d8a0       ?does_client_join_workers@governor@internal@tbb@@SA_NAEBVtbb_client@rml@23@@Z 000000018002e8a0 f   market.obj
 0001:0002d960       ??$__TBB_load_with_acquire@I@internal@tbb@@YAIAEDI@Z 000000018002e960 f i market.obj
 0001:0002d990       ??$as_atomic@H@internal@tbb@@YAAEAU?$atomic@H@1@AEAH@Z 000000018002e990 f i market.obj
 0001:0002d9a0       ??$as_atomic@I@internal@tbb@@YAAEAU?$atomic@I@1@AEAI@Z 000000018002e9a0 f i market.obj
 0001:0002d9b0       ??$as_atomic@PEAVarena@internal@tbb@@@internal@tbb@@YAAEAU?$atomic@PEAVarena@internal@tbb@@@1@AEAPEAVarena@01@@Z 000000018002e9b0 f i market.obj
 0001:0002d9c0       ??$compare_and_swap@$0A@@?$atomic_impl@I@internal@tbb@@QEAAIII@Z 000000018002e9c0 f i market.obj
 0001:0002da20       ??$fetch_and_add@$01@?$atomic_impl_with_arithmetic@_K_KD@internal@tbb@@QEAA_K_K@Z 000000018002ea20 f i market.obj
 0001:0002da60       ??$fetch_and_increment@$01@?$atomic_impl_with_arithmetic@_K_KD@internal@tbb@@QEAA_KXZ 000000018002ea60 f i market.obj
 0001:0002daa0       ??$max@I@internal@tbb@@YAIAEBI0@Z 000000018002eaa0 f i market.obj
 0001:0002db00       ??$max@_J@internal@tbb@@YA_JAEB_J0@Z 000000018002eb00 f i market.obj
 0001:0002db60       ??$min@H@internal@tbb@@YAHAEBH0@Z 000000018002eb60 f i market.obj
 0001:0002dbc0       ??$to_bits@I@?$atomic_impl@I@internal@tbb@@SAHI@Z 000000018002ebc0 f i market.obj
 0001:0002dc00       ??$to_bits@PEAVarena@internal@tbb@@@?$atomic_impl@PEAVarena@internal@tbb@@@internal@tbb@@SA_JPEAVarena@12@@Z 000000018002ec00 f i market.obj
 0001:0002dc40       ??$to_bits_ref@$$CDH@?$atomic_impl@H@internal@tbb@@SAAEAHAEDH@Z 000000018002ec40 f i market.obj
 0001:0002dc80       ??$to_bits_ref@$$CD_J@?$atomic_impl@_J@internal@tbb@@SAAEA_JAED_J@Z 000000018002ec80 f i market.obj
 0001:0002dcc0       ??$to_bits_ref@PEAVarena@internal@tbb@@@?$atomic_impl@PEAVarena@internal@tbb@@@internal@tbb@@SAAEA_JAEAPEAVarena@12@@Z 000000018002ecc0 f i market.obj
 0001:0002dd00       ??$to_value@H@?$atomic_impl@H@internal@tbb@@SAHH@Z 000000018002ed00 f i market.obj
 0001:0002dd50       ??$to_value@_J@?$atomic_impl@_J@internal@tbb@@SA_J_J@Z 000000018002ed50 f i market.obj
 0001:0002ddb0       ??0?$converter@PEAVarena@internal@tbb@@@?$atomic_impl@PEAVarena@internal@tbb@@@internal@tbb@@QEAA@PEAVarena@23@@Z 000000018002edb0 f i market.obj
 0001:0002ddd0       ??0?$converter@_J@?$atomic_impl@_J@internal@tbb@@QEAA@XZ 000000018002edd0 f i market.obj
 0001:0002dde0       ??0?$intrusive_list@Varena@internal@tbb@@@internal@tbb@@QEAA@XZ 000000018002ede0 f i market.obj
 0001:0002de20       ??0?$intrusive_list@Vgeneric_scheduler@internal@tbb@@@internal@tbb@@QEAA@XZ 000000018002ee20 f i market.obj
 0001:0002de60       ??0?$intrusive_list_base@V?$intrusive_list@Varena@internal@tbb@@@internal@tbb@@Varena@23@@internal@tbb@@QEAA@XZ 000000018002ee60 f i market.obj
 0001:0002dec0       ??0?$intrusive_list_base@V?$intrusive_list@Vgeneric_scheduler@internal@tbb@@@internal@tbb@@Vgeneric_scheduler@23@@internal@tbb@@QEAA@XZ 000000018002eec0 f i market.obj
 0001:0002df20       ??0?$iterator_impl@Viterator@?$intrusive_list_base@V?$intrusive_list@Varena@internal@tbb@@@internal@tbb@@Varena@23@@internal@tbb@@@?$intrusive_list_base@V?$intrusive_list@Varena@internal@tbb@@@internal@tbb@@Varena@23@@internal@tbb@@IEAA@PEAUintrusive_list_node@23@@Z 000000018002ef20 f i market.obj
 0001:0002df40       ??0?$ptr_converter@PEAPEAVarena@internal@tbb@@@?$atomic_impl@PEAVarena@internal@tbb@@@internal@tbb@@QEAA@PEAPEAVarena@23@@Z 000000018002ef40 f i market.obj
 0001:0002df60       ??0?$ptr_converter@PED_J@?$atomic_impl@_J@internal@tbb@@QEAA@PED_J@Z 000000018002ef60 f i market.obj
 0001:0002df80       ??0client@rml@@QEAA@XZ     000000018002ef80 f i market.obj
 0001:0002dfd0       ??0intrusive_list_node@internal@tbb@@QEAA@XZ 000000018002efd0 f i market.obj
 0001:0002e000       ??0iterator@?$intrusive_list_base@V?$intrusive_list@Varena@internal@tbb@@@internal@tbb@@Varena@23@@internal@tbb@@QEAA@PEAUintrusive_list_node@23@@Z 000000018002f000 f i market.obj
 0001:0002e040       ??0priority_level_info@market@internal@tbb@@QEAA@XZ 000000018002f040 f i market.obj
 0001:0002e080       ??0scoped_lock@spin_rw_mutex_v3@tbb@@QEAA@AEAV12@_N@Z 000000018002f080 f i market.obj
 0001:0002e0e0       ??0spin_rw_mutex_v3@tbb@@QEAA@XZ 000000018002f0e0 f i market.obj
 0001:0002e130       ??0tbb_client@rml@internal@tbb@@QEAA@XZ 000000018002f130 f i market.obj
 0001:0002e180       ??1market@internal@tbb@@QEAA@XZ 000000018002f180 f i market.obj
 0001:0002e1c0       ??1scoped_lock@spin_rw_mutex_v3@tbb@@QEAA@XZ 000000018002f1c0 f i market.obj
 0001:0002e210       ??1spin_rw_mutex_v3@tbb@@QEAA@XZ 000000018002f210 f i market.obj
 0001:0002e270       ??4?$atomic@PEAVarena@internal@tbb@@@tbb@@QEAAPEAVarena@internal@1@PEAV231@@Z 000000018002f270 f i market.obj
 0001:0002e2b0       ??8?$iterator_impl@Viterator@?$intrusive_list_base@V?$intrusive_list@Varena@internal@tbb@@@internal@tbb@@Varena@23@@internal@tbb@@@?$intrusive_list_base@V?$intrusive_list@Varena@internal@tbb@@@internal@tbb@@Varena@23@@internal@tbb@@QEBA_NAEBViterator@123@@Z 000000018002f2b0 f i market.obj
 0001:0002e300       ??9?$iterator_impl@Viterator@?$intrusive_list_base@V?$intrusive_list@Varena@internal@tbb@@@internal@tbb@@Varena@23@@internal@tbb@@@?$intrusive_list_base@V?$intrusive_list@Varena@internal@tbb@@@internal@tbb@@Varena@23@@internal@tbb@@QEBA_NAEBViterator@123@@Z 000000018002f300 f i market.obj
 0001:0002e350       ??B?$atomic_impl@_J@internal@tbb@@QEDA_JXZ 000000018002f350 f i market.obj
 0001:0002e3a0       ??Citerator@?$intrusive_list_base@V?$intrusive_list@Varena@internal@tbb@@@internal@tbb@@Varena@23@@internal@tbb@@QEBAPEAVarena@23@XZ 000000018002f3a0 f i market.obj
 0001:0002e3d0       ??Diterator@?$intrusive_list_base@V?$intrusive_list@Varena@internal@tbb@@@internal@tbb@@Varena@23@@internal@tbb@@QEBAAEAVarena@23@XZ 000000018002f3d0 f i market.obj
 0001:0002e400       ??E?$iterator_impl@Viterator@?$intrusive_list_base@V?$intrusive_list@Varena@internal@tbb@@@internal@tbb@@Varena@23@@internal@tbb@@@?$intrusive_list_base@V?$intrusive_list@Varena@internal@tbb@@@internal@tbb@@Varena@23@@internal@tbb@@QEAAAEAViterator@123@XZ 000000018002f400 f i market.obj
 0001:0002e450       ??Y?$atomic_impl_with_arithmetic@IID@internal@tbb@@QEAAII@Z 000000018002f450 f i market.obj
 0001:0002e490       ??_H@YAXPEAX_K1P6APEAX0@Z@Z 000000018002f490 f i market.obj
 0001:0002e520       ?acquire@scoped_lock@spin_mutex@tbb@@QEAAXAEAV23@@Z 000000018002f520 f i market.obj
 0001:0002e560       ?advance_global_reload_epoch@market@internal@tbb@@AEAAXXZ 000000018002f560 f i market.obj
 0001:0002e5b0       ?assert_market_valid@market@internal@tbb@@AEBAXXZ 000000018002f5b0 f i market.obj
 0001:0002e650       ?assert_ok@?$intrusive_list_base@V?$intrusive_list@Varena@internal@tbb@@@internal@tbb@@Varena@23@@internal@tbb@@AEBAXXZ 000000018002f650 f i market.obj
 0001:0002e6d0       ?assert_priority_valid@internal@tbb@@YAX_J@Z 000000018002f6d0 f i market.obj
 0001:0002e730       ?begin@?$intrusive_list_base@V?$intrusive_list@Varena@internal@tbb@@@internal@tbb@@Varena@23@@internal@tbb@@QEAA?AViterator@123@XZ 000000018002f730 f i market.obj
 0001:0002e780       ?compare_and_swap@?$atomic_impl@I@internal@tbb@@QEAAIII@Z 000000018002f780 f i market.obj
 0001:0002e7c0       ?empty@?$intrusive_list_base@V?$intrusive_list@Varena@internal@tbb@@@internal@tbb@@Varena@23@@internal@tbb@@QEBA_NXZ 000000018002f7c0 f i market.obj
 0001:0002e810       ?empty@?$task_stream@$02@internal@tbb@@QEAA_NH@Z 000000018002f810 f i market.obj
 0001:0002e860       ?end@?$intrusive_list_base@V?$intrusive_list@Varena@internal@tbb@@@internal@tbb@@Varena@23@@internal@tbb@@QEAA?AViterator@123@XZ 000000018002f860 f i market.obj
 0001:0002e8a0       ?fetch_and_add@?$atomic_traits@$07$01@internal@tbb@@SA_JPECX_J@Z 000000018002f8a0 f i market.obj
 0001:0002e8e0       ?item@?$intrusive_list@Varena@internal@tbb@@@internal@tbb@@CAAEAVarena@23@PEAUintrusive_list_node@23@@Z 000000018002f8e0 f i market.obj
 0001:0002e8f0       ?item@?$intrusive_list_base@V?$intrusive_list@Varena@internal@tbb@@@internal@tbb@@Varena@23@@internal@tbb@@CAAEAVarena@23@PEAUintrusive_list_node@23@@Z 000000018002f8f0 f i market.obj
 0001:0002e920       ?item@?$iterator_impl@Viterator@?$intrusive_list_base@V?$intrusive_list@Varena@internal@tbb@@@internal@tbb@@Varena@23@@internal@tbb@@@?$intrusive_list_base@V?$intrusive_list@Varena@internal@tbb@@@internal@tbb@@Varena@23@@internal@tbb@@IEBAAEAVarena@34@XZ 000000018002f920 f i market.obj
 0001:0002e960       ?load_with_acquire@?$machine_load_store@I$03@internal@tbb@@SAIAEDI@Z 000000018002f960 f i market.obj
 0001:0002e9a0       ?lock@spin_rw_mutex_v3@tbb@@QEAAXXZ 000000018002f9a0 f i market.obj
 0001:0002e9d0       ?max_job_count@market@internal@tbb@@EEBAIXZ 000000018002f9d0 f i market.obj
 0001:0002e9e0       ?min_stack_size@market@internal@tbb@@EEBA_KXZ 000000018002f9e0 f i market.obj
 0001:0002ea10       ?must_have_concurrency@arena@internal@tbb@@QEBA_NXZ 000000018002fa10 f i market.obj
 0001:0002ea80       ?must_join_workers@market@internal@tbb@@QEBA_NXZ 000000018002fa80 f i market.obj
 0001:0002eaa0       ?node@?$intrusive_list@Varena@internal@tbb@@@internal@tbb@@CAAEAUintrusive_list_node@23@AEAVarena@23@@Z 000000018002faa0 f i market.obj
 0001:0002eab0       ?node@?$intrusive_list_base@V?$intrusive_list@Varena@internal@tbb@@@internal@tbb@@Varena@23@@internal@tbb@@CAAEAUintrusive_list_node@23@AEAVarena@23@@Z 000000018002fab0 f i market.obj
 0001:0002eae0       ?num_workers_active@arena@internal@tbb@@QEAAIXZ 000000018002fae0 f i market.obj
 0001:0002eb20       ?policy@market@internal@tbb@@EEBA?AW4policy_type@client@rml@@XZ 000000018002fb20 f i market.obj
 0001:0002eb30       ?push_front@?$intrusive_list_base@V?$intrusive_list@Varena@internal@tbb@@@internal@tbb@@Varena@23@@internal@tbb@@QEAAXAEAVarena@23@@Z 000000018002fb30 f i market.obj
 0001:0002ec40       ?recall_by_mandatory_request@arena@internal@tbb@@QEBA_NXZ 000000018002fc40 f i market.obj
 0001:0002eca0       ?release@scoped_lock@spin_mutex@tbb@@QEAAXXZ 000000018002fca0 f i market.obj
 0001:0002ecd0       ?remove@?$intrusive_list_base@V?$intrusive_list@Varena@internal@tbb@@@internal@tbb@@Varena@23@@internal@tbb@@QEAAXAEAVarena@23@@Z 000000018002fcd0 f i market.obj
 0001:0002ee80       ?reset_global_priority@market@internal@tbb@@AEAAXXZ 000000018002fe80 f i market.obj
 0001:0002eec0       ?self@?$iterator_impl@Viterator@?$intrusive_list_base@V?$intrusive_list@Varena@internal@tbb@@@internal@tbb@@Varena@23@@internal@tbb@@@?$intrusive_list_base@V?$intrusive_list@Varena@internal@tbb@@@internal@tbb@@Varena@23@@internal@tbb@@AEAAAEAViterator@234@XZ 000000018002fec0 f i market.obj
 0001:0002eed0       ?size@?$intrusive_list_base@V?$intrusive_list@Varena@internal@tbb@@@internal@tbb@@Varena@23@@internal@tbb@@QEBA_KXZ 000000018002fed0 f i market.obj
 0001:0002eef0       ?store_with_release@?$atomic_impl@PEAVarena@internal@tbb@@@internal@tbb@@IEAAPEAVarena@23@PEAV423@@Z 000000018002fef0 f i market.obj
 0001:0002ef50       ?unlock@spin_rw_mutex_v3@tbb@@QEAAXXZ 000000018002ff50 f i market.obj
 0001:0002efa0       ?update_global_top_priority@market@internal@tbb@@AEAAX_J@Z 000000018002ffa0 f i market.obj
 0001:0002f020       ?version@market@internal@tbb@@EEBAIXZ 0000000180030020 f i market.obj
 0001:0002f030       ?worker_stack_size@market@internal@tbb@@QEBA_KXZ 0000000180030030 f i market.obj
 0001:0002f220       ?attach_arena@generic_scheduler@internal@tbb@@QEAAXPEAVarena@23@_K_N@Z 0000000180030220 f   arena.obj
 0001:0002f3c0       ?nested_arena_entry@generic_scheduler@internal@tbb@@QEAAXPEAVarena@23@_K@Z 00000001800303c0 f   arena.obj
 0001:0002f560       ?nested_arena_exit@generic_scheduler@internal@tbb@@QEAAXXZ 0000000180030560 f   arena.obj
 0001:0002f6a0       ?wait_until_empty@generic_scheduler@internal@tbb@@QEAAXXZ 00000001800306a0 f   arena.obj
 0001:0002f770       ?internal_initialize@task_arena_base@internal@interface7@tbb@@IEAAXXZ 0000000180030770 f   arena.obj
 0001:0002f950       ?internal_terminate@task_arena_base@internal@interface7@tbb@@IEAAXXZ 0000000180030950 f   arena.obj
 0001:0002f9d0       ?internal_attach@task_arena_base@internal@interface7@tbb@@IEAAXXZ 00000001800309d0 f   arena.obj
 0001:0002fb70       ?internal_enqueue@task_arena_base@internal@interface7@tbb@@IEBAXAEAVtask@4@_J@Z 0000000180030b70 f   arena.obj
 0001:0002fcb0       ?internal_execute@task_arena_base@internal@interface7@tbb@@IEBAXAEAVdelegate_base@234@@Z 0000000180030cb0 f   arena.obj
 0001:00030320       ?internal_wait@task_arena_base@internal@interface7@tbb@@IEBAXXZ 0000000180031320 f   arena.obj
 0001:00030660       ?internal_current_slot@task_arena_base@internal@interface7@tbb@@KAHXZ 0000000180031660 f   arena.obj
 0001:000306b0       ?internal_max_concurrency@task_arena_base@internal@interface7@tbb@@KAHPEBVtask_arena@34@@Z 00000001800316b0 f   arena.obj
 0001:000307a0       ?isolate_within_arena@internal@interface7@tbb@@YAXAEAVdelegate_base@123@_J@Z 00000001800317a0 f   arena.obj
 0001:00030890       ?restore_priority_if_need@arena@internal@tbb@@AEAAXXZ 0000000180031890 f   arena.obj
 0001:00030960       ??0arena@internal@tbb@@QEAA@AEAVmarket@12@II@Z 0000000180031960 f   arena.obj
 0001:00030dc0       ?allocate_arena@arena@internal@tbb@@SAAEAV123@AEAVmarket@23@II@Z 0000000180031dc0 f   arena.obj
 0001:00030f10       ?free_arena@arena@internal@tbb@@QEAAXXZ 0000000180031f10 f   arena.obj
 0001:00031310       ?is_out_of_work@arena@internal@tbb@@QEAA_NXZ 0000000180032310 f   arena.obj
 0001:000319b0       ?enqueue_task@arena@internal@tbb@@QEAAXAEAVtask@3@_JAEAVFastRandom@23@@Z 00000001800329b0 f   arena.obj
 0001:00031c20       ?process@arena@internal@tbb@@QEAAXAEAVgeneric_scheduler@23@@Z 0000000180032c20 f   arena.obj
 0001:000321b0       ?orphan_offloaded_tasks@arena@internal@tbb@@QEAAXAEAVgeneric_scheduler@23@@Z 00000001800331b0 f   arena.obj
 0001:000322e0       ?workers_task_node_count@arena@internal@tbb@@QEAA_JXZ 00000001800332e0 f   arena.obj
 0001:00032380       ?has_enqueued_tasks@arena@internal@tbb@@QEAA_NXZ 0000000180033380 f   arena.obj
 0001:000323f0       ?occupy_free_slot_in_range@arena@internal@tbb@@QEAA_KAEAVgeneric_scheduler@23@_K1@Z 00000001800333f0 f   arena.obj
 0001:00032600       ??$?0$$V@?$_Compressed_pair@V?$tbb_allocator@PEAVtask@tbb@@@tbb@@V?$_Deque_val@U?$_Deque_simple_types@PEAVtask@tbb@@@std@@@std@@$00@std@@QEAA@U_Zero_then_variadic_args_t@1@@Z 0000000180033600 f i arena.obj
 0001:00032650       ??$?0PEAVtask@tbb@@@?$tbb_allocator@PEAPEAVtask@tbb@@@tbb@@QEAA@AEBV?$tbb_allocator@PEAVtask@tbb@@@1@@Z 0000000180033650 f i arena.obj
 0001:00032670       ??$?0PEAVtask@tbb@@@?$tbb_allocator@U_Container_proxy@std@@@tbb@@QEAA@AEBV?$tbb_allocator@PEAVtask@tbb@@@1@@Z 0000000180033670 f i arena.obj
 0001:00032690       ??$?0U?$integral_constant@_N$0A@@std@@@_Unused_parameter@std@@QEAA@$$QEAU?$integral_constant@_N$0A@@1@@Z 0000000180033690 f i arena.obj
 0001:000326b0       ??$_Construct1@PEAPEAVtask@tbb@@$$V@?$_Normal_allocator_traits@V?$tbb_allocator@PEAPEAVtask@tbb@@@tbb@@@std@@SAXU?$integral_constant@_N$0A@@1@AEAV?$tbb_allocator@PEAPEAVtask@tbb@@@tbb@@PEAPEAPEAVtask@4@@Z 00000001800336b0 f i arena.obj
 0001:000326f0       ??$_Construct1@PEAPEAVtask@tbb@@AEAPEAPEAV12@@?$_Normal_allocator_traits@V?$tbb_allocator@PEAPEAVtask@tbb@@@tbb@@@std@@SAXU?$integral_constant@_N$0A@@1@AEAV?$tbb_allocator@PEAPEAVtask@tbb@@@tbb@@PEAPEAPEAVtask@4@AEAPEAPEAV54@@Z 00000001800336f0 f i arena.obj
 0001:00032740       ??$_Construct1@PEAVtask@tbb@@AEBQEAV12@@?$_Normal_allocator_traits@V?$tbb_allocator@PEAVtask@tbb@@@tbb@@@std@@SAXU?$integral_constant@_N$0A@@1@AEAV?$tbb_allocator@PEAVtask@tbb@@@tbb@@PEAPEAVtask@4@AEBQEAV54@@Z 0000000180033740 f i arena.obj
 0001:00032790       ??$_Construct1@U_Container_proxy@std@@U12@@?$_Normal_allocator_traits@V?$tbb_allocator@U_Container_proxy@std@@@tbb@@@std@@SAXU?$integral_constant@_N$0A@@1@AEAV?$tbb_allocator@U_Container_proxy@std@@@tbb@@PEAU_Container_proxy@1@$$QEAU51@@Z 0000000180033790 f i arena.obj
 0001:000327e0       ??$_Deallocate_plain@V?$tbb_allocator@U_Container_proxy@std@@@tbb@@$0A@@std@@YAXAEAV?$tbb_allocator@U_Container_proxy@std@@@tbb@@QEAU_Container_proxy@0@@Z 00000001800337e0 f i arena.obj
 0001:00032820       ??$_Destroy1@PEAPEAVtask@tbb@@@?$_Normal_allocator_traits@V?$tbb_allocator@PEAPEAVtask@tbb@@@tbb@@@std@@SAXAEAV?$tbb_allocator@PEAPEAVtask@tbb@@@tbb@@PEAPEAPEAVtask@3@U?$integral_constant@_N$0A@@1@@Z 0000000180033820 f i arena.obj
 0001:00032860       ??$_Destroy1@PEAVtask@tbb@@@?$_Normal_allocator_traits@V?$tbb_allocator@PEAVtask@tbb@@@tbb@@@std@@SAXAEAV?$tbb_allocator@PEAVtask@tbb@@@tbb@@PEAPEAVtask@3@U?$integral_constant@_N$0A@@1@@Z 0000000180033860 f i arena.obj
 0001:000328a0       ??$_Destroy1@U_Container_proxy@std@@@?$_Normal_allocator_traits@V?$tbb_allocator@U_Container_proxy@std@@@tbb@@@std@@SAXAEAV?$tbb_allocator@U_Container_proxy@std@@@tbb@@PEAU_Container_proxy@1@U?$integral_constant@_N$0A@@1@@Z 00000001800338a0 f i arena.obj
 0001:000328e0       ??$_Destroy_range1@V?$tbb_allocator@PEAPEAVtask@tbb@@@tbb@@@std@@YAXPEAPEAPEAVtask@tbb@@0AEAV?$tbb_allocator@PEAPEAVtask@tbb@@@2@U?$integral_constant@_N$0A@@0@@Z 00000001800338e0 f i arena.obj
 0001:00032950       ??$_Destroy_range@V?$tbb_allocator@PEAPEAVtask@tbb@@@tbb@@@std@@YAXPEAPEAPEAVtask@tbb@@0AEAV?$tbb_allocator@PEAPEAVtask@tbb@@@2@@Z 0000000180033950 f i arena.obj
 0001:000329b0       ??$_Emplace_back@$$V@?$_Uninitialized_backout_al@PEAPEAPEAVtask@tbb@@V?$tbb_allocator@PEAPEAVtask@tbb@@@2@@std@@QEAAXXZ 00000001800339b0 f i arena.obj
 0001:00032a10       ??$_Emplace_back@AEAPEAPEAVtask@tbb@@@?$_Uninitialized_backout_al@PEAPEAPEAVtask@tbb@@V?$tbb_allocator@PEAPEAVtask@tbb@@@2@@std@@QEAAXAEAPEAPEAVtask@tbb@@@Z 0000000180033a10 f i arena.obj
 0001:00032a90       ??$_Get_unwrapped@PEAPEAVtask@tbb@@@std@@YAPEAPEAPEAVtask@tbb@@QEAPEAPEAV12@@Z 0000000180033a90 f i arena.obj
 0001:00032aa0       ??$_Get_unwrapped_n@PEAPEAVtask@tbb@@_J$0A@@std@@YAPEAPEAPEAVtask@tbb@@QEAPEAPEAV12@_J@Z 0000000180033aa0 f i arena.obj
 0001:00032ac0       ??$_Idl_distance1@PEAPEAPEAVtask@tbb@@PEAPEAPEAV12@@std@@YA_JAEBQEAPEAPEAVtask@tbb@@0Urandom_access_iterator_tag@0@@Z 0000000180033ac0 f i arena.obj
 0001:00032af0       ??$_Idl_distance@PEAPEAPEAVtask@tbb@@PEAPEAPEAV12@@std@@YA_JAEBQEAPEAPEAVtask@tbb@@0@Z 0000000180033af0 f i arena.obj
 0001:00032b30       ??$_Ptr_copy_cat@PEAPEAVtask@tbb@@PEAPEAV12@@std@@YA?AU_Really_trivial_ptr_iterator_tag@0@AEBQEAPEAPEAVtask@tbb@@0@Z 0000000180033b30 f i arena.obj
 0001:00032b50       ??$_Seek_wrapped@PEAPEAVtask@tbb@@@std@@YAXAEAPEAPEAPEAVtask@tbb@@QEAPEAPEAV12@@Z 0000000180033b50 f i arena.obj
 0001:00032b70       ??$_Unfancy@PEAPEAVtask@tbb@@@std@@YAPEAPEAPEAVtask@tbb@@PEAPEAPEAV12@@Z 0000000180033b70 f i arena.obj
 0001:00032b80       ??$_Unfancy@PEAVtask@tbb@@@std@@YAPEAPEAVtask@tbb@@PEAPEAV12@@Z 0000000180033b80 f i arena.obj
 0001:00032b90       ??$_Unfancy@U_Container_proxy@std@@@std@@YAPEAU_Container_proxy@0@PEAU10@@Z 0000000180033b90 f i arena.obj
 0001:00032ba0       ??$_Uninitialized_copy@PEAPEAPEAVtask@tbb@@PEAPEAPEAV12@V?$tbb_allocator@PEAPEAVtask@tbb@@@2@@std@@YAPEAPEAPEAVtask@tbb@@QEAPEAPEAV12@0PEAPEAPEAV12@AEAV?$tbb_allocator@PEAPEAVtask@tbb@@@2@@Z 0000000180033ba0 f i arena.obj
 0001:00032cc0       ??$_Uninitialized_copy_al_unchecked@PEAPEAPEAVtask@tbb@@PEAPEAPEAV12@V?$tbb_allocator@PEAPEAVtask@tbb@@@2@@std@@YAPEAPEAPEAVtask@tbb@@PEAPEAPEAV12@QEAPEAPEAV12@1AEAV?$tbb_allocator@PEAPEAVtask@tbb@@@2@U_General_ptr_iterator_tag@0@U_Unused_parameter@0@@Z 0000000180033cc0 f i arena.obj
 0001:00032d80       ??$_Uninitialized_value_construct_n1@PEAPEAPEAVtask@tbb@@_KV?$tbb_allocator@PEAPEAVtask@tbb@@@2@@std@@YAPEAPEAPEAVtask@tbb@@QEAPEAPEAV12@_KAEAV?$tbb_allocator@PEAPEAVtask@tbb@@@2@U?$integral_constant@_N$0A@@0@@Z 0000000180033d80 f i arena.obj
 0001:00032e30       ??$_Uninitialized_value_construct_n@PEAPEAPEAVtask@tbb@@_KV?$tbb_allocator@PEAPEAVtask@tbb@@@2@@std@@YAPEAPEAPEAVtask@tbb@@PEAPEAPEAV12@_KAEAV?$tbb_allocator@PEAPEAVtask@tbb@@@2@@Z 0000000180033e30 f i arena.obj
 0001:00032e90       ??$__TBB_load_with_acquire@PEAVgeneric_scheduler@internal@tbb@@@internal@tbb@@YAPEAVgeneric_scheduler@01@AEDSEAV201@@Z 0000000180033e90 f i arena.obj
 0001:00032ec0       ??$__TBB_load_with_acquire@PEAVtask@tbb@@@internal@tbb@@YAPEAVtask@1@AEDSEAV21@@Z 0000000180033ec0 f i arena.obj
 0001:00032ef0       ??$__TBB_store_with_release@PEAVgeneric_scheduler@internal@tbb@@PEAV123@@internal@tbb@@YAXAECREAVgeneric_scheduler@01@PEAV201@@Z 0000000180033ef0 f i arena.obj
 0001:00032f30       ??$__TBB_store_with_release@_JH@internal@tbb@@YAXAEC_JH@Z 0000000180033f30 f i arena.obj
 0001:00032f70       ??$addressof@PEAPEAVtask@tbb@@@std@@YAPEAPEAPEAVtask@tbb@@AEAPEAPEAV12@@Z 0000000180033f70 f i arena.obj
 0001:00032f80       ??$addressof@V?$_Deque_val@U?$_Deque_simple_types@PEAVtask@tbb@@@std@@@std@@@std@@YAPEAV?$_Deque_val@U?$_Deque_simple_types@PEAVtask@tbb@@@std@@@0@AEAV10@@Z 0000000180033f80 f i arena.obj
 0001:00032f90       ??$advertise_new_work@$01@arena@internal@tbb@@QEAAXXZ 0000000180033f90 f i arena.obj
 0001:000332a0       ??$as_atomic@PEAVgeneric_scheduler@internal@tbb@@@internal@tbb@@YAAEAU?$atomic@PEAVgeneric_scheduler@internal@tbb@@@1@AEAPEAVgeneric_scheduler@01@@Z 00000001800342a0 f i arena.obj
 0001:000332b0       ??$as_atomic@PEAVtask@tbb@@@internal@tbb@@YAAEAU?$atomic@PEAVtask@tbb@@@1@AEAPEAVtask@1@@Z 00000001800342b0 f i arena.obj
 0001:000332c0       ??$as_atomic@PEAVtask_group_context@tbb@@@internal@tbb@@YAAEAU?$atomic@PEAVtask_group_context@tbb@@@1@AEAPEAVtask_group_context@1@@Z 00000001800342c0 f i arena.obj
 0001:000332d0       ??$atomic_update@IIU?$less@I@std@@@internal@tbb@@YAIAEAU?$atomic@I@1@IU?$less@I@std@@@Z 00000001800342d0 f i arena.obj
 0001:00033370       ??$atomic_update@_J_JU?$less@_J@std@@@internal@tbb@@YA_JAEAU?$atomic@_J@1@_JU?$less@_J@std@@@Z 0000000180034370 f i arena.obj
 0001:00033410       ??$compare_and_swap@$0A@@?$atomic_impl@PEAVarena@internal@tbb@@@internal@tbb@@QEAAPEAVarena@12@PEAV312@0@Z 0000000180034410 f i arena.obj
 0001:00033480       ??$compare_and_swap@$0A@@?$atomic_impl@PEAVgeneric_scheduler@internal@tbb@@@internal@tbb@@QEAAPEAVgeneric_scheduler@12@PEAV312@0@Z 0000000180034480 f i arena.obj
 0001:000334f0       ??$compare_and_swap@$0A@@?$atomic_impl@PEAVtask@tbb@@@internal@tbb@@QEAAPEAVtask@2@PEAV32@0@Z 00000001800344f0 f i arena.obj
 0001:00033560       ??$compare_and_swap@$0A@@?$atomic_impl@_J@internal@tbb@@QEAA_J_J0@Z 0000000180034560 f i arena.obj
 0001:000335d0       ??$construct@PEAPEAVtask@tbb@@$$V@?$_Normal_allocator_traits@V?$tbb_allocator@PEAPEAVtask@tbb@@@tbb@@@std@@SAXAEAV?$tbb_allocator@PEAPEAVtask@tbb@@@tbb@@PEAPEAPEAVtask@3@@Z 00000001800345d0 f i arena.obj
 0001:00033610       ??$construct@PEAPEAVtask@tbb@@$$V@?$tbb_allocator@PEAPEAVtask@tbb@@@tbb@@QEAAXPEAPEAPEAVtask@1@@Z 0000000180034610 f i arena.obj
 0001:00033690       ??$construct@PEAPEAVtask@tbb@@AEAPEAPEAV12@@?$_Normal_allocator_traits@V?$tbb_allocator@PEAPEAVtask@tbb@@@tbb@@@std@@SAXAEAV?$tbb_allocator@PEAPEAVtask@tbb@@@tbb@@PEAPEAPEAVtask@3@AEAPEAPEAV43@@Z 0000000180034690 f i arena.obj
 0001:000336e0       ??$construct@PEAPEAVtask@tbb@@AEAPEAPEAV12@@?$tbb_allocator@PEAPEAVtask@tbb@@@tbb@@QEAAXPEAPEAPEAVtask@1@AEAPEAPEAV21@@Z 00000001800346e0 f i arena.obj
 0001:00033740       ??$construct@PEAVtask@tbb@@AEBQEAV12@@?$_Normal_allocator_traits@V?$tbb_allocator@PEAVtask@tbb@@@tbb@@@std@@SAXAEAV?$tbb_allocator@PEAVtask@tbb@@@tbb@@PEAPEAVtask@3@AEBQEAV43@@Z 0000000180034740 f i arena.obj
 0001:00033790       ??$construct@PEAVtask@tbb@@AEBQEAV12@@?$tbb_allocator@PEAVtask@tbb@@@tbb@@QEAAXPEAPEAVtask@1@AEBQEAV21@@Z 0000000180034790 f i arena.obj
 0001:000337f0       ??$construct@U_Container_proxy@std@@U12@@?$_Normal_allocator_traits@V?$tbb_allocator@U_Container_proxy@std@@@tbb@@@std@@SAXAEAV?$tbb_allocator@U_Container_proxy@std@@@tbb@@PEAU_Container_proxy@1@$$QEAU41@@Z 00000001800347f0 f i arena.obj
 0001:00033840       ??$construct@U_Container_proxy@std@@U12@@?$tbb_allocator@U_Container_proxy@std@@@tbb@@QEAAXPEAU_Container_proxy@std@@$$QEAU23@@Z 0000000180034840 f i arena.obj
 0001:000338a0       ??$destroy@PEAPEAVtask@tbb@@@?$_Normal_allocator_traits@V?$tbb_allocator@PEAPEAVtask@tbb@@@tbb@@@std@@SAXAEAV?$tbb_allocator@PEAPEAVtask@tbb@@@tbb@@PEAPEAPEAVtask@3@@Z 00000001800348a0 f i arena.obj
 0001:000338e0       ??$destroy@PEAVtask@tbb@@@?$_Normal_allocator_traits@V?$tbb_allocator@PEAVtask@tbb@@@tbb@@@std@@SAXAEAV?$tbb_allocator@PEAVtask@tbb@@@tbb@@PEAPEAVtask@3@@Z 00000001800348e0 f i arena.obj
 0001:00033920       ??$destroy@U_Container_proxy@std@@@?$_Normal_allocator_traits@V?$tbb_allocator@U_Container_proxy@std@@@tbb@@@std@@SAXAEAV?$tbb_allocator@U_Container_proxy@std@@@tbb@@PEAU_Container_proxy@1@@Z 0000000180034920 f i arena.obj
 0001:00033960       ??$fetch_and_add@$0A@@?$atomic_impl_with_arithmetic@_J_JD@internal@tbb@@QEAA_J_J@Z 0000000180034960 f i arena.obj
 0001:000339a0       ??$forward@AEAPEAPEAVtask@tbb@@@std@@YAAEAPEAPEAVtask@tbb@@AEAPEAPEAV12@@Z 00000001800349a0 f i arena.obj
 0001:000339b0       ??$forward@AEBQEAVtask@tbb@@@std@@YAAEBQEAVtask@tbb@@AEBQEAV12@@Z 00000001800349b0 f i arena.obj
 0001:000339c0       ??$forward@U_Container_proxy@std@@@std@@YA$$QEAU_Container_proxy@0@AEAU10@@Z 00000001800349c0 f i arena.obj
 0001:000339d0       ??$forward@Vspawn_functor@graph@interface10@flow@tbb@@@std@@YA$$QEAVspawn_functor@graph@interface10@flow@tbb@@AEAV12345@@Z 00000001800349d0 f i arena.obj
 0001:000339e0       ??$free_task@$02@generic_scheduler@internal@tbb@@QEAAXAEAVtask@2@@Z 00000001800349e0 f i arena.obj
 0001:00033ba0       ??$move@AEAVspawn_functor@graph@interface10@flow@tbb@@@std@@YA$$QEAVspawn_functor@graph@interface10@flow@tbb@@AEAV12345@@Z 0000000180034ba0 f i arena.obj
 0001:00033bb0       ??$notify@Vdelegated_task@internal@interface7@tbb@@@concurrent_monitor@internal@tbb@@QEAAXAEBVdelegated_task@1interface7@2@@Z 0000000180034bb0 f i arena.obj
 0001:00033bf0       ??$notify_relaxed@Vdelegated_task@internal@interface7@tbb@@@concurrent_monitor@internal@tbb@@QEAAXAEBVdelegated_task@1interface7@2@@Z 0000000180034bf0 f i arena.obj
 0001:00033e30       ??$occupy_free_slot@$00@arena@internal@tbb@@QEAA_KAEAVgeneric_scheduler@12@@Z 0000000180034e30 f i arena.obj
 0001:00033f40       ??$occupy_free_slot@$0A@@arena@internal@tbb@@QEAA_KAEAVgeneric_scheduler@12@@Z 0000000180034f40 f i arena.obj
 0001:00034050       ??$on_thread_leaving@$00@arena@internal@tbb@@QEAAXXZ 0000000180035050 f i arena.obj
 0001:00034180       ??$on_thread_leaving@$0BAAA@@arena@internal@tbb@@QEAAXXZ 0000000180035180 f i arena.obj
 0001:00034280       ??$poison_value@PEAVobserver_proxy@internal@tbb@@@internal@tbb@@YAXAEAPEAVobserver_proxy@01@@Z 0000000180035280 f i arena.obj
 0001:000342c0       ??$punned_cast@PEAPEAVobserver_proxy@internal@tbb@@$$CB_K@internal@tbb@@YAPEAPEAVobserver_proxy@01@PEB_K@Z 00000001800352c0 f i arena.obj
 0001:00034300       ??$spin_wait_while_eq@PEAVtask_group_context@tbb@@PEAV12@@internal@tbb@@YAXAEDSEAVtask_group_context@1@PEAV21@@Z 0000000180035300 f i arena.obj
 0001:00034360       ??$suppress_unused_warning@$$BY0GI@D@internal@tbb@@YAXAEAY0GI@$$CBD@Z 0000000180035360 f i arena.obj
 0001:00034370       ??$suppress_unused_warning@PEBVtask_group_context@tbb@@@internal@tbb@@YAXAEBQEBVtask_group_context@1@@Z 0000000180035370 f i arena.obj
 0001:00034380       ??$to_bits@PEAVgeneric_scheduler@internal@tbb@@@?$atomic_impl@PEAVgeneric_scheduler@internal@tbb@@@internal@tbb@@SA_JPEAVgeneric_scheduler@12@@Z 0000000180035380 f i arena.obj
 0001:000343c0       ??$to_bits@PEAVtask@tbb@@@?$atomic_impl@PEAVtask@tbb@@@internal@tbb@@SA_JPEAVtask@2@@Z 00000001800353c0 f i arena.obj
 0001:00034400       ??$to_bits@PEAVtask_group_context@tbb@@@?$atomic_impl@PEAVtask_group_context@tbb@@@internal@tbb@@SA_JPEAVtask_group_context@2@@Z 0000000180035400 f i arena.obj
 0001:00034440       ??$to_bits@_J@?$atomic_impl@_J@internal@tbb@@SA_J_J@Z 0000000180035440 f i arena.obj
 0001:00034480       ??$to_bits@_N@?$atomic_impl@_N@internal@tbb@@SAC_N@Z 0000000180035480 f i arena.obj
 0001:000344c0       ??$to_bits_ref@$$CD_N@?$atomic_impl@_N@internal@tbb@@SAAEACAED_N@Z 00000001800354c0 f i arena.obj
 0001:00034500       ??$to_bits_ref@I@?$atomic_impl@I@internal@tbb@@SAAEAHAEAI@Z 0000000180035500 f i arena.obj
 0001:00034540       ??$to_bits_ref@PEAVtask_group_context@tbb@@@?$atomic_impl@PEAVtask_group_context@tbb@@@internal@tbb@@SAAEA_JAEAPEAVtask_group_context@2@@Z 0000000180035540 f i arena.obj
 0001:00034580       ??$to_bits_ref@_N@?$atomic_impl@_N@internal@tbb@@SAAEACAEA_N@Z 0000000180035580 f i arena.obj
 0001:000345c0       ??$to_value@PEAVarena@internal@tbb@@@?$atomic_impl@PEAVarena@internal@tbb@@@internal@tbb@@SAPEAVarena@12@_J@Z 00000001800355c0 f i arena.obj
 0001:00034620       ??$to_value@PEAVgeneric_scheduler@internal@tbb@@@?$atomic_impl@PEAVgeneric_scheduler@internal@tbb@@@internal@tbb@@SAPEAVgeneric_scheduler@12@_J@Z 0000000180035620 f i arena.obj
 0001:00034680       ??$to_value@PEAVtask@tbb@@@?$atomic_impl@PEAVtask@tbb@@@internal@tbb@@SAPEAVtask@2@_J@Z 0000000180035680 f i arena.obj
 0001:000346e0       ??$to_value@_N@?$atomic_impl@_N@internal@tbb@@SA_NC@Z 00000001800356e0 f i arena.obj
 0001:00034730       ??0?$_Deque_alloc@U?$_Deque_base_types@PEAVtask@tbb@@V?$tbb_allocator@PEAVtask@tbb@@@2@@std@@@std@@QEAA@XZ 0000000180035730 f i arena.obj
 0001:00034780       ??0?$_Deque_const_iterator@V?$_Deque_val@U?$_Deque_simple_types@PEAVtask@tbb@@@std@@@std@@@std@@QEAA@_KPEBU_Container_base12@1@@Z 0000000180035780 f i arena.obj
 0001:000347f0       ??0?$_Deque_iterator@V?$_Deque_val@U?$_Deque_simple_types@PEAVtask@tbb@@@std@@@std@@@std@@QEAA@_KPEBU_Container_base12@1@@Z 00000001800357f0 f i arena.obj
 0001:00034840       ??0?$_Deque_val@U?$_Deque_simple_types@PEAVtask@tbb@@@std@@@std@@QEAA@XZ 0000000180035840 f i arena.obj
 0001:000348b0       ??0?$_Uninitialized_backout_al@PEAPEAPEAVtask@tbb@@V?$tbb_allocator@PEAPEAVtask@tbb@@@2@@std@@QEAA@PEAPEAPEAVtask@tbb@@AEAV?$tbb_allocator@PEAPEAVtask@tbb@@@3@@Z 00000001800358b0 f i arena.obj
 0001:000348f0       ??0?$context_guard_helper@$0A@@internal@tbb@@QEAA@XZ 00000001800358f0 f i arena.obj
 0001:00034950       ??0?$converter@PEAVarena@internal@tbb@@@?$atomic_impl@PEAVarena@internal@tbb@@@internal@tbb@@QEAA@XZ 0000000180035950 f i arena.obj
 0001:00034960       ??0?$converter@PEAVgeneric_scheduler@internal@tbb@@@?$atomic_impl@PEAVgeneric_scheduler@internal@tbb@@@internal@tbb@@QEAA@PEAVgeneric_scheduler@23@@Z 0000000180035960 f i arena.obj
 0001:00034980       ??0?$converter@PEAVgeneric_scheduler@internal@tbb@@@?$atomic_impl@PEAVgeneric_scheduler@internal@tbb@@@internal@tbb@@QEAA@XZ 0000000180035980 f i arena.obj
 0001:00034990       ??0?$converter@PEAVtask@tbb@@@?$atomic_impl@PEAVtask@tbb@@@internal@tbb@@QEAA@PEAVtask@3@@Z 0000000180035990 f i arena.obj
 0001:000349b0       ??0?$converter@PEAVtask@tbb@@@?$atomic_impl@PEAVtask@tbb@@@internal@tbb@@QEAA@XZ 00000001800359b0 f i arena.obj
 0001:000349c0       ??0?$converter@PEAVtask_group_context@tbb@@@?$atomic_impl@PEAVtask_group_context@tbb@@@internal@tbb@@QEAA@PEAVtask_group_context@3@@Z 00000001800359c0 f i arena.obj
 0001:000349e0       ??0?$converter@_J@?$atomic_impl@_J@internal@tbb@@QEAA@_J@Z 00000001800359e0 f i arena.obj
 0001:00034a00       ??0?$deque@PEAVtask@tbb@@V?$tbb_allocator@PEAVtask@tbb@@@2@@std@@QEAA@XZ 0000000180035a00 f i arena.obj
 0001:00034a40       ??0?$function_task@Vspawn_functor@graph@interface10@flow@tbb@@@internal@tbb@@QEAA@$$QEAVspawn_functor@graph@interface10@flow@2@@Z 0000000180035a40 f i arena.obj
 0001:00034aa0       ??0?$padded@U?$queue_and_mutex@PEAVtask@tbb@@Vspin_mutex@2@@internal@tbb@@$0IA@@internal@tbb@@QEAA@XZ 0000000180035aa0 f i arena.obj
 0001:00034ae0       ??0?$padded@Uarena_base@internal@tbb@@$0IA@@internal@tbb@@QEAA@XZ 0000000180035ae0 f i arena.obj
 0001:00034b20       ??0?$padded@Uintrusive_list_node@internal@tbb@@$0IA@@internal@tbb@@QEAA@XZ 0000000180035b20 f i arena.obj
 0001:00034b60       ??0?$padded_base@U?$queue_and_mutex@PEAVtask@tbb@@Vspin_mutex@2@@internal@tbb@@$0IA@$0DA@@internal@tbb@@QEAA@XZ 0000000180035b60 f i arena.obj
 0001:00034ba0       ??0?$padded_base@Uarena_base@internal@tbb@@$0IA@$0A@@internal@tbb@@QEAA@XZ 0000000180035ba0 f i arena.obj
 0001:00034be0       ??0?$padded_base@Uintrusive_list_node@internal@tbb@@$0IA@$0BA@@internal@tbb@@QEAA@XZ 0000000180035be0 f i arena.obj
 0001:00034c20       ??0?$ptr_converter@PEAPEAVtask_group_context@tbb@@@?$atomic_impl@PEAVtask_group_context@tbb@@@internal@tbb@@QEAA@PEAPEAVtask_group_context@3@@Z 0000000180035c20 f i arena.obj
 0001:00034c40       ??0?$queue_and_mutex@PEAVtask@tbb@@Vspin_mutex@2@@internal@tbb@@QEAA@XZ 0000000180035c40 f i arena.obj
 0001:00034ca0       ??0?$task_stream@$02@internal@tbb@@QEAA@XZ 0000000180035ca0 f i arena.obj
 0001:00034d30       ??0?$tbb_allocator@PEAVtask@tbb@@@tbb@@QEAA@XZ 0000000180035d30 f i arena.obj
 0001:00034d40       ??0_Container_base12@std@@QEAA@XZ 0000000180035d40 f i arena.obj
 0001:00034d60       ??0_Container_proxy@std@@QEAA@XZ 0000000180035d60 f i arena.obj
 0001:00034d90       ??0_Iterator_base12@std@@QEAA@XZ 0000000180035d90 f i arena.obj
 0001:00034dc0       ??0arena_base@internal@tbb@@QEAA@XZ 0000000180035dc0 f i arena.obj
 0001:00034e40       ??0auto_empty_task@internal@tbb@@QEAA@PEAVgeneric_scheduler@12@PEAVtask_group_context@2@@Z 0000000180035e40 f i arena.obj
 0001:00034ec0       ??0delegated_task@internal@interface7@tbb@@QEAA@AEAVdelegate_base@123@AEAVconcurrent_monitor@13@PEAVtask@3@@Z 0000000180035ec0 f i arena.obj
 0001:00034f40       ??0empty_task@tbb@@QEAA@XZ 0000000180035f40 f i arena.obj
 0001:00034f90       ??0isolation_guard@internal@interface7@tbb@@QEAA@AEA_J@Z 0000000180035f90 f i arena.obj
 0001:00034ff0       ??0mail_inbox@internal@tbb@@QEAA@XZ 0000000180035ff0 f i arena.obj
 0001:00035010       ??0nested_arena_context@internal@tbb@@QEAA@PEAVgeneric_scheduler@12@PEAVarena@12@_K_N3@Z 0000000180036010 f i arena.obj
 0001:00035120       ??0observer_list@internal@tbb@@QEAA@XZ 0000000180036120 f i arena.obj
 0001:00035150       ??0outermost_context@?1??execute@delegated_task@internal@interface7@tbb@@EEAAPEAVtask@5@XZ@QEAA@PEAV2345@AEAVgeneric_scheduler@35@@Z 0000000180036150 f i arena.obj
 0001:00035290       ??0scheduler_state@internal@tbb@@QEAA@XZ 0000000180036290 f i arena.obj
 0001:000352d0       ??0wait_task@internal@interface7@tbb@@QEAA@AEAVbinary_semaphore@13@@Z 00000001800362d0 f i arena.obj
 0001:00035330       ??1?$_Deque_alloc@U?$_Deque_base_types@PEAVtask@tbb@@V?$tbb_allocator@PEAVtask@tbb@@@2@@std@@@std@@QEAA@XZ 0000000180036330 f i arena.obj
 0001:00035370       ??1?$_Deque_const_iterator@V?$_Deque_val@U?$_Deque_simple_types@PEAVtask@tbb@@@std@@@std@@@std@@QEAA@XZ 0000000180036370 f i arena.obj
 0001:000353a0       ??1?$_Deque_iterator@V?$_Deque_val@U?$_Deque_simple_types@PEAVtask@tbb@@@std@@@std@@@std@@QEAA@XZ 00000001800363a0 f i arena.obj
 0001:000353d0       ??1?$_Uninitialized_backout_al@PEAPEAPEAVtask@tbb@@V?$tbb_allocator@PEAPEAVtask@tbb@@@2@@std@@QEAA@XZ 00000001800363d0 f i arena.obj
 0001:00035420       ??1?$context_guard_helper@$0A@@internal@tbb@@QEAA@XZ 0000000180036420 f i arena.obj
 0001:000354a0       ??1?$deque@PEAVtask@tbb@@V?$tbb_allocator@PEAVtask@tbb@@@2@@std@@QEAA@XZ 00000001800364a0 f i arena.obj
 0001:000354f0       ??1?$function_task@Vspawn_functor@graph@interface10@flow@tbb@@@internal@tbb@@UEAA@XZ 00000001800364f0 f i arena.obj
 0001:00035520       ??1?$padded@U?$queue_and_mutex@PEAVtask@tbb@@Vspin_mutex@2@@internal@tbb@@$0IA@@internal@tbb@@QEAA@XZ 0000000180036520 f i arena.obj
 0001:00035550       ??1?$padded@Uarena_base@internal@tbb@@$0IA@@internal@tbb@@QEAA@XZ 0000000180036550 f i arena.obj
 0001:00035580       ??1?$padded_base@U?$queue_and_mutex@PEAVtask@tbb@@Vspin_mutex@2@@internal@tbb@@$0IA@$0DA@@internal@tbb@@QEAA@XZ 0000000180036580 f i arena.obj
 0001:000355b0       ??1?$padded_base@Uarena_base@internal@tbb@@$0IA@$0A@@internal@tbb@@QEAA@XZ 00000001800365b0 f i arena.obj
 0001:000355e0       ??1?$queue_and_mutex@PEAVtask@tbb@@Vspin_mutex@2@@internal@tbb@@QEAA@XZ 00000001800365e0 f i arena.obj
 0001:00035620       ??1?$task_stream@$02@internal@tbb@@QEAA@XZ 0000000180036620 f i arena.obj
 0001:000356c0       ??1_Iterator_base12@std@@QEAA@XZ 00000001800366c0 f i arena.obj
 0001:00035730       ??1arena@internal@tbb@@QEAA@XZ 0000000180036730 f i arena.obj
 0001:00035760       ??1arena_base@internal@tbb@@QEAA@XZ 0000000180036760 f i arena.obj
 0001:000357b0       ??1auto_empty_task@internal@tbb@@QEAA@XZ 00000001800367b0 f i arena.obj
 0001:00035800       ??1delegated_task@internal@interface7@tbb@@EEAA@XZ 0000000180036800 f i arena.obj
 0001:000358b0       ??1empty_task@tbb@@UEAA@XZ 00000001800368b0 f i arena.obj
 0001:000358e0       ??1isolation_guard@internal@interface7@tbb@@QEAA@XZ 00000001800368e0 f i arena.obj
 0001:00035900       ??1nested_arena_context@internal@tbb@@QEAA@XZ 0000000180036900 f i arena.obj
 0001:000359e0       ??1outermost_context@?1??execute@delegated_task@internal@interface7@tbb@@EEAAPEAVtask@5@XZ@QEAA@XZ 00000001800369e0 f i arena.obj
 0001:00035a60       ??1wait_task@internal@interface7@tbb@@UEAA@XZ 0000000180036a60 f i arena.obj
 0001:00035a90       ??4?$atomic@I@tbb@@QEAAII@Z 0000000180036a90 f i arena.obj
 0001:00035ad0       ??4?$atomic@PEAVtask_group_context@tbb@@@tbb@@QEAAPEAVtask_group_context@1@PEAV21@@Z 0000000180036ad0 f i arena.obj
 0001:00035b10       ??8?$_Deque_const_iterator@V?$_Deque_val@U?$_Deque_simple_types@PEAVtask@tbb@@@std@@@std@@@std@@QEBA_NAEBV01@@Z 0000000180036b10 f i arena.obj
 0001:00035b80       ??9?$_Deque_const_iterator@V?$_Deque_val@U?$_Deque_simple_types@PEAVtask@tbb@@@std@@@std@@@std@@QEBA_NAEBV01@@Z 0000000180036b80 f i arena.obj
 0001:00035be0       ??9cpu_ctl_env@internal@tbb@@QEBA_NAEBV012@@Z 0000000180036be0 f i arena.obj
 0001:00035c50       ??Bauto_empty_task@internal@tbb@@QEAAAEAVtask@2@XZ 0000000180036c50 f i arena.obj
 0001:00035c60       ??D?$_Deque_const_iterator@V?$_Deque_val@U?$_Deque_simple_types@PEAVtask@tbb@@@std@@@std@@@std@@QEBAAEBQEAVtask@tbb@@XZ 0000000180036c60 f i arena.obj
 0001:00035e10       ??D?$_Deque_iterator@V?$_Deque_val@U?$_Deque_simple_types@PEAVtask@tbb@@@std@@@std@@@std@@QEBAAEAPEAVtask@tbb@@XZ 0000000180036e10 f i arena.obj
 0001:00035e40       ??E?$_Deque_const_iterator@V?$_Deque_val@U?$_Deque_simple_types@PEAVtask@tbb@@@std@@@std@@@std@@QEAAAEAV01@XZ 0000000180036e40 f i arena.obj
 0001:00035fa0       ??E?$_Deque_iterator@V?$_Deque_val@U?$_Deque_simple_types@PEAVtask@tbb@@@std@@@std@@@std@@QEAAAEAV01@XZ 0000000180036fa0 f i arena.obj
 0001:00035fe0       ??Iauto_empty_task@internal@tbb@@QEAAPEAVtask@2@XZ 0000000180036fe0 f i arena.obj
 0001:00035ff0       ??R?$less@I@std@@QEBA_NAEBI0@Z 0000000180036ff0 f i arena.obj
 0001:00036050       ??R?$less@_J@std@@QEBA_NAEB_J0@Z 0000000180037050 f i arena.obj
 0001:000360b0       ??Rdelegated_task@internal@interface7@tbb@@QEBA_N_K@Z 00000001800370b0 f i arena.obj
 0001:00036100       ??Rspawn_functor@graph@interface10@flow@tbb@@QEBAXXZ 0000000180037100 f i arena.obj
 0001:00036140       ??Y?$atomic_impl_with_arithmetic@_J_JD@internal@tbb@@QEAA_J_J@Z 0000000180037140 f i arena.obj
 0001:00036180       ??Z?$atomic_impl_with_arithmetic@IID@internal@tbb@@QEAAII@Z 0000000180037180 f i arena.obj
 0001:000361c0       ??_E?$padded@U?$queue_and_mutex@PEAVtask@tbb@@Vspin_mutex@2@@internal@tbb@@$0IA@@internal@tbb@@QEAAPEAXI@Z 00000001800371c0 f i arena.obj
 0001:00036280       ??_E?$function_task@Vspawn_functor@graph@interface10@flow@tbb@@@internal@tbb@@UEAAPEAXI@Z 0000000180037280 f i arena.obj
 0001:00036280       ??_G?$function_task@Vspawn_functor@graph@interface10@flow@tbb@@@internal@tbb@@UEAAPEAXI@Z 0000000180037280 f i arena.obj
 0001:000362e0       ??_Garena@internal@tbb@@QEAAPEAXI@Z 00000001800372e0 f i arena.obj
 0001:00036340       ??_Gdelegated_task@internal@interface7@tbb@@EEAAPEAXI@Z 0000000180037340 f i arena.obj
 0001:00036340       ??_Edelegated_task@internal@interface7@tbb@@EEAAPEAXI@Z 0000000180037340 f i arena.obj
 0001:000363a0       ??_Eempty_task@tbb@@UEAAPEAXI@Z 00000001800373a0 f i arena.obj
 0001:000363a0       ??_Gempty_task@tbb@@UEAAPEAXI@Z 00000001800373a0 f i arena.obj
 0001:00036400       ??_Gtask_group_context@tbb@@QEAAPEAXI@Z 0000000180037400 f i arena.obj
 0001:00036460       ??_Gwait_task@internal@interface7@tbb@@UEAAPEAXI@Z 0000000180037460 f i arena.obj
 0001:00036460       ??_Ewait_task@internal@interface7@tbb@@UEAAPEAXI@Z 0000000180037460 f i arena.obj
 0001:000364c0       ?_Adopt@_Iterator_base12@std@@QEAAXPEBU_Container_base12@2@@Z 00000001800374c0 f i arena.obj
 0001:000365b0       ?_Alloc_proxy@?$_Deque_alloc@U?$_Deque_base_types@PEAVtask@tbb@@V?$tbb_allocator@PEAVtask@tbb@@@2@@std@@@std@@QEAAXXZ 00000001800375b0 f i arena.obj
 0001:00036690       ?_Clrcont@_Iterator_base12@std@@QEAAXXZ 0000000180037690 f i arena.obj
 0001:000366b0       ?_Compat@?$_Deque_const_iterator@V?$_Deque_val@U?$_Deque_simple_types@PEAVtask@tbb@@@std@@@std@@@std@@QEBAXAEBV12@@Z 00000001800376b0 f i arena.obj
 0001:00036780       ?_Free_proxy@?$_Deque_alloc@U?$_Deque_base_types@PEAVtask@tbb@@V?$tbb_allocator@PEAVtask@tbb@@@2@@std@@@std@@QEAAXXZ 0000000180037780 f i arena.obj
 0001:00036820       ?_Get_data@?$_Deque_alloc@U?$_Deque_base_types@PEAVtask@tbb@@V?$tbb_allocator@PEAVtask@tbb@@@2@@std@@@std@@QEAAAEAV?$_Deque_val@U?$_Deque_simple_types@PEAVtask@tbb@@@std@@@2@XZ 0000000180037820 f i arena.obj
 0001:00036860       ?_Get_data@?$_Deque_alloc@U?$_Deque_base_types@PEAVtask@tbb@@V?$tbb_allocator@PEAVtask@tbb@@@2@@std@@@std@@QEBAAEBV?$_Deque_val@U?$_Deque_simple_types@PEAVtask@tbb@@@std@@@2@XZ 0000000180037860 f i arena.obj
 0001:000368a0       ?_Get_first@?$_Compressed_pair@V?$tbb_allocator@PEAVtask@tbb@@@tbb@@V?$_Deque_val@U?$_Deque_simple_types@PEAVtask@tbb@@@std@@@std@@$00@std@@QEAAAEAV?$tbb_allocator@PEAVtask@tbb@@@tbb@@XZ 00000001800378a0 f i arena.obj
 0001:000368b0       ?_Get_first@?$_Compressed_pair@V?$tbb_allocator@PEAVtask@tbb@@@tbb@@V?$_Deque_val@U?$_Deque_simple_types@PEAVtask@tbb@@@std@@@std@@$00@std@@QEBAAEBV?$tbb_allocator@PEAVtask@tbb@@@tbb@@XZ 00000001800378b0 f i arena.obj
 0001:000368c0       ?_Get_second@?$_Compressed_pair@V?$tbb_allocator@PEAVtask@tbb@@@tbb@@V?$_Deque_val@U?$_Deque_simple_types@PEAVtask@tbb@@@std@@@std@@$00@std@@QEAAAEAV?$_Deque_val@U?$_Deque_simple_types@PEAVtask@tbb@@@std@@@2@XZ 00000001800378c0 f i arena.obj
 0001:000368d0       ?_Get_second@?$_Compressed_pair@V?$tbb_allocator@PEAVtask@tbb@@@tbb@@V?$_Deque_val@U?$_Deque_simple_types@PEAVtask@tbb@@@std@@@std@@$00@std@@QEBAAEBV?$_Deque_val@U?$_Deque_simple_types@PEAVtask@tbb@@@std@@@2@XZ 00000001800378d0 f i arena.obj
 0001:000368e0       ?_Getal@?$_Deque_alloc@U?$_Deque_base_types@PEAVtask@tbb@@V?$tbb_allocator@PEAVtask@tbb@@@2@@std@@@std@@QEAAAEAV?$tbb_allocator@PEAVtask@tbb@@@tbb@@XZ 00000001800378e0 f i arena.obj
 0001:00036920       ?_Getal@?$_Deque_alloc@U?$_Deque_base_types@PEAVtask@tbb@@V?$tbb_allocator@PEAVtask@tbb@@@2@@std@@@std@@QEBAAEBV?$tbb_allocator@PEAVtask@tbb@@@tbb@@XZ 0000000180037920 f i arena.obj
 0001:00036960       ?_Getblock@?$_Deque_alloc@U?$_Deque_base_types@PEAVtask@tbb@@V?$tbb_allocator@PEAVtask@tbb@@@2@@std@@@std@@QEBA_K_K@Z 0000000180037960 f i arena.obj
 0001:000369a0       ?_Getblock@?$_Deque_val@U?$_Deque_simple_types@PEAVtask@tbb@@@std@@@std@@QEBA_K_K@Z 00000001800379a0 f i arena.obj
 0001:000369d0       ?_Getcont@_Iterator_base12@std@@QEBAPEBU_Container_base12@2@XZ 00000001800379d0 f i arena.obj
 0001:00036a20       ?_Getpfirst@?$_Deque_alloc@U?$_Deque_base_types@PEAVtask@tbb@@V?$tbb_allocator@PEAVtask@tbb@@@2@@std@@@std@@QEBAPEAPEAU_Iterator_base12@2@XZ 0000000180037a20 f i arena.obj
 0001:00036a60       ?_Getpfirst@_Container_base12@std@@QEBAPEAPEAU_Iterator_base12@2@XZ 0000000180037a60 f i arena.obj
 0001:00036ab0       ?_Getpnext@_Iterator_base12@std@@QEAAPEAPEAU12@XZ 0000000180037ab0 f i arena.obj
 0001:00036ad0       ?_Growmap@?$deque@PEAVtask@tbb@@V?$tbb_allocator@PEAVtask@tbb@@@2@@std@@IEAAX_K@Z 0000000180037ad0 f i arena.obj
 0001:00036f20       ?_Map@?$_Deque_alloc@U?$_Deque_base_types@PEAVtask@tbb@@V?$tbb_allocator@PEAVtask@tbb@@@2@@std@@@std@@QEAAAEAPEAPEAPEAVtask@tbb@@XZ 0000000180037f20 f i arena.obj
 0001:00036f60       ?_Mapsize@?$_Deque_alloc@U?$_Deque_base_types@PEAVtask@tbb@@V?$tbb_allocator@PEAVtask@tbb@@@2@@std@@@std@@QEAAAEA_KXZ 0000000180037f60 f i arena.obj
 0001:00036fa0       ?_Max_size1@?$_Normal_allocator_traits@V?$tbb_allocator@PEAVtask@tbb@@@tbb@@@std@@SA_KAEBV?$tbb_allocator@PEAVtask@tbb@@@tbb@@U?$integral_constant@_N$00@2@@Z 0000000180037fa0 f i arena.obj
 0001:00036fe0       ?_Myoff@?$_Deque_alloc@U?$_Deque_base_types@PEAVtask@tbb@@V?$tbb_allocator@PEAVtask@tbb@@@2@@std@@@std@@QEAAAEA_KXZ 0000000180037fe0 f i arena.obj
 0001:00037020       ?_Myoff@?$_Deque_alloc@U?$_Deque_base_types@PEAVtask@tbb@@V?$tbb_allocator@PEAVtask@tbb@@@2@@std@@@std@@QEBAAEB_KXZ 0000000180038020 f i arena.obj
 0001:00037060       ?_Myproxy@?$_Deque_alloc@U?$_Deque_base_types@PEAVtask@tbb@@V?$tbb_allocator@PEAVtask@tbb@@@2@@std@@@std@@QEAAAEAPEAU_Container_proxy@2@XZ 0000000180038060 f i arena.obj
 0001:00037090       ?_Mysize@?$_Deque_alloc@U?$_Deque_base_types@PEAVtask@tbb@@V?$tbb_allocator@PEAVtask@tbb@@@2@@std@@@std@@QEAAAEA_KXZ 0000000180038090 f i arena.obj
 0001:000370d0       ?_Mysize@?$_Deque_alloc@U?$_Deque_base_types@PEAVtask@tbb@@V?$tbb_allocator@PEAVtask@tbb@@@2@@std@@@std@@QEBAAEB_KXZ 00000001800380d0 f i arena.obj
 0001:00037110       ?_Orphan_all@?$_Deque_alloc@U?$_Deque_base_types@PEAVtask@tbb@@V?$tbb_allocator@PEAVtask@tbb@@@2@@std@@@std@@QEAAXXZ 0000000180038110 f i arena.obj
 0001:00037150       ?_Orphan_all@_Container_base12@std@@QEAAXXZ 0000000180038150 f i arena.obj
 0001:00037210       ?_Orphan_me@_Iterator_base12@std@@QEAAXXZ 0000000180038210 f i arena.obj
 0001:00037320       ?_Orphan_off@?$deque@PEAVtask@tbb@@V?$tbb_allocator@PEAVtask@tbb@@@2@@std@@IEBAX_K@Z 0000000180038320 f i arena.obj
 0001:00037490       ?_Release@?$_Uninitialized_backout_al@PEAPEAPEAVtask@tbb@@V?$tbb_allocator@PEAPEAVtask@tbb@@@2@@std@@QEAAPEAPEAPEAVtask@tbb@@XZ 0000000180038490 f i arena.obj
 0001:000374c0       ?_RethrowException@exception_ptr@std@@QEBAXXZ 00000001800384c0 f i arena.obj
 0001:000374f0       ?_Setcont@?$_Deque_const_iterator@V?$_Deque_val@U?$_Deque_simple_types@PEAVtask@tbb@@@std@@@std@@@std@@QEAAXPEBV?$_Deque_val@U?$_Deque_simple_types@PEAVtask@tbb@@@std@@@2@@Z 00000001800384f0 f i arena.obj
 0001:00037530       ?_Tidy@?$deque@PEAVtask@tbb@@V?$tbb_allocator@PEAVtask@tbb@@@2@@std@@IEAAXXZ 0000000180038530 f i arena.obj
 0001:000376b0       ?_Xlen@?$deque@PEAVtask@tbb@@V?$tbb_allocator@PEAVtask@tbb@@@2@@std@@IEBAXXZ 00000001800386b0 f i arena.obj
 0001:000376e0       ?allocate@?$tbb_allocator@PEAPEAVtask@tbb@@@tbb@@QEAAPEAPEAPEAVtask@2@_KPEBX@Z 00000001800386e0 f i arena.obj
 0001:00037720       ?allocate@?$tbb_allocator@PEAVtask@tbb@@@tbb@@QEAAPEAPEAVtask@2@_KPEBX@Z 0000000180038720 f i arena.obj
 0001:00037760       ?allocate@?$tbb_allocator@U_Container_proxy@std@@@tbb@@QEAAPEAU_Container_proxy@std@@_KPEBX@Z 0000000180038760 f i arena.obj
 0001:000377a0       ?allocation_size@arena@internal@tbb@@SAHI@Z 00000001800387a0 f i arena.obj
 0001:000377c0       ?assert_context_valid@generic_scheduler@internal@tbb@@SAXPEBVtask_group_context@3@@Z 00000001800387c0 f i arena.obj
 0001:000379f0       ?attach@mail_inbox@internal@tbb@@QEAAXAEAVmail_outbox@23@@Z 00000001800389f0 f i arena.obj
 0001:00037a10       ?attach_mailbox@generic_scheduler@internal@tbb@@QEAAXG@Z 0000000180038a10 f i arena.obj
 0001:00037aa0       ?begin@?$deque@PEAVtask@tbb@@V?$tbb_allocator@PEAVtask@tbb@@@2@@std@@QEAA?AV?$_Deque_iterator@V?$_Deque_val@U?$_Deque_simple_types@PEAVtask@tbb@@@std@@@std@@@2@XZ 0000000180038aa0 f i arena.obj
 0001:00037b20       ?clear@?$deque@PEAVtask@tbb@@V?$tbb_allocator@PEAVtask@tbb@@@2@@std@@QEAAXXZ 0000000180038b20 f i arena.obj
 0001:00037b60       ?clear_one_bit@internal@tbb@@YAXAEA_KH@Z 0000000180038b60 f i arena.obj
 0001:00037c00       ?compare_and_swap@?$atomic_impl@PEAVarena@internal@tbb@@@internal@tbb@@QEAAPEAVarena@23@PEAV423@0@Z 0000000180038c00 f i arena.obj
 0001:00037c50       ?compare_and_swap@?$atomic_impl@PEAVgeneric_scheduler@internal@tbb@@@internal@tbb@@QEAAPEAVgeneric_scheduler@23@PEAV423@0@Z 0000000180038c50 f i arena.obj
 0001:00037ca0       ?compare_and_swap@?$atomic_impl@PEAVtask@tbb@@@internal@tbb@@QEAAPEAVtask@3@PEAV43@0@Z 0000000180038ca0 f i arena.obj
 0001:00037cf0       ?compare_and_swap@?$atomic_impl@_J@internal@tbb@@QEAA_J_J0@Z 0000000180038cf0 f i arena.obj
 0001:00037d40       ?construct@mail_outbox@internal@tbb@@QEAAXXZ 0000000180038d40 f i arena.obj
 0001:00037e30       ?deallocate@?$_Normal_allocator_traits@V?$tbb_allocator@U_Container_proxy@std@@@tbb@@@std@@SAXAEAV?$tbb_allocator@U_Container_proxy@std@@@tbb@@PEAU_Container_proxy@2@_K@Z 0000000180038e30 f i arena.obj
 0001:00037e80       ?deallocate@?$tbb_allocator@PEAPEAVtask@tbb@@@tbb@@QEAAXPEAPEAPEAVtask@2@_K@Z 0000000180038e80 f i arena.obj
 0001:00037ec0       ?deallocate@?$tbb_allocator@PEAVtask@tbb@@@tbb@@QEAAXPEAPEAVtask@2@_K@Z 0000000180038ec0 f i arena.obj
 0001:00037f00       ?deallocate@?$tbb_allocator@U_Container_proxy@std@@@tbb@@QEAAXPEAU_Container_proxy@std@@_K@Z 0000000180038f00 f i arena.obj
 0001:00037f40       ?destroy@?$tbb_allocator@PEAPEAVtask@tbb@@@tbb@@QEAAXPEAPEAPEAVtask@2@@Z 0000000180038f40 f i arena.obj
 0001:00037f50       ?destroy@?$tbb_allocator@PEAVtask@tbb@@@tbb@@QEAAXPEAPEAVtask@2@@Z 0000000180038f50 f i arena.obj
 0001:00037f60       ?destroy@?$tbb_allocator@U_Container_proxy@std@@@tbb@@QEAAXPEAU_Container_proxy@std@@@Z 0000000180038f60 f i arena.obj
 0001:00037f70       ?detach@mail_inbox@internal@tbb@@QEAAXXZ 0000000180038f70 f i arena.obj
 0001:00037fd0       ?drain@?$task_stream@$02@internal@tbb@@QEAA_JXZ 0000000180038fd0 f i arena.obj
 0001:000381f0       ?drain@mail_outbox@internal@tbb@@QEAA_JXZ 00000001800391f0 f i arena.obj
 0001:00038270       ?empty@?$deque@PEAVtask@tbb@@V?$tbb_allocator@PEAVtask@tbb@@@2@@std@@QEBA_NXZ 0000000180039270 f i arena.obj
 0001:000382c0       ?empty@observer_list@internal@tbb@@QEBA_NXZ 00000001800392c0 f i arena.obj
 0001:00038310       ?end@?$deque@PEAVtask@tbb@@V?$tbb_allocator@PEAVtask@tbb@@@2@@std@@QEAA?AV?$_Deque_iterator@V?$_Deque_val@U?$_Deque_simple_types@PEAVtask@tbb@@@std@@@std@@@2@XZ 0000000180039310 f i arena.obj
 0001:000383a0       ?execute@?$function_task@Vspawn_functor@graph@interface10@flow@tbb@@@internal@tbb@@EEAAPEAVtask@3@XZ 00000001800393a0 f i arena.obj
 0001:000383e0       ?execute@delegated_task@internal@interface7@tbb@@EEAAPEAVtask@4@XZ 00000001800393e0 f i arena.obj
 0001:000384d0       ?execute@empty_task@tbb@@EEAAPEAVtask@2@XZ 00000001800394d0 f i arena.obj
 0001:000384e0       ?execute@wait_task@internal@interface7@tbb@@EEAAPEAVtask@4@XZ 00000001800394e0 f i arena.obj
 0001:00038610       ?fetch_and_add@?$atomic_impl_with_arithmetic@_J_JD@internal@tbb@@QEAA_J_J@Z 0000000180039610 f i arena.obj
 0001:00038650       ?free_task_pool@arena_slot@internal@tbb@@QEAAXXZ 0000000180039650 f i arena.obj
 0001:000386e0       ?get@FastRandom@internal@tbb@@QEAAGAEAI@Z 00000001800396e0 f i arena.obj
 0001:00038770       ?get@FastRandom@internal@tbb@@QEAAGXZ 0000000180039770 f i arena.obj
 0001:000387b0       ?initialize@?$task_stream@$02@internal@tbb@@QEAAXI@Z 00000001800397b0 f i arena.obj
 0001:00038a00       ?inlineCreateEventEx@@YAPEAXPEAU_SECURITY_ATTRIBUTES@@PEB_WKK@Z 0000000180039a00 f i arena.obj
 0001:00038aa0       ?is_bit_set@internal@tbb@@YA_N_KH@Z 0000000180039aa0 f i arena.obj
 0001:00038b50       ?is_busy_or_empty@arena@internal@tbb@@SA_N_K@Z 0000000180039b50 f i arena.obj
 0001:00038b90       ?is_idle_state@mail_inbox@internal@tbb@@QEBA_N_N@Z 0000000180039b90 f i arena.obj
 0001:00038bf0       ?is_local_task_pool_quiescent@generic_scheduler@internal@tbb@@QEBA_NXZ 0000000180039bf0 f i arena.obj
 0001:00038c80       ?is_quiescent_local_task_pool_reset@generic_scheduler@internal@tbb@@QEBA_NXZ 0000000180039c80 f i arena.obj
 0001:00038d30       ?load_with_acquire@?$machine_load_store@PEAVgeneric_scheduler@internal@tbb@@$07@internal@tbb@@SAPEAVgeneric_scheduler@23@AEDSEAV423@@Z 0000000180039d30 f i arena.obj
 0001:00038d70       ?load_with_acquire@?$machine_load_store@PEAVtask@tbb@@$07@internal@tbb@@SAPEAVtask@3@AEDSEAV43@@Z 0000000180039d70 f i arena.obj
 0001:00038db0       ?mailbox@arena@internal@tbb@@QEAAAEAVmail_outbox@23@G@Z 0000000180039db0 f i arena.obj
 0001:00038e60       ?max_size@?$_Normal_allocator_traits@V?$tbb_allocator@PEAVtask@tbb@@@tbb@@@std@@SA_KAEBV?$tbb_allocator@PEAVtask@tbb@@@tbb@@@Z 0000000180039e60 f i arena.obj
 0001:00038ea0       ?max_size@?$deque@PEAVtask@tbb@@V?$tbb_allocator@PEAVtask@tbb@@@2@@std@@QEBA_KXZ 0000000180039ea0 f i arena.obj
 0001:00038ee0       ?max_size@?$tbb_allocator@PEAVtask@tbb@@@tbb@@QEBA_KXZ 0000000180039ee0 f i arena.obj
 0001:00038f40       ?may_have_tasks@arena@internal@tbb@@QEAA_NPEAVgeneric_scheduler@23@AEA_N1@Z 0000000180039f40 f i arena.obj
 0001:00039010       ?mimic_outermost_level@nested_arena_context@internal@tbb@@AEAAXPEAVarena@23@_N@Z 000000018003a010 f i arena.obj
 0001:000390e0       ?notify_entry_observers@observer_list@internal@tbb@@QEAAXAEAPEAVobserver_proxy@23@_N@Z 000000018003a0e0 f i arena.obj
 0001:00039140       ?notify_exit_observers@observer_list@internal@tbb@@QEAAXAEAPEAVobserver_proxy@23@_N@Z 000000018003a140 f i arena.obj
 0001:00039200       ?notify_one@concurrent_monitor@internal@tbb@@QEAAXXZ 000000018003a200 f i arena.obj
 0001:00039240       ?num_arena_slots@arena@internal@tbb@@SAII@Z 000000018003a240 f i arena.obj
 0001:00039280       ?pop_back@?$deque@PEAVtask@tbb@@V?$tbb_allocator@PEAVtask@tbb@@@2@@std@@QEAAXXZ 000000018003a280 f i arena.obj
 0001:00039420       ?prefix@auto_empty_task@internal@tbb@@QEAAAEAVtask_prefix@23@XZ 000000018003a420 f i arena.obj
 0001:00039460       ?push@?$task_stream@$02@internal@tbb@@QEAAXPEAVtask@3@HAEAVFastRandom@23@@Z 000000018003a460 f i arena.obj
 0001:00039580       ?push_back@?$deque@PEAVtask@tbb@@V?$tbb_allocator@PEAVtask@tbb@@@2@@std@@QEAAXAEBQEAVtask@tbb@@@Z 000000018003a580 f i arena.obj
 0001:000397c0       ?ref_count@task@tbb@@QEBAHXZ 000000018003a7c0 f i arena.obj
 0001:00039840       ?restore_default@?$context_guard_helper@$0A@@internal@tbb@@QEAAXXZ 000000018003a840 f i arena.obj
 0001:000398b0       ?rethrow_exception@std@@YAXVexception_ptr@1@@Z 000000018003a8b0 f i arena.obj
 0001:00039900       ?rethrow_exception_broken@governor@internal@tbb@@SA_NXZ 000000018003a900 f i arena.obj
 0001:00039910       ?set_ctx@?$context_guard_helper@$0A@@internal@tbb@@QEAAXPEBVtask_group_context@3@@Z 000000018003a910 f i arena.obj
 0001:00039a10       ?set_env@cpu_ctl_env@internal@tbb@@QEBAXXZ 000000018003aa10 f i arena.obj
 0001:00039a40       ?set_is_idle@mail_inbox@internal@tbb@@QEAAX_N@Z 000000018003aa40 f i arena.obj
 0001:00039ac0       ?set_one_bit@internal@tbb@@YAXAEA_KH@Z 000000018003aac0 f i arena.obj
 0001:00039b60       ?store_with_release@?$atomic_impl@PEAVtask_group_context@tbb@@@internal@tbb@@IEAAPEAVtask_group_context@3@PEAV43@@Z 000000018003ab60 f i arena.obj
 0001:00039bc0       ?store_with_release@?$machine_load_store@PEAVgeneric_scheduler@internal@tbb@@$07@internal@tbb@@SAXAECREAVgeneric_scheduler@23@PEAV423@@Z 000000018003abc0 f i arena.obj
 0001:00039be0       ?throw_self@tbb_exception_ptr@internal@tbb@@QEAAXXZ 000000018003abe0 f i arena.obj
 0001:00039c30       ?update_task_node_count@market@internal@tbb@@QEAAX_J@Z 000000018003ac30 f i arena.obj
 0001:00039c80       ?worker_outermost_level@generic_scheduler@internal@tbb@@QEBA_NXZ 000000018003ac80 f i arena.obj
 0001:00039e40       ??1scheduler@internal@tbb@@UEAA@XZ 000000018003ae40 f   scheduler.obj
 0001:00039e60       ?init_stack_info@generic_scheduler@internal@tbb@@QEAAXXZ 000000018003ae60 f   scheduler.obj
 0001:00039fa0       ?get_mailbox_task@generic_scheduler@internal@tbb@@QEAAPEAVtask@3@_J@Z 000000018003afa0 f   scheduler.obj
 0001:0003a0b0       ?steal_task@generic_scheduler@internal@tbb@@QEAAPEAVtask@3@_J@Z 000000018003b0b0 f   scheduler.obj
 0001:0003a270       ?steal_task_from@generic_scheduler@internal@tbb@@QEAAPEAVtask@3@AEAUarena_slot@23@_J@Z 000000018003b270 f   scheduler.obj
 0001:0003a560       ?create_master@generic_scheduler@internal@tbb@@SAPEAV123@PEAVarena@23@@Z 000000018003b560 f   scheduler.obj
 0001:0003a820       ?cleanup_master@generic_scheduler@internal@tbb@@QEAA_N_N@Z 000000018003b820 f   scheduler.obj
 0001:0003abb0       ?create_worker@generic_scheduler@internal@tbb@@SAPEAV123@AEAVmarket@23@_K@Z 000000018003bbb0 f   scheduler.obj
 0001:0003ac70       ?cleanup_worker@generic_scheduler@internal@tbb@@SAXPEAX_N@Z 000000018003bc70 f   scheduler.obj
 0001:0003ad10       ??0generic_scheduler@internal@tbb@@IEAA@AEAVmarket@12@@Z 000000018003bd10 f   scheduler.obj
 0001:0003afb0       ?spawn@generic_scheduler@internal@tbb@@UEAAXAEAVtask@3@AEAPEAV43@@Z 000000018003bfb0 f   scheduler.obj
 0001:0003b000       ?spawn_root_and_wait@generic_scheduler@internal@tbb@@UEAAXAEAVtask@3@AEAPEAV43@@Z 000000018003c000 f   scheduler.obj
 0001:0003b050       ?enqueue@generic_scheduler@internal@tbb@@UEAAXAEAVtask@3@PEAX@Z 000000018003c050 f   scheduler.obj
 0001:0003b0f0       ?local_spawn@generic_scheduler@internal@tbb@@QEAAXPEAVtask@3@AEAPEAV43@@Z 000000018003c0f0 f   scheduler.obj
 0001:0003b440       ?local_spawn_root_and_wait@generic_scheduler@internal@tbb@@QEAAXPEAVtask@3@AEAPEAV43@@Z 000000018003c440 f   scheduler.obj
 0001:0003b6b0       ?free_scheduler@generic_scheduler@internal@tbb@@QEAAXXZ 000000018003c6b0 f   scheduler.obj
 0001:0003b850       ?allocate_task@generic_scheduler@internal@tbb@@QEAAAEAVtask@3@_KPEAV43@PEAVtask_group_context@3@@Z 000000018003c850 f   scheduler.obj
 0001:0003bb20       ?free_nonlocal_small_task@generic_scheduler@internal@tbb@@QEAAXAEAVtask@3@@Z 000000018003cb20 f   scheduler.obj
 0001:0003bc80       ?reload_tasks@generic_scheduler@internal@tbb@@QEAAPEAVtask@3@_J@Z 000000018003cc80 f   scheduler.obj
 0001:0003be80       ?reload_tasks@generic_scheduler@internal@tbb@@QEAAPEAVtask@3@AEAPEAV43@AEAPEAPEAV43@_J2@Z 000000018003ce80 f   scheduler.obj
 0001:0003c270       ?winnow_task_pool@generic_scheduler@internal@tbb@@QEAAPEAVtask@3@_J@Z 000000018003d270 f   scheduler.obj
 0001:0003c510       ?get_task_and_activate_task_pool@generic_scheduler@internal@tbb@@QEAAPEAVtask@3@_K0_J@Z 000000018003d510 f   scheduler.obj
 0001:0003c790       ?cleanup_local_context_list@generic_scheduler@internal@tbb@@QEAAXXZ 000000018003d790 f   scheduler.obj
 0001:0003c980       ?Scheduler_OneTimeInitialization@internal@tbb@@YAX_N@Z 000000018003d980 f   scheduler.obj
 0001:0003ca10       ??$__TBB_load_relaxed@PEAUtask_proxy@internal@tbb@@@internal@tbb@@YAPEAUtask_proxy@01@AEDSEAU201@@Z 000000018003da10 f i scheduler.obj
 0001:0003ca40       ??$__TBB_store_relaxed@PEAPEAVtask@tbb@@PEAPEAV12@@internal@tbb@@YAXAECREAPEAVtask@1@PEAPEAV21@@Z 000000018003da40 f i scheduler.obj
 0001:0003ca80       ??$__TBB_store_relaxed@PEAUtask_proxy@internal@tbb@@PEAU123@@internal@tbb@@YAXAECREAUtask_proxy@01@PEAU201@@Z 000000018003da80 f i scheduler.obj
 0001:0003cac0       ??$__TBB_store_with_release@PEAPEAVtask@tbb@@PEAPEAV12@@internal@tbb@@YAXAECREAPEAVtask@1@PEAPEAV21@@Z 000000018003dac0 f i scheduler.obj
 0001:0003cb00       ??$advertise_new_work@$00@arena@internal@tbb@@QEAAXXZ 000000018003db00 f i scheduler.obj
 0001:0003ce10       ??$advertise_new_work@$0A@@arena@internal@tbb@@QEAAXXZ 000000018003de10 f i scheduler.obj
 0001:0003d120       ??$as_atomic@PEAPEAUtask_proxy@internal@tbb@@@internal@tbb@@YAAEAU?$atomic@PEAPEAUtask_proxy@internal@tbb@@@1@AEAPEAPEAUtask_proxy@01@@Z 000000018003e120 f i scheduler.obj
 0001:0003d130       ??$as_atomic@PEAPEAVtask@tbb@@@internal@tbb@@YAAEAU?$atomic@PEAPEAVtask@tbb@@@1@AEAPEAPEAVtask@1@@Z 000000018003e130 f i scheduler.obj
 0001:0003d140       ??$as_atomic@_J@internal@tbb@@YAAEAU?$atomic@_J@1@AEA_J@Z 000000018003e140 f i scheduler.obj
 0001:0003d150       ??$compare_and_swap@$0A@@?$atomic_impl@PEAPEAUtask_proxy@internal@tbb@@@internal@tbb@@QEAAPEAPEAUtask_proxy@12@PEAPEAU312@0@Z 000000018003e150 f i scheduler.obj
 0001:0003d1c0       ??$compare_and_swap@$0A@@?$atomic_impl@PEAPEAVtask@tbb@@@internal@tbb@@QEAAPEAPEAVtask@2@PEAPEAV32@0@Z 000000018003e1c0 f i scheduler.obj
 0001:0003d230       ??$extract_task@$00@task_proxy@internal@tbb@@QEAAPEAVtask@2@XZ 000000018003e230 f i scheduler.obj
 0001:0003d360       ??$extract_task@$01@task_proxy@internal@tbb@@QEAAPEAVtask@2@XZ 000000018003e360 f i scheduler.obj
 0001:0003d490       ??$free_task@$01@generic_scheduler@internal@tbb@@QEAAXAEAVtask@2@@Z 000000018003e490 f i scheduler.obj
 0001:0003d660       ??$free_task@$05@generic_scheduler@internal@tbb@@QEAAXAEAVtask@2@@Z 000000018003e660 f i scheduler.obj
 0001:0003d830       ??$free_task@$0A@@generic_scheduler@internal@tbb@@QEAAXAEAVtask@2@@Z 000000018003e830 f i scheduler.obj
 0001:0003d9f0       ??$init@_K@FastRandom@internal@tbb@@QEAAX_K@Z 000000018003e9f0 f i scheduler.obj
 0001:0003da30       ??$is_poisoned@Vtask@tbb@@@internal@tbb@@YA_NPEAVtask@1@@Z 000000018003ea30 f i scheduler.obj
 0001:0003da70       ??$poison_pointer@Vtask_group_context@tbb@@@internal@tbb@@YAXAEAPEAVtask_group_context@1@@Z 000000018003ea70 f i scheduler.obj
 0001:0003da90       ??$to_bits@PEAPEAUtask_proxy@internal@tbb@@@?$atomic_impl@PEAPEAUtask_proxy@internal@tbb@@@internal@tbb@@SA_JPEAPEAUtask_proxy@12@@Z 000000018003ea90 f i scheduler.obj
 0001:0003dad0       ??$to_bits@PEAPEAVtask@tbb@@@?$atomic_impl@PEAPEAVtask@tbb@@@internal@tbb@@SA_JPEAPEAVtask@2@@Z 000000018003ead0 f i scheduler.obj
 0001:0003db10       ??$to_value@PEAPEAUtask_proxy@internal@tbb@@@?$atomic_impl@PEAPEAUtask_proxy@internal@tbb@@@internal@tbb@@SAPEAPEAUtask_proxy@12@_J@Z 000000018003eb10 f i scheduler.obj
 0001:0003db70       ??$to_value@PEAPEAVtask@tbb@@@?$atomic_impl@PEAPEAVtask@tbb@@@internal@tbb@@SAPEAPEAVtask@2@_J@Z 000000018003eb70 f i scheduler.obj
 0001:0003dbd0       ??0?$context_guard_helper@$00@internal@tbb@@QEAA@XZ 000000018003ebd0 f i scheduler.obj
 0001:0003dc30       ??0?$converter@PEAPEAUtask_proxy@internal@tbb@@@?$atomic_impl@PEAPEAUtask_proxy@internal@tbb@@@internal@tbb@@QEAA@PEAPEAUtask_proxy@23@@Z 000000018003ec30 f i scheduler.obj
 0001:0003dc50       ??0?$converter@PEAPEAUtask_proxy@internal@tbb@@@?$atomic_impl@PEAPEAUtask_proxy@internal@tbb@@@internal@tbb@@QEAA@XZ 000000018003ec50 f i scheduler.obj
 0001:0003dc60       ??0?$converter@PEAPEAVtask@tbb@@@?$atomic_impl@PEAPEAVtask@tbb@@@internal@tbb@@QEAA@PEAPEAVtask@3@@Z 000000018003ec60 f i scheduler.obj
 0001:0003dc80       ??0?$converter@PEAPEAVtask@tbb@@@?$atomic_impl@PEAPEAVtask@tbb@@@internal@tbb@@QEAA@XZ 000000018003ec80 f i scheduler.obj
 0001:0003dc90       ??0?$custom_scheduler@UDefaultSchedulerTraits@internal@tbb@@@internal@tbb@@AEAA@AEAVmarket@12@@Z 000000018003ec90 f i scheduler.obj
 0001:0003dce0       ??0?$custom_scheduler@UIntelSchedulerTraits@internal@tbb@@@internal@tbb@@AEAA@AEAVmarket@12@@Z 000000018003ece0 f i scheduler.obj
 0001:0003dd30       ??0?$fast_reverse_vector@PEAVtask@tbb@@$0BA@@internal@tbb@@QEAA@PEAPEAVtask@2@_K@Z 000000018003ed30 f i scheduler.obj
 0001:0003dde0       ??0FastRandom@internal@tbb@@QEAA@PEAX@Z 000000018003ede0 f i scheduler.obj
 0001:0003de20       ??0auto_indicator@internal@tbb@@QEAA@AEC_N@Z 000000018003ee20 f i scheduler.obj
 0001:0003de70       ??0scheduler@internal@tbb@@QEAA@XZ 000000018003ee70 f i scheduler.obj
 0001:0003dec0       ??1?$context_guard_helper@$00@internal@tbb@@QEAA@XZ 000000018003eec0 f i scheduler.obj
 0001:0003df40       ??1?$custom_scheduler@UDefaultSchedulerTraits@internal@tbb@@@internal@tbb@@UEAA@XZ 000000018003ef40 f i scheduler.obj
 0001:0003df70       ??1?$custom_scheduler@UIntelSchedulerTraits@internal@tbb@@@internal@tbb@@UEAA@XZ 000000018003ef70 f i scheduler.obj
 0001:0003dfa0       ??1?$fast_reverse_vector@PEAVtask@tbb@@$0BA@@internal@tbb@@QEAA@XZ 000000018003efa0 f i scheduler.obj
 0001:0003e010       ??1auto_indicator@internal@tbb@@QEAA@XZ 000000018003f010 f i scheduler.obj
 0001:0003e030       ??1generic_scheduler@internal@tbb@@UEAA@XZ 000000018003f030 f i scheduler.obj
 0001:0003e060       ??_E?$custom_scheduler@UDefaultSchedulerTraits@internal@tbb@@@internal@tbb@@UEAAPEAXI@Z 000000018003f060 f i scheduler.obj
 0001:0003e060       ??_G?$custom_scheduler@UDefaultSchedulerTraits@internal@tbb@@@internal@tbb@@UEAAPEAXI@Z 000000018003f060 f i scheduler.obj
 0001:0003e0c0       ??_E?$custom_scheduler@UIntelSchedulerTraits@internal@tbb@@@internal@tbb@@UEAAPEAXI@Z 000000018003f0c0 f i scheduler.obj
 0001:0003e0c0       ??_G?$custom_scheduler@UIntelSchedulerTraits@internal@tbb@@@internal@tbb@@UEAAPEAXI@Z 000000018003f0c0 f i scheduler.obj
 0001:0003e120       ??_Ggeneric_scheduler@internal@tbb@@UEAAPEAXI@Z 000000018003f120 f i scheduler.obj
 0001:0003e120       ??_Egeneric_scheduler@internal@tbb@@UEAAPEAXI@Z 000000018003f120 f i scheduler.obj
 0001:0003e180       ?CancellationInfoPresent@internal@tbb@@YA_NAEAVtask@2@@Z 000000018003f180 f i scheduler.obj
 0001:0003e1e0       ?ConcurrentWaitsEnabled@internal@tbb@@YA_NAEAVtask@2@@Z 000000018003f1e0 f i scheduler.obj
 0001:0003e240       ?acquire_task_pool@generic_scheduler@internal@tbb@@QEBAXXZ 000000018003f240 f i scheduler.obj
 0001:0003e420       ?allocate_scheduler@?$custom_scheduler@UDefaultSchedulerTraits@internal@tbb@@@internal@tbb@@SAPEAVgeneric_scheduler@23@AEAVmarket@23@@Z 000000018003f420 f i scheduler.obj
 0001:0003e4d0       ?allocate_scheduler@?$custom_scheduler@UIntelSchedulerTraits@internal@tbb@@@internal@tbb@@SAPEAVgeneric_scheduler@23@AEAVmarket@23@@Z 000000018003f4d0 f i scheduler.obj
 0001:0003e580       ?allocate_scheduler@internal@tbb@@YAPEAVgeneric_scheduler@12@AEAVmarket@12@@Z 000000018003f580 f i scheduler.obj
 0001:0003e5b0       ?allocate_task_pool@arena_slot@internal@tbb@@QEAAX_K@Z 000000018003f5b0 f i scheduler.obj
 0001:0003e650       ?assert_ok@?$intrusive_list_base@V?$intrusive_list@Vgeneric_scheduler@internal@tbb@@@internal@tbb@@Vgeneric_scheduler@23@@internal@tbb@@AEBAXXZ 000000018003f650 f i scheduler.obj
 0001:0003e6d0       ?bounded_pause@atomic_backoff@internal@tbb@@QEAA_NXZ 000000018003f6d0 f i scheduler.obj
 0001:0003e730       ?can_steal@generic_scheduler@internal@tbb@@QEAA_NXZ 000000018003f730 f i scheduler.obj
 0001:0003e780       ?commit_relocated_tasks@generic_scheduler@internal@tbb@@QEAAX_K@Z 000000018003f780 f i scheduler.obj
 0001:0003e820       ?commit_spawned_tasks@generic_scheduler@internal@tbb@@QEAAX_K@Z 000000018003f820 f i scheduler.obj
 0001:0003e8c0       ?compare_and_swap@?$atomic_impl@PEAPEAUtask_proxy@internal@tbb@@@internal@tbb@@QEAAPEAPEAUtask_proxy@23@PEAPEAU423@0@Z 000000018003f8c0 f i scheduler.obj
 0001:0003e910       ?compare_and_swap@?$atomic_impl@PEAPEAVtask@tbb@@@internal@tbb@@QEAAPEAPEAVtask@3@PEAPEAV43@0@Z 000000018003f910 f i scheduler.obj
 0001:0003e960       ?copy_memory@?$fast_reverse_vector@PEAVtask@tbb@@$0BA@@internal@tbb@@QEBAXPEAPEAVtask@3@@Z 000000018003f960 f i scheduler.obj
 0001:0003ea70       ?effective_reference_priority@generic_scheduler@internal@tbb@@QEBA_JXZ 000000018003fa70 f i scheduler.obj
 0001:0003eb10       ?empty@mail_inbox@internal@tbb@@QEAA_NXZ 000000018003fb10 f i scheduler.obj
 0001:0003eb50       ?empty@mail_outbox@internal@tbb@@QEAA_NXZ 000000018003fb50 f i scheduler.obj
 0001:0003eba0       ?fill_with_canary_pattern@arena_slot@internal@tbb@@QEAAX_K0@Z 000000018003fba0 f i scheduler.obj
 0001:0003ec20       ?front@?$deque@PEAVtask@tbb@@V?$tbb_allocator@PEAVtask@tbb@@@2@@std@@QEAAAEAPEAVtask@tbb@@XZ 000000018003fc20 f i scheduler.obj
 0001:0003ec90       ?get_task@generic_scheduler@internal@tbb@@QEAAPEAVtask@3@_J@Z 000000018003fc90 f i scheduler.obj
 0001:0003f200       ?get_task@generic_scheduler@internal@tbb@@QEAAPEAVtask@3@_K_JAEA_N@Z 0000000180040200 f i scheduler.obj
 0001:0003f470       ?init@FastRandom@internal@tbb@@QEAAXIU?$int_to_type@$03@23@@Z 0000000180040470 f i scheduler.obj
 0001:0003f4b0       ?init@FastRandom@internal@tbb@@QEAAX_KU?$int_to_type@$07@23@@Z 00000001800404b0 f i scheduler.obj
 0001:0003f500       ?internal_pop@mail_outbox@internal@tbb@@AEAAPEAUtask_proxy@23@_J@Z 0000000180040500 f i scheduler.obj
 0001:0003f6c0       ?is_proxy@generic_scheduler@internal@tbb@@SA_NAEBVtask@3@@Z 00000001800406c0 f i scheduler.obj
 0001:0003f710       ?is_quiescent_local_task_pool_empty@generic_scheduler@internal@tbb@@QEBA_NXZ 0000000180040710 f i scheduler.obj
 0001:0003f7c0       ?is_shared@task_proxy@internal@tbb@@SA_N_J@Z 00000001800407c0 f i scheduler.obj
 0001:0003f810       ?is_task_pool_published@generic_scheduler@internal@tbb@@QEBA_NXZ 0000000180040810 f i scheduler.obj
 0001:0003f890       ?is_version_3_task@generic_scheduler@internal@tbb@@SA_NAEAVtask@3@@Z 0000000180040890 f i scheduler.obj
 0001:0003f8f0       ?leave_task_pool@generic_scheduler@internal@tbb@@QEAAXXZ 00000001800408f0 f i scheduler.obj
 0001:0003fa40       ?load@?$machine_load_store_relaxed@PEAUtask_proxy@internal@tbb@@$07@internal@tbb@@SAPEAUtask_proxy@23@AEDSEAU423@@Z 0000000180040a40 f i scheduler.obj
 0001:0003fa50       ?local_wait_for_all@?$custom_scheduler@UDefaultSchedulerTraits@internal@tbb@@@internal@tbb@@EEAAXAEAVtask@3@PEAV43@@Z 0000000180040a50 f i scheduler.obj
 0001:00040f40       ?local_wait_for_all@?$custom_scheduler@UIntelSchedulerTraits@internal@tbb@@@internal@tbb@@EEAAXAEAVtask@3@PEAV43@@Z 0000000180041f40 f i scheduler.obj
 0001:00042430       ?lock_task_pool@generic_scheduler@internal@tbb@@QEBAPEAPEAVtask@3@PEAUarena_slot@23@@Z 0000000180043430 f i scheduler.obj
 0001:00042580       ?node@?$intrusive_list@Vgeneric_scheduler@internal@tbb@@@internal@tbb@@CAAEAUintrusive_list_node@23@AEAVgeneric_scheduler@23@@Z 0000000180043580 f i scheduler.obj
 0001:000425a0       ?node@?$intrusive_list_base@V?$intrusive_list@Vgeneric_scheduler@internal@tbb@@@internal@tbb@@Vgeneric_scheduler@23@@internal@tbb@@CAAEAUintrusive_list_node@23@AEAVgeneric_scheduler@23@@Z 00000001800435a0 f i scheduler.obj
 0001:000425d0       ?offload_task@generic_scheduler@internal@tbb@@QEAAXAEAVtask@3@_J@Z 00000001800435d0 f i scheduler.obj
 0001:000426b0       ?outbox@mail_inbox@internal@tbb@@QEBAPEAXXZ 00000001800436b0 f i scheduler.obj
 0001:000426c0       ?plugged_return_list@generic_scheduler@internal@tbb@@SAPEAVtask@3@XZ 00000001800436c0 f i scheduler.obj
 0001:000426d0       ?pop@?$task_stream@$02@internal@tbb@@QEAAPEAVtask@3@HAEAI@Z 00000001800436d0 f i scheduler.obj
 0001:00042890       ?pop@mail_inbox@internal@tbb@@QEAAPEAUtask_proxy@23@_J@Z 0000000180043890 f i scheduler.obj
 0001:000428d0       ?pop_front@?$deque@PEAVtask@tbb@@V?$tbb_allocator@PEAVtask@tbb@@@2@@std@@QEAAXXZ 00000001800438d0 f i scheduler.obj
 0001:00042a70       ?prepare_for_spawning@generic_scheduler@internal@tbb@@QEAAPEAVtask@3@PEAV43@@Z 0000000180043a70 f i scheduler.obj
 0001:00042ce0       ?prepare_task_pool@generic_scheduler@internal@tbb@@QEAA_K_K@Z 0000000180043ce0 f i scheduler.obj
 0001:00043060       ?priority@internal@tbb@@YAAEA_JAEAVtask@2@@Z 0000000180044060 f i scheduler.obj
 0001:000430a0       ?prolonged_pause@internal@tbb@@YAXXZ 00000001800440a0 f i scheduler.obj
 0001:00043130       ?publish_task_pool@generic_scheduler@internal@tbb@@QEAAXXZ 0000000180044130 f i scheduler.obj
 0001:000432d0       ?push@mail_outbox@internal@tbb@@QEAAXPEAUtask_proxy@23@@Z 00000001800442d0 f i scheduler.obj
 0001:00043360       ?push_back@?$fast_reverse_vector@PEAVtask@tbb@@$0BA@@internal@tbb@@QEAAXAEBQEAVtask@3@@Z 0000000180044360 f i scheduler.obj
 0001:000434f0       ?push_front@?$intrusive_list_base@V?$intrusive_list@Vgeneric_scheduler@internal@tbb@@@internal@tbb@@Vgeneric_scheduler@23@@internal@tbb@@QEAAXAEAVgeneric_scheduler@23@@Z 00000001800444f0 f i scheduler.obj
 0001:00043600       ?receive_or_steal_task@?$custom_scheduler@UDefaultSchedulerTraits@internal@tbb@@@internal@tbb@@UEAAPEAVtask@3@AEA_J_J@Z 0000000180044600 f i scheduler.obj
 0001:000440c0       ?receive_or_steal_task@?$custom_scheduler@UIntelSchedulerTraits@internal@tbb@@@internal@tbb@@UEAAPEAVtask@3@AEA_J_J@Z 00000001800450c0 f i scheduler.obj
 0001:00044b60       ?recipient_is_idle@mail_outbox@internal@tbb@@QEAA_NXZ 0000000180045b60 f i scheduler.obj
 0001:00044b80       ?register_master@market@internal@tbb@@QEAAXAEAPEAX@Z 0000000180045b80 f i scheduler.obj
 0001:00044c00       ?release_task_pool@generic_scheduler@internal@tbb@@QEBAXXZ 0000000180045c00 f i scheduler.obj
 0001:00044ce0       ?remove@?$intrusive_list_base@V?$intrusive_list@Vgeneric_scheduler@internal@tbb@@@internal@tbb@@Vgeneric_scheduler@23@@internal@tbb@@QEAAXAEAVgeneric_scheduler@23@@Z 0000000180045ce0 f i scheduler.obj
 0001:00044e90       ?reset_extra_state@internal@tbb@@YAXPEAVtask@2@@Z 0000000180045e90 f i scheduler.obj
 0001:00044ee0       ?reset_task_pool_and_leave@generic_scheduler@internal@tbb@@QEAAXXZ 0000000180045ee0 f i scheduler.obj
 0001:00044f70       ?restore_default@?$context_guard_helper@$00@internal@tbb@@QEAAXXZ 0000000180045f70 f i scheduler.obj
 0001:00044fe0       ?set_ctx@?$context_guard_helper@$00@internal@tbb@@QEAAXPEBVtask_group_context@3@@Z 0000000180045fe0 f i scheduler.obj
 0001:000450e0       ?size@?$fast_reverse_vector@PEAVtask@tbb@@$0BA@@internal@tbb@@QEBA_KXZ 00000001800460e0 f i scheduler.obj
 0001:00045110       ?store@?$machine_load_store_relaxed@PEAPEAVtask@tbb@@$07@internal@tbb@@SAXAECREAPEAVtask@3@PEAPEAV43@@Z 0000000180046110 f i scheduler.obj
 0001:00045130       ?store@?$machine_load_store_relaxed@PEAUtask_proxy@internal@tbb@@$07@internal@tbb@@SAXAECREAUtask_proxy@23@PEAU423@@Z 0000000180046130 f i scheduler.obj
 0001:00045150       ?store_with_release@?$machine_load_store@PEAPEAVtask@tbb@@$07@internal@tbb@@SAXAECREAPEAVtask@3@PEAPEAV43@@Z 0000000180046150 f i scheduler.obj
 0001:00045170       ?tally_completion_of_predecessor@?$custom_scheduler@UDefaultSchedulerTraits@internal@tbb@@@internal@tbb@@AEAAXAEAVtask@3@AEAPEAV43@_J@Z 0000000180046170 f i scheduler.obj
 0001:00045340       ?tally_completion_of_predecessor@?$custom_scheduler@UIntelSchedulerTraits@internal@tbb@@@internal@tbb@@AEAAXAEAVtask@3@AEAPEAV43@_J@Z 0000000180046340 f i scheduler.obj
 0001:00045510       ?task_ptr@task_proxy@internal@tbb@@SAPEAVtask@3@_J@Z 0000000180046510 f i scheduler.obj
 0001:00045530       ?unlock_task_pool@generic_scheduler@internal@tbb@@QEBAXPEAUarena_slot@23@PEAPEAVtask@3@@Z 0000000180046530 f i scheduler.obj
 0001:000455f0       ?unregister_master@market@internal@tbb@@QEBAXAEAPEAX@Z 00000001800465f0 f i scheduler.obj
 0001:00045640       ?wait_for_all@?$custom_scheduler@UDefaultSchedulerTraits@internal@tbb@@@internal@tbb@@EEAAXAEAVtask@3@PEAV43@@Z 0000000180046640 f i scheduler.obj
 0001:00045690       ?wait_for_all@?$custom_scheduler@UIntelSchedulerTraits@internal@tbb@@@internal@tbb@@EEAAXAEAVtask@3@PEAV43@@Z 0000000180046690 f i scheduler.obj
 0001:000456e0       NtCurrentTeb               00000001800466e0 f i scheduler.obj
 0001:000457d0       ?observe@task_scheduler_observer_v3@internal@tbb@@QEAAX_N@Z 00000001800467d0 f   observer_proxy.obj
 0001:00045d00       ?do_notify_entry_observers@observer_list@internal@tbb@@AEAAXAEAPEAVobserver_proxy@23@_N@Z 0000000180046d00 f   observer_proxy.obj
 0001:00046020       ?do_notify_exit_observers@observer_list@internal@tbb@@AEAAXPEAVobserver_proxy@23@_N@Z 0000000180047020 f   observer_proxy.obj
 0001:00046300       ?clear@observer_list@internal@tbb@@QEAAXXZ 0000000180047300 f   observer_proxy.obj
 0001:000465a0       ?insert@observer_list@internal@tbb@@QEAAXPEAVobserver_proxy@23@@Z 00000001800475a0 f   observer_proxy.obj
 0001:00046650       ?remove@observer_list@internal@tbb@@QEAAXPEAVobserver_proxy@23@@Z 0000000180047650 f   observer_proxy.obj
 0001:00046840       ?remove_ref@observer_list@internal@tbb@@QEAAXPEAVobserver_proxy@23@@Z 0000000180047840 f   observer_proxy.obj
 0001:00046a30       ?get_v6_observer@observer_proxy@internal@tbb@@AEAAPEAVtask_scheduler_observer@interface6@3@XZ 0000000180047a30 f   observer_proxy.obj
 0001:00046a60       ?is_global@observer_proxy@internal@tbb@@AEAA_NXZ 0000000180047a60 f   observer_proxy.obj
 0001:00046ad0       ??0observer_proxy@internal@tbb@@AEAA@AEAVtask_scheduler_observer_v3@12@@Z 0000000180047ad0 f   observer_proxy.obj
 0001:00046be0       ??1observer_proxy@internal@tbb@@AEAA@XZ 0000000180047be0 f   observer_proxy.obj
 0001:00046c80       ??$as_atomic@_N@internal@tbb@@YAAEAU?$atomic@_N@1@AEA_N@Z 0000000180047c80 f i observer_proxy.obj
 0001:00046c90       ??$fetch_and_store@$01@?$atomic_impl@_N@internal@tbb@@QEAA_N_N@Z 0000000180047c90 f i observer_proxy.obj
 0001:00046ce0       ??$load@$02@?$atomic_impl@_J@internal@tbb@@QEBA_JXZ 0000000180047ce0 f i observer_proxy.obj
 0001:00046d30       ??$load@$02_J@tbb@@YA_JAEBU?$atomic@_J@0@@Z 0000000180047d30 f i observer_proxy.obj
 0001:00046d60       ??$poison_pointer@Vobserver_proxy@internal@tbb@@@internal@tbb@@YAXAEAPEAVobserver_proxy@01@@Z 0000000180047d60 f i observer_proxy.obj
 0001:00046d80       ??$poison_value@U?$atomic@H@tbb@@@internal@tbb@@YAXAEAU?$atomic@H@1@@Z 0000000180047d80 f i observer_proxy.obj
 0001:00046dc0       ??$punned_cast@PEAU?$atomic@H@tbb@@$$CB_K@internal@tbb@@YAPEAU?$atomic@H@1@PEB_K@Z 0000000180047dc0 f i observer_proxy.obj
 0001:00046e00       ??$punned_cast@PEAVspin_rw_mutex_v3@tbb@@$$CBV?$aligned_space@Vspin_rw_mutex_v3@tbb@@$00@2@@internal@tbb@@YAPEAVspin_rw_mutex_v3@1@PEBV?$aligned_space@Vspin_rw_mutex_v3@tbb@@$00@1@@Z 0000000180047e00 f i observer_proxy.obj
 0001:00046e40       ??$to_bits@H@?$atomic_impl@H@internal@tbb@@SAHH@Z 0000000180047e40 f i observer_proxy.obj
 0001:00046e80       ??$to_bits_ref@$$CB_J@?$atomic_impl@_J@internal@tbb@@SAAEA_JAEB_J@Z 0000000180047e80 f i observer_proxy.obj
 0001:00046ec0       ??$to_bits_ref@H@?$atomic_impl@H@internal@tbb@@SAAEAHAEAH@Z 0000000180047ec0 f i observer_proxy.obj
 0001:00046f00       ??$to_bits_ref@_J@?$atomic_impl@_J@internal@tbb@@SAAEA_JAEA_J@Z 0000000180047f00 f i observer_proxy.obj
 0001:00046f40       ??0?$padded@Vobserver_list@internal@tbb@@$0IA@@internal@tbb@@QEAA@XZ 0000000180047f40 f i observer_proxy.obj
 0001:00046f80       ??0?$padded_base@Vobserver_list@internal@tbb@@$0IA@$0CA@@internal@tbb@@QEAA@XZ 0000000180047f80 f i observer_proxy.obj
 0001:00046fc0       ??0?$ptr_converter@PEA_J@?$atomic_impl@_J@internal@tbb@@QEAA@PEA_J@Z 0000000180047fc0 f i observer_proxy.obj
 0001:00046fe0       ??0?$ptr_converter@PEB_J@?$atomic_impl@_J@internal@tbb@@QEAA@PEB_J@Z 0000000180047fe0 f i observer_proxy.obj
 0001:00047000       ??1check_observer_proxy_count@internal@tbb@@QEAA@XZ 0000000180048000 f i observer_proxy.obj
 0001:00047060       ??4?$atomic@H@tbb@@QEAAAEAU01@AEBU01@@Z 0000000180048060 f i observer_proxy.obj
 0001:000470b0       ??4?$atomic@_J@tbb@@QEAA_J_J@Z 00000001800480b0 f i observer_proxy.obj
 0001:000470f0       ??E?$atomic_impl_with_arithmetic@_J_JD@internal@tbb@@QEAA_JXZ 00000001800480f0 f i observer_proxy.obj
 0001:00047130       ??F?$atomic_impl_with_arithmetic@_J_JD@internal@tbb@@QEAA_JXZ 0000000180048130 f i observer_proxy.obj
 0001:00047170       ??_Gobserver_proxy@internal@tbb@@AEAAPEAXI@Z 0000000180048170 f i observer_proxy.obj
 0001:000471d0       ?begin@?$aligned_space@Vspin_rw_mutex_v3@tbb@@$00@tbb@@QEBAPEAVspin_rw_mutex_v3@2@XZ 00000001800481d0 f i observer_proxy.obj
 0001:00047200       ?fetch_and_store@?$atomic_traits@$00$01@internal@tbb@@SACPECXC@Z 0000000180048200 f i observer_proxy.obj
 0001:00047240       ?initialize@task_arena@interface7@tbb@@QEAAXXZ 0000000180048240 f i observer_proxy.obj
 0001:00047290       ?mark_initialized@task_arena@interface7@tbb@@AEAAXXZ 0000000180048290 f i observer_proxy.obj
 0001:00047330       ?mutex@observer_list@internal@tbb@@QEAAAEAVspin_rw_mutex_v3@3@XZ 0000000180048330 f i observer_proxy.obj
 0001:00047380       ?remove_ref_fast@observer_list@internal@tbb@@CAXAEAPEAVobserver_proxy@23@@Z 0000000180048380 f i observer_proxy.obj
 0001:00047400       ?store_with_release@?$atomic_impl@_J@internal@tbb@@IEAA_J_J@Z 0000000180048400 f i observer_proxy.obj
 0001:00047460       ?internal_create@global_control@interface9@tbb@@AEAAXXZ 0000000180048460 f   tbb_main.obj
 0001:000475a0       ?internal_destroy@global_control@interface9@tbb@@AEAAXXZ 00000001800485a0 f   tbb_main.obj
 0001:00047850       ?active_value@global_control@interface9@tbb@@CA_KH@Z 0000000180048850 f   tbb_main.obj
 0001:00047a60       ?DoOneTimeInitializations@internal@tbb@@YAXXZ 0000000180048a60 f   tbb_main.obj
 0001:00047b40       ?ITT_DoUnsafeOneTimeInitialization@internal@tbb@@YAXXZ 0000000180048b40 f   tbb_main.obj
 0001:00047bf0       ?add_ref@__TBB_InitOnce@internal@tbb@@SAXXZ 0000000180048bf0 f   tbb_main.obj
 0001:00047c30       ?remove_ref@__TBB_InitOnce@internal@tbb@@SAXXZ 0000000180048c30 f   tbb_main.obj
 0001:00047ca0       ?itt_set_sync_name_v3@internal@tbb@@YAXPEAXPEB_W@Z 0000000180048ca0 f   tbb_main.obj
 0001:00047d00       ?call_itt_notify_v5@internal@tbb@@YAXHPEAX@Z 0000000180048d00 f   tbb_main.obj
 0001:00047dc0       ?itt_store_pointer_with_release_v3@internal@tbb@@YAXPEAX0@Z 0000000180048dc0 f   tbb_main.obj
 0001:00047e20       ?itt_load_pointer_with_acquire_v3@internal@tbb@@YAPEAXPEBX@Z 0000000180048e20 f   tbb_main.obj
 0001:00047e80       ?itt_load_pointer_v3@internal@tbb@@YAPEAXPEBX@Z 0000000180048e80 f   tbb_main.obj
 0001:00047ec0       ?itt_make_task_group_v7@internal@tbb@@YAXW4itt_domain_enum@12@PEAX_K12W4string_index@12@@Z 0000000180048ec0 f   tbb_main.obj
 0001:00048080       ?itt_metadata_str_add_v7@internal@tbb@@YAXW4itt_domain_enum@12@PEAX_KW4string_index@12@PEBD@Z 0000000180049080 f   tbb_main.obj
 0001:000481d0       ?itt_relation_add_v7@internal@tbb@@YAXW4itt_domain_enum@12@PEAX_KW4itt_relation@12@12@Z 00000001800491d0 f   tbb_main.obj
 0001:00048340       ?itt_task_begin_v7@internal@tbb@@YAXW4itt_domain_enum@12@PEAX_K12W4string_index@12@@Z 0000000180049340 f   tbb_main.obj
 0001:000484d0       ?itt_task_end_v7@internal@tbb@@YAXW4itt_domain_enum@12@@Z 00000001800494d0 f   tbb_main.obj
 0001:00048540       ?itt_region_begin_v9@internal@tbb@@YAXW4itt_domain_enum@12@PEAX_K12W4string_index@12@@Z 0000000180049540 f   tbb_main.obj
 0001:000486b0       ?itt_region_end_v9@internal@tbb@@YAXW4itt_domain_enum@12@PEAX_K@Z 00000001800496b0 f   tbb_main.obj
 0001:000487b0       ?app_parallelism_limit@market@internal@tbb@@SAIXZ 00000001800497b0 f   tbb_main.obj
 0001:00048a60       ITT_DoOneTimeInitialization 0000000180049a60 f   tbb_main.obj
 0001:00048ab0       DllMain                    0000000180049ab0 f   tbb_main.obj
 0001:00048ca0       ??$__TBB_load_with_acquire@PEAX@internal@tbb@@YAPEAXAEDSEAX@Z 0000000180049ca0 f i tbb_main.obj
 0001:00048cd0       ??$__TBB_store_with_release@PEAXPEAX@internal@tbb@@YAXAECREAXPEAX@Z 0000000180049cd0 f i tbb_main.obj
 0001:00048d10       ??$min@_K@internal@tbb@@YA_KAEB_K0@Z 0000000180049d10 f i tbb_main.obj
 0001:00048d70       ??$suppress_unused_warning@$$BY0HM@D@internal@tbb@@YAXAEAY0HM@$$CBD@Z 0000000180049d70 f i tbb_main.obj
 0001:00048d80       ??$suppress_unused_warning@PEAXPEB_W@internal@tbb@@YAXAEBQEAXAEBQEB_W@Z 0000000180049d80 f i tbb_main.obj
 0001:00048d90       ??$to_bits@PEAVglobal_control@interface9@tbb@@@?$atomic_impl@PEAVglobal_control@interface9@tbb@@@internal@tbb@@CA_JPEAVglobal_control@interface9@2@@Z 0000000180049d90 f i tbb_main.obj
 0001:00048dd0       ??$to_bits_ref@PEAVglobal_control@interface9@tbb@@@?$atomic_impl@PEAVglobal_control@interface9@tbb@@@internal@tbb@@CAAEA_JAEAPEAVglobal_control@interface9@2@@Z 0000000180049dd0 f i tbb_main.obj
 0001:00048e10       ??$to_bits_ref@SEAVglobal_control@interface9@tbb@@@?$atomic_impl@PEAVglobal_control@interface9@tbb@@@internal@tbb@@CAAEA_JAEDSEAVglobal_control@interface9@2@@Z 0000000180049e10 f i tbb_main.obj
 0001:00048e50       ??$to_value@PEAVglobal_control@interface9@tbb@@@?$atomic_impl@PEAVglobal_control@interface9@tbb@@@internal@tbb@@CAPEAVglobal_control@interface9@2@_J@Z 0000000180049e50 f i tbb_main.obj
 0001:00048eb0       ??0?$converter@PEAVglobal_control@interface9@tbb@@@?$atomic_impl@PEAVglobal_control@interface9@tbb@@@internal@tbb@@QEAA@PEAVglobal_control@interface9@3@@Z 0000000180049eb0 f i tbb_main.obj
 0001:00048ed0       ??0?$converter@PEAVglobal_control@interface9@tbb@@@?$atomic_impl@PEAVglobal_control@interface9@tbb@@@internal@tbb@@QEAA@XZ 0000000180049ed0 f i tbb_main.obj
 0001:00048ee0       ??0?$padded@Vcontrol_storage@internal@tbb@@$0IA@@internal@tbb@@QEAA@XZ 0000000180049ee0 f i tbb_main.obj
 0001:00048f30       ??0?$padded_base@Vcontrol_storage@internal@tbb@@$0IA@$0CA@@internal@tbb@@QEAA@XZ 0000000180049f30 f i tbb_main.obj
 0001:00048f80       ??0?$ptr_converter@PEAPEAVglobal_control@interface9@tbb@@@?$atomic_impl@PEAVglobal_control@interface9@tbb@@@internal@tbb@@QEAA@PEAPEAVglobal_control@interface9@3@@Z 0000000180049f80 f i tbb_main.obj
 0001:00048fa0       ??0?$ptr_converter@PEDSEAVglobal_control@interface9@tbb@@@?$atomic_impl@PEAVglobal_control@interface9@tbb@@@internal@tbb@@QEAA@PEDSEAVglobal_control@interface9@3@@Z 0000000180049fa0 f i tbb_main.obj
 0001:00048fc0       ??0allowed_parallelism_control@internal@tbb@@QEAA@XZ 0000000180049fc0 f i tbb_main.obj
 0001:00049010       ??0control_storage@internal@tbb@@QEAA@XZ 000000018004a010 f i tbb_main.obj
 0001:00049060       ??0stack_size_control@internal@tbb@@QEAA@XZ 000000018004a060 f i tbb_main.obj
 0001:000490b0       ??4?$atomic@PEAVglobal_control@interface9@tbb@@@tbb@@QEAAPEAVglobal_control@interface9@1@PEAV231@@Z 000000018004a0b0 f i tbb_main.obj
 0001:000490f0       ??B?$atomic_impl@PEAVglobal_control@interface9@tbb@@@internal@tbb@@QEDAPEAVglobal_control@interface9@2@XZ 000000018004a0f0 f i tbb_main.obj
 0001:00049140       ??C?$atomic@PEAVglobal_control@interface9@tbb@@@tbb@@QEBAPEAVglobal_control@interface9@1@XZ 000000018004a140 f i tbb_main.obj
 0001:00049170       ?active_value@allowed_parallelism_control@internal@tbb@@EEBA_KXZ 000000018004a170 f i tbb_main.obj
 0001:00049210       ?active_value@control_storage@internal@tbb@@MEBA_KXZ 000000018004a210 f i tbb_main.obj
 0001:00049280       ?active_value_if_present@allowed_parallelism_control@internal@tbb@@QEBA_KXZ 000000018004a280 f i tbb_main.obj
 0001:000492e0       ?apply_active@allowed_parallelism_control@internal@tbb@@EEBAXXZ 000000018004a2e0 f i tbb_main.obj
 0001:00049340       ?apply_active@control_storage@internal@tbb@@MEBAXXZ 000000018004a340 f i tbb_main.obj
 0001:00049350       ?apply_active@stack_size_control@internal@tbb@@EEBAXXZ 000000018004a350 f i tbb_main.obj
 0001:00049360       ?default_value@allowed_parallelism_control@internal@tbb@@EEBA_KXZ 000000018004a360 f i tbb_main.obj
 0001:000493b0       ?default_value@stack_size_control@internal@tbb@@EEBA_KXZ 000000018004a3b0 f i tbb_main.obj
 0001:000493c0       ?is_first_arg_preferred@allowed_parallelism_control@internal@tbb@@EEBA_N_K0@Z 000000018004a3c0 f i tbb_main.obj
 0001:00049410       ?is_first_arg_preferred@control_storage@internal@tbb@@MEBA_N_K0@Z 000000018004a410 f i tbb_main.obj
 0001:00049460       ?load_with_acquire@?$machine_load_store@PEAX$07@internal@tbb@@SAPEAXAEDSEAX@Z 000000018004a460 f i tbb_main.obj
 0001:000494a0       ?lock@__TBB_InitOnce@internal@tbb@@SAXXZ 000000018004a4a0 f i tbb_main.obj
 0001:000494d0       ?max_num_workers@market@internal@tbb@@SAIXZ 000000018004a4d0 f i tbb_main.obj
 0001:00049550       ?store_with_release@?$atomic_impl@PEAVglobal_control@interface9@tbb@@@internal@tbb@@IEAAPEAVglobal_control@interface9@3@PEAV453@@Z 000000018004a550 f i tbb_main.obj
 0001:000495b0       ?store_with_release@?$machine_load_store@PEAX$07@internal@tbb@@SAXAECREAXPEAX@Z 000000018004a5b0 f i tbb_main.obj
 0001:000495d0       ?terminate_auto_initialized_scheduler@governor@internal@tbb@@SAXXZ 000000018004a5d0 f i tbb_main.obj
 0001:00049600       ?unlock@__TBB_InitOnce@internal@tbb@@SAXXZ 000000018004a600 f i tbb_main.obj
 0001:00049630       __itt_id_make              000000018004a630 f i tbb_main.obj
 0001:000497f0       ?internal_reserve@concurrent_vector_base@internal@tbb@@IEAAX_K00@Z 000000018004a7f0 f   concurrent_vector_v2.obj
 0001:00049920       ?internal_capacity@concurrent_vector_base@internal@tbb@@IEBA_KXZ 000000018004a920 f   concurrent_vector_v2.obj
 0001:00049960       ?internal_grow_to_at_least@concurrent_vector_base@internal@tbb@@IEAAX_K0P6AXPEAX0@Z@Z 000000018004a960 f   concurrent_vector_v2.obj
 0001:00049a10       ?internal_grow@concurrent_vector_base@internal@tbb@@IEAAX_K00P6AXPEAX0@Z@Z 000000018004aa10 f   concurrent_vector_v2.obj
 0001:00049c90       ?internal_grow_by@concurrent_vector_base@internal@tbb@@IEAA_K_K0P6AXPEAX0@Z@Z 000000018004ac90 f   concurrent_vector_v2.obj
 0001:00049d20       ?internal_push_back@concurrent_vector_base@internal@tbb@@IEAAPEAX_KAEA_K@Z 000000018004ad20 f   concurrent_vector_v2.obj
 0001:00049f10       ?internal_clear@concurrent_vector_base@internal@tbb@@IEAAXP6AXPEAX_K@Z_N@Z 000000018004af10 f   concurrent_vector_v2.obj
 0001:0004a190       ?internal_copy@concurrent_vector_base@internal@tbb@@IEAAXAEBV123@_KP6AXPEAXPEBX1@Z@Z 000000018004b190 f   concurrent_vector_v2.obj
 0001:0004a360       ?internal_assign@concurrent_vector_base@internal@tbb@@IEAAXAEBV123@_KP6AXPEAX1@ZP6AX2PEBX1@Z5@Z 000000018004b360 f   concurrent_vector_v2.obj
 0001:0004a760       ?extend_segment@helper@concurrent_vector_base@internal@tbb@@CAXAEAV234@@Z 000000018004b760 f   concurrent_vector_v2.obj
 0001:0004a8a0       ??$compare_and_swap@$0A@@?$atomic_impl@PEAUsegment_t@concurrent_vector_base@internal@tbb@@@internal@tbb@@QEAAPEAUsegment_t@concurrent_vector_base@12@PEAU3412@0@Z 000000018004b8a0 f i concurrent_vector_v2.obj
 0001:0004a910       ??$spin_wait_while_eq@PEAXPEAX@internal@tbb@@YAXAEDSEAXPEAX@Z 000000018004b910 f i concurrent_vector_v2.obj
 0001:0004a970       ??$to_bits@PEAUsegment_t@concurrent_vector_base@internal@tbb@@@?$atomic_impl@PEAUsegment_t@concurrent_vector_base@internal@tbb@@@internal@tbb@@CA_JPEAUsegment_t@concurrent_vector_base@12@@Z 000000018004b970 f i concurrent_vector_v2.obj
 0001:0004a9b0       ??$to_bits_ref@PEAUsegment_t@concurrent_vector_base@internal@tbb@@@?$atomic_impl@PEAUsegment_t@concurrent_vector_base@internal@tbb@@@internal@tbb@@CAAEA_JAEAPEAUsegment_t@concurrent_vector_base@12@@Z 000000018004b9b0 f i concurrent_vector_v2.obj
 0001:0004a9f0       ??$to_bits_ref@SEAUsegment_t@concurrent_vector_base@internal@tbb@@@?$atomic_impl@PEAUsegment_t@concurrent_vector_base@internal@tbb@@@internal@tbb@@CAAEA_JAEDSEAUsegment_t@concurrent_vector_base@12@@Z 000000018004b9f0 f i concurrent_vector_v2.obj
 0001:0004aa30       ??$to_value@PEAUsegment_t@concurrent_vector_base@internal@tbb@@@?$atomic_impl@PEAUsegment_t@concurrent_vector_base@internal@tbb@@@internal@tbb@@CAPEAUsegment_t@concurrent_vector_base@12@_J@Z 000000018004ba30 f i concurrent_vector_v2.obj
 0001:0004aa90       ??0?$converter@PEAUsegment_t@concurrent_vector_base@internal@tbb@@@?$atomic_impl@PEAUsegment_t@concurrent_vector_base@internal@tbb@@@internal@tbb@@QEAA@PEAUsegment_t@concurrent_vector_base@23@@Z 000000018004ba90 f i concurrent_vector_v2.obj
 0001:0004aab0       ??0?$converter@PEAUsegment_t@concurrent_vector_base@internal@tbb@@@?$atomic_impl@PEAUsegment_t@concurrent_vector_base@internal@tbb@@@internal@tbb@@QEAA@XZ 000000018004bab0 f i concurrent_vector_v2.obj
 0001:0004aac0       ??0?$ptr_converter@PEAPEAUsegment_t@concurrent_vector_base@internal@tbb@@@?$atomic_impl@PEAUsegment_t@concurrent_vector_base@internal@tbb@@@internal@tbb@@QEAA@PEAPEAUsegment_t@concurrent_vector_base@23@@Z 000000018004bac0 f i concurrent_vector_v2.obj
 0001:0004aae0       ??0?$ptr_converter@PEDSEAUsegment_t@concurrent_vector_base@internal@tbb@@@?$atomic_impl@PEAUsegment_t@concurrent_vector_base@internal@tbb@@@internal@tbb@@QEAA@PEDSEAUsegment_t@concurrent_vector_base@23@@Z 000000018004bae0 f i concurrent_vector_v2.obj
 0001:0004ab00       ??4?$atomic@PEAUsegment_t@concurrent_vector_base@internal@tbb@@@tbb@@QEAAPEAUsegment_t@concurrent_vector_base@internal@1@PEAU2341@@Z 000000018004bb00 f i concurrent_vector_v2.obj
 0001:0004ab40       ??4segment_t@concurrent_vector_base@internal@tbb@@QEAAAEAU0123@AEBU0123@@Z 000000018004bb40 f i concurrent_vector_v2.obj
 0001:0004ab70       ??B?$atomic_impl@PEAUsegment_t@concurrent_vector_base@internal@tbb@@@internal@tbb@@QEDAPEAUsegment_t@concurrent_vector_base@12@XZ 000000018004bb70 f i concurrent_vector_v2.obj
 0001:0004abc0       ?compare_and_swap@?$atomic_impl@PEAUsegment_t@concurrent_vector_base@internal@tbb@@@internal@tbb@@QEAAPEAUsegment_t@concurrent_vector_base@23@PEAU4523@0@Z 000000018004bbc0 f i concurrent_vector_v2.obj
 0001:0004ac10       ?extend_segment_if_necessary@helper@concurrent_vector_base@internal@tbb@@SAXAEAV234@_K@Z 000000018004bc10 f i concurrent_vector_v2.obj
 0001:0004ac80       ?find_segment_end@helper@concurrent_vector_base@internal@tbb@@SAKAEBV234@@Z 000000018004bc80 f i concurrent_vector_v2.obj
 0001:0004ad40       ?segment_base@concurrent_vector_base@internal@tbb@@KAKK@Z 000000018004bd40 f i concurrent_vector_v2.obj
 0001:0004ad80       ?segment_index_of@concurrent_vector_base@internal@tbb@@KAK_K@Z 000000018004bd80 f i concurrent_vector_v2.obj
 0001:0004add0       ?segment_size@concurrent_vector_base@internal@tbb@@KAKK@Z 000000018004bdd0 f i concurrent_vector_v2.obj
 0001:0004ae70       ?store_with_release@?$atomic_impl@PEAUsegment_t@concurrent_vector_base@internal@tbb@@@internal@tbb@@IEAAPEAUsegment_t@concurrent_vector_base@23@PEAU4523@@Z 000000018004be70 f i concurrent_vector_v2.obj
 0001:0004aed0       ??0concurrent_queue_base@internal@tbb@@IEAA@_K@Z 000000018004bed0 f   concurrent_queue_v2.obj
 0001:0004b1d0       ??1concurrent_queue_base@internal@tbb@@MEAA@XZ 000000018004c1d0 f   concurrent_queue_v2.obj
 0001:0004b300       ?internal_push@concurrent_queue_base@internal@tbb@@IEAAXPEBX@Z 000000018004c300 f   concurrent_queue_v2.obj
 0001:0004b3e0       ?internal_pop@concurrent_queue_base@internal@tbb@@IEAAXPEAX@Z 000000018004c3e0 f   concurrent_queue_v2.obj
 0001:0004b460       ?internal_push_if_not_full@concurrent_queue_base@internal@tbb@@IEAA_NPEBX@Z 000000018004c460 f   concurrent_queue_v2.obj
 0001:0004b560       ?internal_pop_if_present@concurrent_queue_base@internal@tbb@@IEAA_NPEAX@Z 000000018004c560 f   concurrent_queue_v2.obj
 0001:0004b650       ?internal_size@concurrent_queue_base@internal@tbb@@IEBA_JXZ 000000018004c650 f   concurrent_queue_v2.obj
 0001:0004b6e0       ?internal_set_capacity@concurrent_queue_base@internal@tbb@@IEAAX_J_K@Z 000000018004c6e0 f   concurrent_queue_v2.obj
 0001:0004b750       ??0concurrent_queue_iterator_base@internal@tbb@@IEAA@AEBVconcurrent_queue_base@12@@Z 000000018004c750 f   concurrent_queue_v2.obj
 0001:0004b800       ?assign@concurrent_queue_iterator_base@internal@tbb@@IEAAXAEBV123@@Z 000000018004c800 f   concurrent_queue_v2.obj
 0001:0004b8f0       ?advance@concurrent_queue_iterator_base@internal@tbb@@IEAAXXZ 000000018004c8f0 f   concurrent_queue_v2.obj
 0001:0004ba50       ??1concurrent_queue_iterator_base@internal@tbb@@IEAA@XZ 000000018004ca50 f   concurrent_queue_v2.obj
 0001:0004bb60       ?push@micro_queue@internal@tbb@@QEAAXPEBX_KAEAVconcurrent_queue_base@23@@Z 000000018004cb60 f   concurrent_queue_v2.obj
 0001:0004bdc0       ?pop@micro_queue@internal@tbb@@QEAA_NPEAX_KAEAVconcurrent_queue_base@23@@Z 000000018004cdc0 f   concurrent_queue_v2.obj
 0001:0004bf90       ??$to_bits@PEAUpage@concurrent_queue_base@internal@tbb@@@?$atomic_impl@PEAUpage@concurrent_queue_base@internal@tbb@@@internal@tbb@@CA_JPEAUpage@concurrent_queue_base@12@@Z 000000018004cf90 f i concurrent_queue_v2.obj
 0001:0004bfd0       ??$to_bits_ref@PEAUpage@concurrent_queue_base@internal@tbb@@@?$atomic_impl@PEAUpage@concurrent_queue_base@internal@tbb@@@internal@tbb@@CAAEA_JAEAPEAUpage@concurrent_queue_base@12@@Z 000000018004cfd0 f i concurrent_queue_v2.obj
 0001:0004c010       ??$to_bits_ref@SEAUpage@concurrent_queue_base@internal@tbb@@@?$atomic_impl@PEAUpage@concurrent_queue_base@internal@tbb@@@internal@tbb@@CAAEA_JAEDSEAUpage@concurrent_queue_base@12@@Z 000000018004d010 f i concurrent_queue_v2.obj
 0001:0004c050       ??$to_value@PEAUpage@concurrent_queue_base@internal@tbb@@@?$atomic_impl@PEAUpage@concurrent_queue_base@internal@tbb@@@internal@tbb@@CAPEAUpage@concurrent_queue_base@12@_J@Z 000000018004d050 f i concurrent_queue_v2.obj
 0001:0004c0b0       ??0?$converter@PEAUpage@concurrent_queue_base@internal@tbb@@@?$atomic_impl@PEAUpage@concurrent_queue_base@internal@tbb@@@internal@tbb@@QEAA@PEAUpage@concurrent_queue_base@23@@Z 000000018004d0b0 f i concurrent_queue_v2.obj
 0001:0004c0d0       ??0?$converter@PEAUpage@concurrent_queue_base@internal@tbb@@@?$atomic_impl@PEAUpage@concurrent_queue_base@internal@tbb@@@internal@tbb@@QEAA@XZ 000000018004d0d0 f i concurrent_queue_v2.obj
 0001:0004c0e0       ??0?$ptr_converter@PEAPEAUpage@concurrent_queue_base@internal@tbb@@@?$atomic_impl@PEAUpage@concurrent_queue_base@internal@tbb@@@internal@tbb@@QEAA@PEAPEAUpage@concurrent_queue_base@23@@Z 000000018004d0e0 f i concurrent_queue_v2.obj
 0001:0004c100       ??0?$ptr_converter@PEDSEAUpage@concurrent_queue_base@internal@tbb@@@?$atomic_impl@PEAUpage@concurrent_queue_base@internal@tbb@@@internal@tbb@@QEAA@PEDSEAUpage@concurrent_queue_base@23@@Z 000000018004d100 f i concurrent_queue_v2.obj
 0001:0004c120       ??0concurrent_queue_iterator_rep@internal@tbb@@QEAA@AEBVconcurrent_queue_base@12@@Z 000000018004d120 f i concurrent_queue_v2.obj
 0001:0004c1d0       ??0pop_finalizer@micro_queue@internal@tbb@@QEAA@AEAU123@_KPEAUpage@concurrent_queue_base@23@@Z 000000018004d1d0 f i concurrent_queue_v2.obj
 0001:0004c240       ??0push_finalizer@micro_queue@internal@tbb@@QEAA@AEAU123@_K@Z 000000018004d240 f i concurrent_queue_v2.obj
 0001:0004c2a0       ??1pop_finalizer@micro_queue@internal@tbb@@QEAA@XZ 000000018004d2a0 f i concurrent_queue_v2.obj
 0001:0004c3b0       ??1push_finalizer@micro_queue@internal@tbb@@QEAA@XZ 000000018004d3b0 f i concurrent_queue_v2.obj
 0001:0004c400       ??4?$atomic@PEAUpage@concurrent_queue_base@internal@tbb@@@tbb@@QEAAPEAUpage@concurrent_queue_base@internal@1@PEAU2341@@Z 000000018004d400 f i concurrent_queue_v2.obj
 0001:0004c440       ??B?$atomic_impl@PEAUpage@concurrent_queue_base@internal@tbb@@@internal@tbb@@QEDAPEAUpage@concurrent_queue_base@12@XZ 000000018004d440 f i concurrent_queue_v2.obj
 0001:0004c490       ??_Econcurrent_queue_base@internal@tbb@@MEAAPEAXI@Z 000000018004d490 f i concurrent_queue_v2.obj
 0001:0004c490       ??_Gconcurrent_queue_base@internal@tbb@@MEAAPEAXI@Z 000000018004d490 f i concurrent_queue_v2.obj
 0001:0004c4f0       ?choose@concurrent_queue_iterator_rep@internal@tbb@@QEAAPEAX_K@Z 000000018004d4f0 f i concurrent_queue_v2.obj
 0001:0004c5e0       ?store_with_release@?$atomic_impl@PEAUpage@concurrent_queue_base@internal@tbb@@@internal@tbb@@IEAAPEAUpage@concurrent_queue_base@23@PEAU4523@@Z 000000018004d5e0 f i concurrent_queue_v2.obj
 0001:0004c640       ?internal_itt_releasing@spin_rw_mutex@tbb@@CAXPEAV12@@Z 000000018004d640 f   spin_rw_mutex_v2.obj
 0001:0004c6b0       ?internal_acquire_writer@spin_rw_mutex@tbb@@CA_NPEAV12@@Z 000000018004d6b0 f   spin_rw_mutex_v2.obj
 0001:0004c7e0       ?internal_release_writer@spin_rw_mutex@tbb@@CAXPEAV12@@Z 000000018004d7e0 f   spin_rw_mutex_v2.obj
 0001:0004c860       ?internal_acquire_reader@spin_rw_mutex@tbb@@CAXPEAV12@@Z 000000018004d860 f   spin_rw_mutex_v2.obj
 0001:0004c990       ?internal_upgrade@spin_rw_mutex@tbb@@CA_NPEAV12@@Z 000000018004d990 f   spin_rw_mutex_v2.obj
 0001:0004cb80       ?internal_downgrade@spin_rw_mutex@tbb@@CAXPEAV12@@Z 000000018004db80 f   spin_rw_mutex_v2.obj
 0001:0004cc70       ?internal_release_reader@spin_rw_mutex@tbb@@CAXPEAV12@@Z 000000018004dc70 f   spin_rw_mutex_v2.obj
 0001:0004cd30       ?internal_try_acquire_writer@spin_rw_mutex@tbb@@CA_NPEAV12@@Z 000000018004dd30 f   spin_rw_mutex_v2.obj
 0001:0004cdb0       ?internal_try_acquire_reader@spin_rw_mutex@tbb@@CA_NPEAV12@@Z 000000018004ddb0 f   spin_rw_mutex_v2.obj
 0001:0004cf90       ??$as_atomic@$$CC_K@internal@tbb@@YAAEAU?$atomic@$$CC_K@1@AEC_K@Z 000000018004df90 f i spin_rw_mutex_v2.obj
 0001:0004cfa0       ??$compare_and_swap@$0A@@?$atomic_impl@$$CC_K@internal@tbb@@QEAA?C_K_K0@Z 000000018004dfa0 f i spin_rw_mutex_v2.obj
 0001:0004d010       ??$to_bits@_K@?$atomic_impl@$$CC_K@internal@tbb@@CA_J_K@Z 000000018004e010 f i spin_rw_mutex_v2.obj
 0001:0004d050       ??$to_value@$$CC_K@?$atomic_impl@$$CC_K@internal@tbb@@CA?C_K_J@Z 000000018004e050 f i spin_rw_mutex_v2.obj
 0001:0004d0b0       ??0?$converter@$$CC_K@?$atomic_impl@$$CC_K@internal@tbb@@QEAA@XZ 000000018004e0b0 f i spin_rw_mutex_v2.obj
 0001:0004d0c0       ??0?$converter@_K@?$atomic_impl@$$CC_K@internal@tbb@@QEAA@_K@Z 000000018004e0c0 f i spin_rw_mutex_v2.obj
 0001:0004d0e0       ?compare_and_swap@?$atomic_impl@$$CC_K@internal@tbb@@QEAA?C_K_K0@Z 000000018004e0e0 f i spin_rw_mutex_v2.obj
 0001:0004d130       ?destroy@task@tbb@@QEAAXAEAV12@@Z 000000018004e130 f   task_v2.obj
 0001:0004d163       SwitchToThread             000000018004e163 f   kernel32:KERNEL32.dll
 0001:0004d169       CloseHandle                000000018004e169 f   kernel32:KERNEL32.dll
 0001:0004d16f       SetEvent                   000000018004e16f f   kernel32:KERNEL32.dll
 0001:0004d175       WaitForSingleObjectEx      000000018004e175 f   kernel32:KERNEL32.dll
 0001:0004d17b       GetLastError               000000018004e17b f   kernel32:KERNEL32.dll
 0001:0004d181       SetErrorMode               000000018004e181 f   kernel32:KERNEL32.dll
 0001:0004d187       FreeLibrary                000000018004e187 f   kernel32:KERNEL32.dll
 0001:0004d18d       GetModuleFileNameA         000000018004e18d f   kernel32:KERNEL32.dll
 0001:0004d193       GetModuleHandleExA         000000018004e193 f   kernel32:KERNEL32.dll
 0001:0004d199       GetProcAddress             000000018004e199 f   kernel32:KERNEL32.dll
 0001:0004d19f       LoadLibraryA               000000018004e19f f   kernel32:KERNEL32.dll
 0001:0004d1a5       GetEnvironmentVariableA    000000018004e1a5 f   kernel32:KERNEL32.dll
 0001:0004d1ab       InitializeCriticalSection  000000018004e1ab f   kernel32:KERNEL32.dll
 0001:0004d1b1       EnterCriticalSection       000000018004e1b1 f   kernel32:KERNEL32.dll
 0001:0004d1b7       LeaveCriticalSection       000000018004e1b7 f   kernel32:KERNEL32.dll
 0001:0004d1bd       GetCurrentThreadId         000000018004e1bd f   kernel32:KERNEL32.dll
 0001:0004d1c3       lstrcmpA                   000000018004e1c3 f   kernel32:KERNEL32.dll
 0001:0004d1c9       ReleaseSemaphore           000000018004e1c9 f   kernel32:KERNEL32.dll
 0001:0004d1cf       TlsAlloc                   000000018004e1cf f   kernel32:KERNEL32.dll
 0001:0004d1d5       TlsGetValue                000000018004e1d5 f   kernel32:KERNEL32.dll
 0001:0004d1db       TlsSetValue                000000018004e1db f   kernel32:KERNEL32.dll
 0001:0004d1e1       TlsFree                    000000018004e1e1 f   kernel32:KERNEL32.dll
 0001:0004d1e7       CreateSemaphoreW           000000018004e1e7 f   kernel32:KERNEL32.dll
 0001:0004d1ed       InitializeCriticalSectionAndSpinCount 000000018004e1ed f   kernel32:KERNEL32.dll
 0001:0004d1f3       TryEnterCriticalSection    000000018004e1f3 f   kernel32:KERNEL32.dll
 0001:0004d1f9       DeleteCriticalSection      000000018004e1f9 f   kernel32:KERNEL32.dll
 0001:0004d1ff       SetLastError               000000018004e1ff f   kernel32:KERNEL32.dll
 0001:0004d205       QueryPerformanceFrequency  000000018004e205 f   kernel32:KERNEL32.dll
 0001:0004d20b       ResetEvent                 000000018004e20b f   kernel32:KERNEL32.dll
 0001:0004d211       CreateEventA               000000018004e211 f   kernel32:KERNEL32.dll
 0001:0004d217       QueryPerformanceCounter    000000018004e217 f   kernel32:KERNEL32.dll
 0001:0004d21d       Sleep                      000000018004e21d f   kernel32:KERNEL32.dll
 0001:0004d223       ResumeThread               000000018004e223 f   kernel32:KERNEL32.dll
 0001:0004d229       FormatMessageA             000000018004e229 f   kernel32:KERNEL32.dll
 0001:0004d22f       GetCurrentProcess          000000018004e22f f   kernel32:KERNEL32.dll
 0001:0004d235       GetCurrentThread           000000018004e235 f   kernel32:KERNEL32.dll
 0001:0004d23b       GetNativeSystemInfo        000000018004e23b f   kernel32:KERNEL32.dll
 0001:0004d241       GetProcessAffinityMask     000000018004e241 f   kernel32:KERNEL32.dll
 0001:0004d247       CreateEventW               000000018004e247 f   kernel32:KERNEL32.dll
 0001:0004d24d       ?__ExceptionPtrCreate@@YAXPEAX@Z 000000018004e24d f   msvcprtd:MSVCP140D.dll
 0001:0004d253       ?__ExceptionPtrDestroy@@YAXPEAX@Z 000000018004e253 f   msvcprtd:MSVCP140D.dll
 0001:0004d259       ?__ExceptionPtrCopy@@YAXPEAXPEBX@Z 000000018004e259 f   msvcprtd:MSVCP140D.dll
 0001:0004d25f       ?__ExceptionPtrCurrentException@@YAXPEAX@Z 000000018004e25f f   msvcprtd:MSVCP140D.dll
 0001:0004d265       ?__ExceptionPtrCopyException@@YAXPEAXPEBX1@Z 000000018004e265 f   msvcprtd:MSVCP140D.dll
 0001:0004d26b       ??0_Lockit@std@@QEAA@H@Z   000000018004e26b f   msvcprtd:MSVCP140D.dll
 0001:0004d271       ??1_Lockit@std@@QEAA@XZ    000000018004e271 f   msvcprtd:MSVCP140D.dll
 0001:0004d277       ?__ExceptionPtrRethrow@@YAXPEBX@Z 000000018004e277 f   msvcprtd:MSVCP140D.dll
 0001:0004d27d       ?_Xlength_error@std@@YAXPEBD@Z 000000018004e27d f   msvcprtd:MSVCP140D.dll
 0001:0004d290       _RTC_AllocaHelper          000000018004e290 f   MSVCRTD:stack.obj
 0001:0004d2d0       _RTC_CheckStackVars        000000018004e2d0 f   MSVCRTD:stack.obj
 0001:0004d360       _RTC_CheckStackVars2       000000018004e360 f   MSVCRTD:stack.obj
 0001:0004d470       _CRT_RTC_INIT              000000018004e470 f   MSVCRTD:init.obj
 0001:0004d480       _CRT_RTC_INITW             000000018004e480 f   MSVCRTD:init.obj
 0001:0004d490       _RTC_InitBase              000000018004e490 f   MSVCRTD:init.obj
 0001:0004d4d0       _RTC_Shutdown              000000018004e4d0 f   MSVCRTD:init.obj
 0001:0004d500       ??3@YAXPEAX_K@Z            000000018004e500 f   MSVCRTD:delete_scalar_size.obj
 0001:0004d520       __GSHandlerCheck_EH        000000018004e520 f   MSVCRTD:gshandlereh.obj
 0001:0004d5e0       __security_check_cookie    000000018004e5e0 f   MSVCRTD:amdsecgs.obj
 0001:0004d610       ??1type_info@@UEAA@XZ      000000018004e610 f   MSVCRTD:std_type_info_static.obj
 0001:0004d630       ??_Etype_info@@UEAAPEAXI@Z 000000018004e630 f i MSVCRTD:std_type_info_static.obj
 0001:0004d630       ??_Gtype_info@@UEAAPEAXI@Z 000000018004e630 f i MSVCRTD:std_type_info_static.obj
 0001:0004d670       ??_M@YAXPEAX_K1P6AX0@Z@Z   000000018004e670 f   MSVCRTD:ehvecdtr.obj
 0001:0004d730       ??_M@YAXPEAX_KHP6AX0@Z@Z   000000018004e730 f   MSVCRTD:ehvecdtr.obj
 0001:0004d7b0       ?__ArrayUnwind@@YAXPEAX_K1P6AX0@Z@Z 000000018004e7b0 f   MSVCRTD:ehvecdtr.obj
 0001:0004d830       __GSHandlerCheck           000000018004e830 f   MSVCRTD:gshandler.obj
 0001:0004d870       __GSHandlerCheckCommon     000000018004e870 f   MSVCRTD:gshandler.obj
 0001:0004d970       __raise_securityfailure    000000018004e970 f   MSVCRTD:gs_report.obj
 0001:0004d9b0       __report_gsfailure         000000018004e9b0 f   MSVCRTD:gs_report.obj
 0001:0004da90       __report_rangecheckfailure 000000018004ea90 f   MSVCRTD:gs_report.obj
 0001:0004dab0       __report_securityfailure   000000018004eab0 f   MSVCRTD:gs_report.obj
 0001:0004db50       __report_securityfailureEx 000000018004eb50 f   MSVCRTD:gs_report.obj
 0001:0004ddc0       ??2@YAPEAX_K@Z             000000018004edc0 f   MSVCRTD:new_scalar.obj
 0001:0004de20       __chkstk                   000000018004ee20 f   MSVCRTD:chkstk.obj
 0001:0004de20       _alloca_probe              000000018004ee20 f   MSVCRTD:chkstk.obj
 0001:0004de80       ?__scrt_initialize_type_info@@YAXXZ 000000018004ee80 f   MSVCRTD:tncleanup.obj
 0001:0004dea0       ?__scrt_uninitialize_type_info@@YAXXZ 000000018004eea0 f   MSVCRTD:tncleanup.obj
 0001:0004dec0       ??_L@YAXPEAX_K1P6AX0@Z2@Z  000000018004eec0 f   MSVCRTD:ehvecctr.obj
 0001:0004df60       ??_L@YAXPEAX_KHP6AX0@Z2@Z  000000018004ef60 f   MSVCRTD:ehvecctr.obj
 0001:0004dfb0       ??_U@YAPEAX_K@Z            000000018004efb0 f   MSVCRTD:new_array.obj
 0001:0004dfd0       ??_V@YAXPEAX_K@Z           000000018004efd0 f   MSVCRTD:delete_array_size.obj
 0001:0004dff0       ??$__crt_fast_decode_pointer@PEAP6AXXZ@@YAPEAP6AXXZQEAP6AXXZ@Z 000000018004eff0 f i MSVCRTD:utility.obj
 0001:0004e030       ??$__crt_fast_encode_pointer@PEAP6AXXZ@@YAPEAP6AXXZQEAP6AXXZ@Z 000000018004f030 f i MSVCRTD:utility.obj
 0001:0004e070       ?__crt_rotate_pointer_value@@YA_K_KH@Z 000000018004f070 f i MSVCRTD:utility.obj
 0001:0004e090       ?configure_argv@__scrt_narrow_argv_policy@@SAHXZ 000000018004f090 f i MSVCRTD:utility.obj
 0001:0004e180       ?initialize_environment@__scrt_narrow_environment_policy@@SAHXZ 000000018004f180 f i MSVCRTD:utility.obj
 0001:0004e220       __scrt_acquire_startup_lock 000000018004f220 f   MSVCRTD:utility.obj
 0001:0004e290       __scrt_dllmain_after_initialize_c 000000018004f290 f   MSVCRTD:utility.obj
 0001:0004e2c0       __scrt_dllmain_before_initialize_c 000000018004f2c0 f   MSVCRTD:utility.obj
 0001:0004e2e0       __scrt_dllmain_crt_thread_attach 000000018004f2e0 f   MSVCRTD:utility.obj
 0001:0004e310       __scrt_dllmain_crt_thread_detach 000000018004f310 f   MSVCRTD:utility.obj
 0001:0004e330       __scrt_dllmain_exception_filter 000000018004f330 f   MSVCRTD:utility.obj
 0001:0004e390       __scrt_dllmain_uninitialize_c 000000018004f390 f   MSVCRTD:utility.obj
 0001:0004e3c0       __scrt_dllmain_uninitialize_critical 000000018004f3c0 f   MSVCRTD:utility.obj
 0001:0004e3e0       __scrt_initialize_crt      000000018004f3e0 f   MSVCRTD:utility.obj
 0001:0004e430       __scrt_initialize_onexit_tables 000000018004f430 f   MSVCRTD:utility.obj
 0001:0004e540       __scrt_is_nonwritable_in_current_image 000000018004f540 f   MSVCRTD:utility.obj
 0001:0004e5d0       __scrt_release_startup_lock 000000018004f5d0 f   MSVCRTD:utility.obj
 0001:0004e600       __scrt_uninitialize_crt    000000018004f600 f   MSVCRTD:utility.obj
 0001:0004e640       _onexit                    000000018004f640 f   MSVCRTD:utility.obj
 0001:0004e6d0       at_quick_exit              000000018004f6d0 f   MSVCRTD:utility.obj
 0001:0004e720       atexit                     000000018004f720 f   MSVCRTD:utility.obj
 0001:0004e760       ??3@YAXPEAX@Z              000000018004f760 f   MSVCRTD:delete_scalar.obj
 0001:0004eb70       _CRT_INIT                  000000018004fb70 f   MSVCRTD:dll_dllmain.obj
 0001:0004eba0       _DllMainCRTStartup         000000018004fba0 f   MSVCRTD:dll_dllmain.obj
 0001:0004ec70       ?_RTC_AllocaFailure@@YAXPEAXPEAU_RTC_ALLOCA_NODE@@H@Z 000000018004fc70 f   MSVCRTD:error.obj
 0001:0004edd0       ?_RTC_Failure@@YAXPEAXH@Z  000000018004fdd0 f   MSVCRTD:error.obj
 0001:0004ee20       ?_RTC_StackFailure@@YAXPEAXPEBD@Z 000000018004fe20 f   MSVCRTD:error.obj
 0001:0004f250       _RTC_UninitUse             0000000180050250 f   MSVCRTD:error.obj
 0001:0004f320       _vsprintf_s_l              0000000180050320 f i MSVCRTD:error.obj
 0001:0004f390       sprintf_s                  0000000180050390 f i MSVCRTD:error.obj
 0001:0004f3c0       ?_RTC_GetErrorFunc@@YAP6AHHPEBDH00ZZPEBX@Z 00000001800503c0 f   MSVCRTD:userapi.obj
 0001:0004f3d0       ?_RTC_GetErrorFuncW@@YAP6AHHPEB_WH00ZZPEBX@Z 00000001800503d0 f   MSVCRTD:userapi.obj
 0001:0004f3e0       _RTC_GetErrDesc            00000001800503e0 f   MSVCRTD:userapi.obj
 0001:0004f400       _RTC_NumErrors             0000000180050400 f   MSVCRTD:userapi.obj
 0001:0004f410       _RTC_SetErrorFunc          0000000180050410 f   MSVCRTD:userapi.obj
 0001:0004f430       _RTC_SetErrorFuncW         0000000180050430 f   MSVCRTD:userapi.obj
 0001:0004f450       _RTC_SetErrorType          0000000180050450 f   MSVCRTD:userapi.obj
 0001:0004f470       _guard_check_icall_nop     0000000180050470 f i MSVCRTD:guard_support.obj
 0001:0004f480       ReadNoFence64              0000000180050480 f i MSVCRTD:guard_support.obj
 0001:0004f4a0       ReadPointerNoFence         00000001800504a0 f i MSVCRTD:guard_support.obj
 0001:0004f4c0       _guard_icall_checks_enforced 00000001800504c0 f i MSVCRTD:guard_support.obj
 0001:0004f500       _guard_rf_checks_enforced  0000000180050500 f i MSVCRTD:guard_support.obj
 0001:0004f510       ??0bad_alloc@std@@AEAA@QEBD@Z 0000000180050510 f i MSVCRTD:throw_bad_alloc.obj
 0001:0004f550       ??0bad_array_new_length@std@@QEAA@AEBV01@@Z 0000000180050550 f i MSVCRTD:throw_bad_alloc.obj
 0001:0004f590       ??0bad_array_new_length@std@@QEAA@XZ 0000000180050590 f i MSVCRTD:throw_bad_alloc.obj
 0001:0004f5d0       ??1bad_array_new_length@std@@UEAA@XZ 00000001800505d0 f i MSVCRTD:throw_bad_alloc.obj
 0001:0004f5f0       ??_Gbad_array_new_length@std@@UEAAPEAXI@Z 00000001800505f0 f i MSVCRTD:throw_bad_alloc.obj
 0001:0004f5f0       ??_Ebad_array_new_length@std@@UEAAPEAXI@Z 00000001800505f0 f i MSVCRTD:throw_bad_alloc.obj
 0001:0004f630       ?__scrt_throw_std_bad_alloc@@YAXXZ 0000000180050630 f   MSVCRTD:throw_bad_alloc.obj
 0001:0004f660       ?__scrt_throw_std_bad_array_new_length@@YAXXZ 0000000180050660 f   MSVCRTD:throw_bad_alloc.obj
 0001:0004f690       ??_V@YAXPEAX@Z             0000000180050690 f   MSVCRTD:delete_array.obj
 0001:0004f6b0       __isa_available_init       00000001800506b0 f   MSVCRTD:cpu_disp.obj
 0001:0004fa20       _get_startup_argv_mode     0000000180050a20 f   MSVCRTD:argv_mode.obj
 0001:0004fa30       __scrt_is_ucrt_dll_in_use  0000000180050a30 f   MSVCRTD:ucrt_detection.obj
 0001:0004fa60       __crt_debugger_hook        0000000180050a60 f   MSVCRTD:utility_desktop.obj
 0001:0004fa70       __scrt_fastfail            0000000180050a70 f   MSVCRTD:utility_desktop.obj
 0001:0004fc10       __scrt_get_show_window_mode 0000000180050c10 f   MSVCRTD:utility_desktop.obj
 0001:0004fc70       __scrt_initialize_mta      0000000180050c70 f   MSVCRTD:utility_desktop.obj
 0001:0004fc80       __scrt_initialize_winrt    0000000180050c80 f   MSVCRTD:utility_desktop.obj
 0001:0004fc90       __scrt_is_managed_app      0000000180050c90 f   MSVCRTD:utility_desktop.obj
 0001:0004fd40       __scrt_set_unhandled_exception_filter 0000000180050d40 f   MSVCRTD:utility_desktop.obj
 0001:0004fd60       __scrt_exe_initialize_mta  0000000180050d60 f   MSVCRTD:utility_desktop.obj
 0001:0004fd60       __scrt_stub_for_initialize_mta 0000000180050d60 f   MSVCRTD:utility_desktop.obj
 0001:0004fd70       __scrt_unhandled_exception_filter 0000000180050d70 f   MSVCRTD:utility_desktop.obj
 0001:0004feb0       __security_init_cookie     0000000180050eb0 f   MSVCRTD:gs_support.obj
 0001:0004ff30       __local_stdio_scanf_options 0000000180050f30 f i MSVCRTD:default_local_stdio_options.obj
 0001:0004ff40       __scrt_initialize_default_local_stdio_options 0000000180050f40 f   MSVCRTD:default_local_stdio_options.obj
 0001:0004ff90       __scrt_get_dyn_tls_init_callback 0000000180050f90 f   MSVCRTD:dyn_tls_init.obj
 0001:0004ffa0       _RTC_Initialize            0000000180050fa0 f   MSVCRTD:initsect.obj
 0001:0004fff0       _RTC_Terminate             0000000180050ff0 f   MSVCRTD:initsect.obj
 0001:00050550       ?_RTC_GetSrcLine@@YAHPEAEPEA_WKPEAH1K@Z 0000000180051550 f   MSVCRTD:pdblkup.obj
 0001:00050920       _purecall                  0000000180051920 f   vcruntimed:VCRUNTIME140D.dll
 0001:00050926       memset                     0000000180051926 f   vcruntimed:VCRUNTIME140D.dll
 0001:0005092c       _CxxThrowException         000000018005192c f   vcruntimed:VCRUNTIME140D.dll
 0001:00050932       __CxxFrameHandler3         0000000180051932 f   vcruntimed:VCRUNTIME140D.dll
 0001:00050938       strrchr                    0000000180051938 f   vcruntimed:VCRUNTIME140D.dll
 0001:0005093e       __std_exception_copy       000000018005193e f   vcruntimed:VCRUNTIME140D.dll
 0001:00050944       __std_exception_destroy    0000000180051944 f   vcruntimed:VCRUNTIME140D.dll
 0001:0005094a       __RTtypeid                 000000018005194a f   vcruntimed:VCRUNTIME140D.dll
 0001:00050950       __std_type_info_name       0000000180051950 f   vcruntimed:VCRUNTIME140D.dll
 0001:00050956       __RTDynamicCast            0000000180051956 f   vcruntimed:VCRUNTIME140D.dll
 0001:0005095c       memcpy                     000000018005195c f   vcruntimed:VCRUNTIME140D.dll
 0001:00050962       __C_specific_handler       0000000180051962 f   vcruntimed:VCRUNTIME140D.dll
 0001:00050968       __std_type_info_destroy_list 0000000180051968 f   vcruntimed:VCRUNTIME140D.dll
 0001:0005096e       __C_specific_handler_noexcept 000000018005196e f   vcruntimed:VCRUNTIME140D.dll
 0001:00050974       __vcrt_GetModuleFileNameW  0000000180051974 f   vcruntimed:VCRUNTIME140D.dll
 0001:0005097a       __vcrt_GetModuleHandleW    000000018005197a f   vcruntimed:VCRUNTIME140D.dll
 0001:00050980       __vcrt_LoadLibraryExW      0000000180051980 f   vcruntimed:VCRUNTIME140D.dll
 0001:00050986       _invalid_parameter         0000000180051986 f   ucrtd:ucrtbased.dll
 0001:0005098c       _CrtDbgReport              000000018005198c f   ucrtd:ucrtbased.dll
 0001:00050992       strcat                     0000000180051992 f   ucrtd:ucrtbased.dll
 0001:00050998       strcpy                     0000000180051998 f   ucrtd:ucrtbased.dll
 0001:0005099e       strlen                     000000018005199e f   ucrtd:ucrtbased.dll
 0001:000509a4       _wcsdup                    00000001800519a4 f   ucrtd:ucrtbased.dll
 0001:000509aa       wcscmp                     00000001800519aa f   ucrtd:ucrtbased.dll
 0001:000509b0       strncpy_s                  00000001800519b0 f   ucrtd:ucrtbased.dll
 0001:000509b6       _strdup                    00000001800519b6 f   ucrtd:ucrtbased.dll
 0001:000509bc       malloc                     00000001800519bc f   ucrtd:ucrtbased.dll
 0001:000509c2       free                       00000001800519c2 f   ucrtd:ucrtbased.dll
 0001:000509c8       _beginthreadex             00000001800519c8 f   ucrtd:ucrtbased.dll
 0001:000509ce       _errno                     00000001800519ce f   ucrtd:ucrtbased.dll
 0001:000509d4       exit                       00000001800519d4 f   ucrtd:ucrtbased.dll
 0001:000509da       __acrt_iob_func            00000001800519da f   ucrtd:ucrtbased.dll
 0001:000509e0       __stdio_common_vfprintf    00000001800519e0 f   ucrtd:ucrtbased.dll
 0001:000509e6       fputs                      00000001800519e6 f   ucrtd:ucrtbased.dll
 0001:000509ec       __stdio_common_vsprintf    00000001800519ec f   ucrtd:ucrtbased.dll
 0001:000509f2       strerror                   00000001800519f2 f   ucrtd:ucrtbased.dll
 0001:000509f8       strncpy                    00000001800519f8 f   ucrtd:ucrtbased.dll
 0001:000509fe       getenv                     00000001800519fe f   ucrtd:ucrtbased.dll
 0001:00050a04       strspn                     0000000180051a04 f   ucrtd:ucrtbased.dll
 0001:00050a0a       _CrtDbgReportW             0000000180051a0a f   ucrtd:ucrtbased.dll
 0001:00050a10       terminate                  0000000180051a10 f   ucrtd:ucrtbased.dll
 0001:00050a16       _callnewh                  0000000180051a16 f   ucrtd:ucrtbased.dll
 0001:00050a1c       _seh_filter_dll            0000000180051a1c f   ucrtd:ucrtbased.dll
 0001:00050a22       _configure_narrow_argv     0000000180051a22 f   ucrtd:ucrtbased.dll
 0001:00050a28       _initialize_narrow_environment 0000000180051a28 f   ucrtd:ucrtbased.dll
 0001:00050a2e       _initialize_onexit_table   0000000180051a2e f   ucrtd:ucrtbased.dll
 0001:00050a34       _register_onexit_function  0000000180051a34 f   ucrtd:ucrtbased.dll
 0001:00050a3a       _execute_onexit_table      0000000180051a3a f   ucrtd:ucrtbased.dll
 0001:00050a40       _crt_atexit                0000000180051a40 f   ucrtd:ucrtbased.dll
 0001:00050a46       _crt_at_quick_exit         0000000180051a46 f   ucrtd:ucrtbased.dll
 0001:00050a4c       _cexit                     0000000180051a4c f   ucrtd:ucrtbased.dll
 0001:00050a52       _free_dbg                  0000000180051a52 f   ucrtd:ucrtbased.dll
 0001:00050a58       _initterm                  0000000180051a58 f   ucrtd:ucrtbased.dll
 0001:00050a5e       _initterm_e                0000000180051a5e f   ucrtd:ucrtbased.dll
 0001:00050a64       strcpy_s                   0000000180051a64 f   ucrtd:ucrtbased.dll
 0001:00050a6a       strcat_s                   0000000180051a6a f   ucrtd:ucrtbased.dll
 0001:00050a70       __stdio_common_vsprintf_s  0000000180051a70 f   ucrtd:ucrtbased.dll
 0001:00050a76       _wmakepath_s               0000000180051a76 f   ucrtd:ucrtbased.dll
 0001:00050a7c       _wsplitpath_s              0000000180051a7c f   ucrtd:ucrtbased.dll
 0001:00050a82       wcscpy_s                   0000000180051a82 f   ucrtd:ucrtbased.dll
 0001:00050a88       RtlCaptureContext          0000000180051a88 f   kernel32:KERNEL32.dll
 0001:00050a8e       RtlLookupFunctionEntry     0000000180051a8e f   kernel32:KERNEL32.dll
 0001:00050a94       RtlVirtualUnwind           0000000180051a94 f   kernel32:KERNEL32.dll
 0001:00050a9a       UnhandledExceptionFilter   0000000180051a9a f   kernel32:KERNEL32.dll
 0001:00050aa0       SetUnhandledExceptionFilter 0000000180051aa0 f   kernel32:KERNEL32.dll
 0001:00050aa6       TerminateProcess           0000000180051aa6 f   kernel32:KERNEL32.dll
 0001:00050aac       IsProcessorFeaturePresent  0000000180051aac f   kernel32:KERNEL32.dll
 0001:00050ab2       InitializeSListHead        0000000180051ab2 f   kernel32:KERNEL32.dll
 0001:00050ab8       IsDebuggerPresent          0000000180051ab8 f   kernel32:KERNEL32.dll
 0001:00050abe       RaiseException             0000000180051abe f   kernel32:KERNEL32.dll
 0001:00050ac4       MultiByteToWideChar        0000000180051ac4 f   kernel32:KERNEL32.dll
 0001:00050aca       WideCharToMultiByte        0000000180051aca f   kernel32:KERNEL32.dll
 0001:00050ad0       GetStartupInfoW            0000000180051ad0 f   kernel32:KERNEL32.dll
 0001:00050ad6       GetModuleHandleW           0000000180051ad6 f   kernel32:KERNEL32.dll
 0001:00050adc       GetCurrentProcessId        0000000180051adc f   kernel32:KERNEL32.dll
 0001:00050ae2       GetSystemTimeAsFileTime    0000000180051ae2 f   kernel32:KERNEL32.dll
 0001:00050ae8       HeapAlloc                  0000000180051ae8 f   kernel32:KERNEL32.dll
 0001:00050aee       HeapFree                   0000000180051aee f   kernel32:KERNEL32.dll
 0001:00050af4       GetProcessHeap             0000000180051af4 f   kernel32:KERNEL32.dll
 0001:00050afa       VirtualQuery               0000000180051afa f   kernel32:KERNEL32.dll
 0001:00050b00       __acrt_initialize          0000000180051b00 f   MSVCRTD:ucrt_stubs.obj
 0001:00050b00       __scrt_stub_for_acrt_initialize 0000000180051b00 f   MSVCRTD:ucrt_stubs.obj
 0001:00050b00       __vcrt_initialize          0000000180051b00 f   MSVCRTD:ucrt_stubs.obj
 0001:00050b10       __scrt_stub_for_acrt_thread_attach 0000000180051b10 f   MSVCRTD:ucrt_stubs.obj
 0001:00050b10       __vcrt_thread_attach       0000000180051b10 f   MSVCRTD:ucrt_stubs.obj
 0001:00050b10       __acrt_thread_attach       0000000180051b10 f   MSVCRTD:ucrt_stubs.obj
 0001:00050b20       __scrt_stub_for_acrt_thread_detach 0000000180051b20 f   MSVCRTD:ucrt_stubs.obj
 0001:00050b20       __vcrt_thread_detach       0000000180051b20 f   MSVCRTD:ucrt_stubs.obj
 0001:00050b20       __acrt_thread_detach       0000000180051b20 f   MSVCRTD:ucrt_stubs.obj
 0001:00050b30       __scrt_stub_for_acrt_uninitialize 0000000180051b30 f   MSVCRTD:ucrt_stubs.obj
 0001:00050b30       __vcrt_uninitialize        0000000180051b30 f   MSVCRTD:ucrt_stubs.obj
 0001:00050b30       __acrt_uninitialize        0000000180051b30 f   MSVCRTD:ucrt_stubs.obj
 0001:00050b40       __vcrt_uninitialize_critical 0000000180051b40 f   MSVCRTD:ucrt_stubs.obj
 0001:00050b40       __acrt_uninitialize_critical 0000000180051b40 f   MSVCRTD:ucrt_stubs.obj
 0001:00050b40       __scrt_stub_for_acrt_uninitialize_critical 0000000180051b40 f   MSVCRTD:ucrt_stubs.obj
 0001:00050b50       __scrt_stub_for_is_c_termination_complete 0000000180051b50 f   MSVCRTD:ucrt_stubs.obj
 0001:00050b50       _is_c_termination_complete 0000000180051b50 f   MSVCRTD:ucrt_stubs.obj
 0001:00050b70       _guard_dispatch_icall_nop  0000000180051b70 f   MSVCRTD:guard_dispatch.obj
 0002:00000000       __imp_SwitchToThread       0000000180054000     kernel32:KERNEL32.dll
 0002:00000008       __imp_CloseHandle          0000000180054008     kernel32:KERNEL32.dll
 0002:00000010       __imp_SetEvent             0000000180054010     kernel32:KERNEL32.dll
 0002:00000018       __imp_WaitForSingleObjectEx 0000000180054018     kernel32:KERNEL32.dll
 0002:00000020       __imp_GetLastError         0000000180054020     kernel32:KERNEL32.dll
 0002:00000028       __imp_SetErrorMode         0000000180054028     kernel32:KERNEL32.dll
 0002:00000030       __imp_FreeLibrary          0000000180054030     kernel32:KERNEL32.dll
 0002:00000038       __imp_GetModuleFileNameA   0000000180054038     kernel32:KERNEL32.dll
 0002:00000040       __imp_GetModuleHandleExA   0000000180054040     kernel32:KERNEL32.dll
 0002:00000048       __imp_GetProcAddress       0000000180054048     kernel32:KERNEL32.dll
 0002:00000050       __imp_LoadLibraryA         0000000180054050     kernel32:KERNEL32.dll
 0002:00000058       __imp_GetEnvironmentVariableA 0000000180054058     kernel32:KERNEL32.dll
 0002:00000060       __imp_InitializeCriticalSection 0000000180054060     kernel32:KERNEL32.dll
 0002:00000068       __imp_EnterCriticalSection 0000000180054068     kernel32:KERNEL32.dll
 0002:00000070       __imp_LeaveCriticalSection 0000000180054070     kernel32:KERNEL32.dll
 0002:00000078       __imp_GetCurrentThreadId   0000000180054078     kernel32:KERNEL32.dll
 0002:00000080       __imp_lstrcmpA             0000000180054080     kernel32:KERNEL32.dll
 0002:00000088       __imp_ReleaseSemaphore     0000000180054088     kernel32:KERNEL32.dll
 0002:00000090       __imp_TlsAlloc             0000000180054090     kernel32:KERNEL32.dll
 0002:00000098       __imp_TlsGetValue          0000000180054098     kernel32:KERNEL32.dll
 0002:000000a0       __imp_TlsSetValue          00000001800540a0     kernel32:KERNEL32.dll
 0002:000000a8       __imp_TlsFree              00000001800540a8     kernel32:KERNEL32.dll
 0002:000000b0       __imp_CreateSemaphoreW     00000001800540b0     kernel32:KERNEL32.dll
 0002:000000b8       __imp_InitializeCriticalSectionAndSpinCount 00000001800540b8     kernel32:KERNEL32.dll
 0002:000000c0       __imp_TryEnterCriticalSection 00000001800540c0     kernel32:KERNEL32.dll
 0002:000000c8       __imp_DeleteCriticalSection 00000001800540c8     kernel32:KERNEL32.dll
 0002:000000d0       __imp_SetLastError         00000001800540d0     kernel32:KERNEL32.dll
 0002:000000d8       __imp_QueryPerformanceFrequency 00000001800540d8     kernel32:KERNEL32.dll
 0002:000000e0       __imp_ResetEvent           00000001800540e0     kernel32:KERNEL32.dll
 0002:000000e8       __imp_CreateEventA         00000001800540e8     kernel32:KERNEL32.dll
 0002:000000f0       __imp_QueryPerformanceCounter 00000001800540f0     kernel32:KERNEL32.dll
 0002:000000f8       __imp_Sleep                00000001800540f8     kernel32:KERNEL32.dll
 0002:00000100       __imp_ResumeThread         0000000180054100     kernel32:KERNEL32.dll
 0002:00000108       __imp_FormatMessageA       0000000180054108     kernel32:KERNEL32.dll
 0002:00000110       __imp_GetCurrentProcess    0000000180054110     kernel32:KERNEL32.dll
 0002:00000118       __imp_GetCurrentThread     0000000180054118     kernel32:KERNEL32.dll
 0002:00000120       __imp_GetNativeSystemInfo  0000000180054120     kernel32:KERNEL32.dll
 0002:00000128       __imp_GetProcessAffinityMask 0000000180054128     kernel32:KERNEL32.dll
 0002:00000130       __imp_CreateEventW         0000000180054130     kernel32:KERNEL32.dll
 0002:00000138       __imp_GetProcessHeap       0000000180054138     kernel32:KERNEL32.dll
 0002:00000140       __imp_HeapFree             0000000180054140     kernel32:KERNEL32.dll
 0002:00000148       __imp_HeapAlloc            0000000180054148     kernel32:KERNEL32.dll
 0002:00000150       __imp_GetSystemTimeAsFileTime 0000000180054150     kernel32:KERNEL32.dll
 0002:00000158       __imp_GetCurrentProcessId  0000000180054158     kernel32:KERNEL32.dll
 0002:00000160       __imp_GetModuleHandleW     0000000180054160     kernel32:KERNEL32.dll
 0002:00000168       __imp_GetStartupInfoW      0000000180054168     kernel32:KERNEL32.dll
 0002:00000170       __imp_WideCharToMultiByte  0000000180054170     kernel32:KERNEL32.dll
 0002:00000178       __imp_MultiByteToWideChar  0000000180054178     kernel32:KERNEL32.dll
 0002:00000180       __imp_RaiseException       0000000180054180     kernel32:KERNEL32.dll
 0002:00000188       __imp_IsDebuggerPresent    0000000180054188     kernel32:KERNEL32.dll
 0002:00000190       __imp_InitializeSListHead  0000000180054190     kernel32:KERNEL32.dll
 0002:00000198       __imp_IsProcessorFeaturePresent 0000000180054198     kernel32:KERNEL32.dll
 0002:000001a0       __imp_TerminateProcess     00000001800541a0     kernel32:KERNEL32.dll
 0002:000001a8       __imp_SetUnhandledExceptionFilter 00000001800541a8     kernel32:KERNEL32.dll
 0002:000001b0       __imp_UnhandledExceptionFilter 00000001800541b0     kernel32:KERNEL32.dll
 0002:000001b8       __imp_RtlVirtualUnwind     00000001800541b8     kernel32:KERNEL32.dll
 0002:000001c0       __imp_RtlLookupFunctionEntry 00000001800541c0     kernel32:KERNEL32.dll
 0002:000001c8       __imp_RtlCaptureContext    00000001800541c8     kernel32:KERNEL32.dll
 0002:000001d0       __imp_VirtualQuery         00000001800541d0     kernel32:KERNEL32.dll
 0002:000001d8       \177KERNEL32_NULL_THUNK_DATA 00000001800541d8     kernel32:KERNEL32.dll
 0002:000001e0       __imp_?_Xlength_error@std@@YAXPEBD@Z 00000001800541e0     msvcprtd:MSVCP140D.dll
 0002:000001e8       __imp_?__ExceptionPtrRethrow@@YAXPEBX@Z 00000001800541e8     msvcprtd:MSVCP140D.dll
 0002:000001f0       __imp_??1_Lockit@std@@QEAA@XZ 00000001800541f0     msvcprtd:MSVCP140D.dll
 0002:000001f8       __imp_??0_Lockit@std@@QEAA@H@Z 00000001800541f8     msvcprtd:MSVCP140D.dll
 0002:00000200       __imp_?__ExceptionPtrCopyException@@YAXPEAXPEBX1@Z 0000000180054200     msvcprtd:MSVCP140D.dll
 0002:00000208       __imp_?__ExceptionPtrCurrentException@@YAXPEAX@Z 0000000180054208     msvcprtd:MSVCP140D.dll
 0002:00000210       __imp_?__ExceptionPtrCopy@@YAXPEAXPEBX@Z 0000000180054210     msvcprtd:MSVCP140D.dll
 0002:00000218       __imp_?__ExceptionPtrCreate@@YAXPEAX@Z 0000000180054218     msvcprtd:MSVCP140D.dll
 0002:00000220       __imp_?__ExceptionPtrDestroy@@YAXPEAX@Z 0000000180054220     msvcprtd:MSVCP140D.dll
 0002:00000228       \177MSVCP140D_NULL_THUNK_DATA 0000000180054228     msvcprtd:MSVCP140D.dll
 0002:00000230       __imp___vcrt_GetModuleHandleW 0000000180054230     vcruntimed:VCRUNTIME140D.dll
 0002:00000238       __imp___vcrt_GetModuleFileNameW 0000000180054238     vcruntimed:VCRUNTIME140D.dll
 0002:00000240       __imp___C_specific_handler_noexcept 0000000180054240     vcruntimed:VCRUNTIME140D.dll
 0002:00000248       __imp___std_type_info_destroy_list 0000000180054248     vcruntimed:VCRUNTIME140D.dll
 0002:00000250       __imp___C_specific_handler 0000000180054250     vcruntimed:VCRUNTIME140D.dll
 0002:00000258       __imp_memcpy               0000000180054258     vcruntimed:VCRUNTIME140D.dll
 0002:00000260       __imp___RTDynamicCast      0000000180054260     vcruntimed:VCRUNTIME140D.dll
 0002:00000268       __imp___std_type_info_name 0000000180054268     vcruntimed:VCRUNTIME140D.dll
 0002:00000270       __imp__purecall            0000000180054270     vcruntimed:VCRUNTIME140D.dll
 0002:00000278       __imp_memset               0000000180054278     vcruntimed:VCRUNTIME140D.dll
 0002:00000280       __imp__CxxThrowException   0000000180054280     vcruntimed:VCRUNTIME140D.dll
 0002:00000288       __imp___CxxFrameHandler3   0000000180054288     vcruntimed:VCRUNTIME140D.dll
 0002:00000290       __imp_strrchr              0000000180054290     vcruntimed:VCRUNTIME140D.dll
 0002:00000298       __imp___std_exception_copy 0000000180054298     vcruntimed:VCRUNTIME140D.dll
 0002:000002a0       __imp___std_exception_destroy 00000001800542a0     vcruntimed:VCRUNTIME140D.dll
 0002:000002a8       __imp___RTtypeid           00000001800542a8     vcruntimed:VCRUNTIME140D.dll
 0002:000002b0       __imp___vcrt_LoadLibraryExW 00000001800542b0     vcruntimed:VCRUNTIME140D.dll
 0002:000002b8       \177VCRUNTIME140D_NULL_THUNK_DATA 00000001800542b8     vcruntimed:VCRUNTIME140D.dll
 0002:000002c0       __imp_getenv               00000001800542c0     ucrtd:ucrtbased.dll
 0002:000002c8       __imp_strspn               00000001800542c8     ucrtd:ucrtbased.dll
 0002:000002d0       __imp__CrtDbgReportW       00000001800542d0     ucrtd:ucrtbased.dll
 0002:000002d8       __imp_terminate            00000001800542d8     ucrtd:ucrtbased.dll
 0002:000002e0       __imp__callnewh            00000001800542e0     ucrtd:ucrtbased.dll
 0002:000002e8       __imp__seh_filter_dll      00000001800542e8     ucrtd:ucrtbased.dll
 0002:000002f0       __imp__configure_narrow_argv 00000001800542f0     ucrtd:ucrtbased.dll
 0002:000002f8       __imp_strerror             00000001800542f8     ucrtd:ucrtbased.dll
 0002:00000300       __imp__initialize_onexit_table 0000000180054300     ucrtd:ucrtbased.dll
 0002:00000308       __imp__register_onexit_function 0000000180054308     ucrtd:ucrtbased.dll
 0002:00000310       __imp__execute_onexit_table 0000000180054310     ucrtd:ucrtbased.dll
 0002:00000318       __imp__crt_atexit          0000000180054318     ucrtd:ucrtbased.dll
 0002:00000320       __imp__crt_at_quick_exit   0000000180054320     ucrtd:ucrtbased.dll
 0002:00000328       __imp__cexit               0000000180054328     ucrtd:ucrtbased.dll
 0002:00000330       __imp__free_dbg            0000000180054330     ucrtd:ucrtbased.dll
 0002:00000338       __imp__initterm            0000000180054338     ucrtd:ucrtbased.dll
 0002:00000340       __imp__initterm_e          0000000180054340     ucrtd:ucrtbased.dll
 0002:00000348       __imp_strcpy_s             0000000180054348     ucrtd:ucrtbased.dll
 0002:00000350       __imp_strcat_s             0000000180054350     ucrtd:ucrtbased.dll
 0002:00000358       __imp___stdio_common_vsprintf_s 0000000180054358     ucrtd:ucrtbased.dll
 0002:00000360       __imp__wmakepath_s         0000000180054360     ucrtd:ucrtbased.dll
 0002:00000368       __imp__wsplitpath_s        0000000180054368     ucrtd:ucrtbased.dll
 0002:00000370       __imp_wcscpy_s             0000000180054370     ucrtd:ucrtbased.dll
 0002:00000378       __imp_strncpy              0000000180054378     ucrtd:ucrtbased.dll
 0002:00000380       __imp___stdio_common_vsprintf 0000000180054380     ucrtd:ucrtbased.dll
 0002:00000388       __imp_fputs                0000000180054388     ucrtd:ucrtbased.dll
 0002:00000390       __imp___stdio_common_vfprintf 0000000180054390     ucrtd:ucrtbased.dll
 0002:00000398       __imp___acrt_iob_func      0000000180054398     ucrtd:ucrtbased.dll
 0002:000003a0       __imp_exit                 00000001800543a0     ucrtd:ucrtbased.dll
 0002:000003a8       __imp__errno               00000001800543a8     ucrtd:ucrtbased.dll
 0002:000003b0       __imp__beginthreadex       00000001800543b0     ucrtd:ucrtbased.dll
 0002:000003b8       __imp_free                 00000001800543b8     ucrtd:ucrtbased.dll
 0002:000003c0       __imp_malloc               00000001800543c0     ucrtd:ucrtbased.dll
 0002:000003c8       __imp__strdup              00000001800543c8     ucrtd:ucrtbased.dll
 0002:000003d0       __imp_strncpy_s            00000001800543d0     ucrtd:ucrtbased.dll
 0002:000003d8       __imp_wcscmp               00000001800543d8     ucrtd:ucrtbased.dll
 0002:000003e0       __imp__wcsdup              00000001800543e0     ucrtd:ucrtbased.dll
 0002:000003e8       __imp_strlen               00000001800543e8     ucrtd:ucrtbased.dll
 0002:000003f0       __imp_strcpy               00000001800543f0     ucrtd:ucrtbased.dll
 0002:000003f8       __imp_strcat               00000001800543f8     ucrtd:ucrtbased.dll
 0002:00000400       __imp__CrtDbgReport        0000000180054400     ucrtd:ucrtbased.dll
 0002:00000408       __imp__invalid_parameter   0000000180054408     ucrtd:ucrtbased.dll
 0002:00000410       __imp__initialize_narrow_environment 0000000180054410     ucrtd:ucrtbased.dll
 0002:00000418       \177ucrtbased_NULL_THUNK_DATA 0000000180054418     ucrtd:ucrtbased.dll
 0002:00000420       __guard_check_icall_fptr   0000000180054420     MSVCRTD:guard_support.obj
 0002:00000428       __guard_dispatch_icall_fptr 0000000180054428     MSVCRTD:guard_support.obj
 0002:00000430       __xc_a                     0000000180054430     MSVCRTD:initializers.obj
 0002:00000478       __xc_z                     0000000180054478     MSVCRTD:initializers.obj
 0002:00000480       __xi_a                     0000000180054480     MSVCRTD:initializers.obj
 0002:00000488       __xi_z                     0000000180054488     MSVCRTD:initializers.obj
 0002:00000490       __xp_a                     0000000180054490     MSVCRTD:initializers.obj
 0002:00000498       __xp_z                     0000000180054498     MSVCRTD:initializers.obj
 0002:000004a0       __xt_a                     00000001800544a0     MSVCRTD:initializers.obj
 0002:000004a8       __xt_z                     00000001800544a8     MSVCRTD:initializers.obj
 0002:000015c0       ??_7concurrent_queue_base_v3@internal@tbb@@6B@ 00000001800555c0     concurrent_queue.obj
 0002:000015f0       ??_C@_0BG@NCNHOMPJ@the?5list?5is?5not?5empty@ 00000001800555f0     concurrent_queue.obj
 0002:00001608       ??_C@_0CF@KIMHCJNJ@head?4next?$DN?$DN?$CGhead?5?$CG?$CG?5head?4prev?$DN?$DN@ 0000000180055608     concurrent_queue.obj
 0002:00001630       ??_C@_0EM@IGJBDEFE@c?3?2users?2nick?5clark?2documents?2c@ 0000000180055630     concurrent_queue.obj
 0002:00001680       ??_C@_0CN@PJOPKBDC@attempt?5to?5remove?5an?5item?5from?5@ 0000000180055680     concurrent_queue.obj
 0002:000016b0       ??_C@_09DMMLFBJB@count?5?$DO?50@ 00000001800556b0     concurrent_queue.obj
 0002:000016c0       ??_C@_0DC@HHMBEOFF@use?5of?5commit_wait?$CI?$CJ?5without?5pr@ 00000001800556c0     concurrent_queue.obj
 0002:000016f8       ??_C@_09FABKCACJ@thr?4ready@ 00000001800556f8     concurrent_queue.obj
 0002:00001708       ??_C@_0BE@EJJDCDNJ@still?5in?5the?5queue?$DP@ 0000000180055708     concurrent_queue.obj
 0002:00001720       ??_C@_0BA@CPHLNOGI@?$CBthr?4in_waitset@ 0000000180055720     concurrent_queue.obj
 0002:00001730       ??_C@_01JBBJJEPG@p@        0000000180055730     concurrent_queue.obj
 0002:00001740       ??_C@_0EM@NOHMHMOP@c?3?2users?2nick?5clark?2documents?2c@ 0000000180055740     concurrent_queue.obj
 0002:00001790       ??_C@_0CB@NEAGOMBI@Divisor?5should?5be?5a?5power?5of?5tw@ 0000000180055790     concurrent_queue.obj
 0002:000017b8       ??_C@_0BJ@FFGCKCGK@is_power_of_two?$CIdivisor?$CJ@ 00000001800557b8     concurrent_queue.obj
 0002:000017e0       ??_C@_0EI@CANMPLMB@c?3?2users?2nick?5clark?2documents?2c@ 00000001800557e0     concurrent_queue.obj
 0002:00002b08       ??_C@_02DKCKIIND@?$CFs@    0000000180056b08     concurrent_vector.obj
 0002:00002b10       ??_C@_0GJ@EJIMBHLG@c?3?2program?5files?5?$CIx86?$CJ?2microsof@ 0000000180056b10     concurrent_vector.obj
 0002:00002b80       ??_C@_1NC@FANNPLN@?$AAc?$AA?3?$AA?2?$AAp?$AAr?$AAo?$AAg?$AAr?$AAa?$AAm?$AA?5?$AAf?$AAi?$AAl?$AAe@ 0000000180056b80     concurrent_vector.obj
 0002:00002c58       ??_C@_0CA@LKPOEAOC@should?5have?5been?5freed?5by?5clear@ 0000000180056c58     concurrent_vector.obj
 0002:00002c78       ??_C@_0CH@LPHMJFBJ@load?$DMrelaxed?$DO?$CI?$CJ?5?$CB?$DN?5segment_allo@ 0000000180056c78     concurrent_vector.obj
 0002:00002ca0       ??_C@_0EP@EAPLGPGA@c?3?2users?2nick?5clark?2documents?2c@ 0000000180056ca0     concurrent_vector.obj
 0002:00002cf0       ??_C@_0BA@LIFNIGJ@start?5?$DM?$DN?5finish@ 0000000180056cf0     concurrent_vector.obj
 0002:00002d00       ??_C@_0EN@JDICOEFH@c?3?2users?2nick?5clark?2documents?2c@ 0000000180056d00     concurrent_vector.obj
 0002:00002d50       ??_C@_0BH@JGMCJCL@first_block?5?$HM?$HM?5?$CBfinish@ 0000000180056d50     concurrent_vector.obj
 0002:00002d68       ??_C@_0O@KKLAEBPF@base?5?$DM?$DN?5start@ 0000000180056d68     concurrent_vector.obj
 0002:00002d80       ??_C@_0FN@KNAKKIKK@other?5overloads?5of?5store?5should@ 0000000180056d80     concurrent_vector.obj
 0002:00002de0       ??_C@_0EC@MHPKPLNC@segment_value_t?$CIallocated_segme@ 0000000180056de0     concurrent_vector.obj
 0002:00002e30       ??_C@_0EL@EBFKNEI@transition?5from?5?$CCallocated?$CC?5to?5@ 0000000180056e30     concurrent_vector.obj
 0002:00002e80       ??_C@_0BB@KBEKGHFK@integer?5overflow@ 0000000180056e80     concurrent_vector.obj
 0002:00002e98       ??_C@_1CM@MJCLAPGA@?$AAs?$AAt?$AAd?$AA?3?$AA?3?$AA_?$AAG?$AAe?$AAt?$AA_?$AAu?$AAn?$AAw?$AAr?$AAa@ 0000000180056e98     concurrent_vector.obj
 0002:00002ec8       ??_C@_1CG@NMONALKO@?$AA?$CC?$AAi?$AAn?$AAt?$AAe?$AAg?$AAe?$AAr?$AA?5?$AAo?$AAv?$AAe?$AAr?$AAf?$AAl@ 0000000180056ec8     concurrent_vector.obj
 0002:00002ef0       ??_C@_0CN@MJBFFPFE@cannot?5seek?5value?9initialized?5a@ 0000000180056ef0     concurrent_vector.obj
 0002:00002f20       ??_C@_1NC@FAKBNOIA@?$AAs?$AAt?$AAd?$AA?3?$AA?3?$AA_?$AAA?$AAr?$AAr?$AAa?$AAy?$AA_?$AAc?$AAo?$AAn@ 0000000180056f20     concurrent_vector.obj
 0002:00003000       ??_C@_1FO@OCIBMCIE@?$AA?$CC?$AAc?$AAa?$AAn?$AAn?$AAo?$AAt?$AA?5?$AAs?$AAe?$AAe?$AAk?$AA?5?$AAv?$AAa@ 0000000180057000     concurrent_vector.obj
 0002:00003060       ??_C@_0CI@IAJIKPDP@cannot?5seek?5array?5iterator?5befo@ 0000000180057060     concurrent_vector.obj
 0002:00003090       ??_C@_1FE@BIMEFIOA@?$AA?$CC?$AAc?$AAa?$AAn?$AAn?$AAo?$AAt?$AA?5?$AAs?$AAe?$AAe?$AAk?$AA?5?$AAa?$AAr@ 0000000180057090     concurrent_vector.obj
 0002:000030e8       ??_C@_0CF@LAPJIGDB@cannot?5seek?5array?5iterator?5afte@ 00000001800570e8     concurrent_vector.obj
 0002:00003110       ??_C@_1EO@EJLAFFGM@?$AA?$CC?$AAc?$AAa?$AAn?$AAn?$AAo?$AAt?$AA?5?$AAs?$AAe?$AAe?$AAk?$AA?5?$AAa?$AAr@ 0000000180057110     concurrent_vector.obj
 0002:00003160       ??_C@_0BJ@HAJGEHKO@transposed?5pointer?5range@ 0000000180057160     concurrent_vector.obj
 0002:00003180       ??_C@_1CG@LJCPDKEJ@?$AAs?$AAt?$AAd?$AA?3?$AA?3?$AA_?$AAV?$AAe?$AAr?$AAi?$AAf?$AAy?$AA_?$AAr?$AAa@ 0000000180057180     concurrent_vector.obj
 0002:000031a8       ??_C@_1DG@FJIKMGFD@?$AA?$CC?$AAt?$AAr?$AAa?$AAn?$AAs?$AAp?$AAo?$AAs?$AAe?$AAd?$AA?5?$AAp?$AAo?$AAi@ 00000001800571a8     concurrent_vector.obj
 0002:000036a0       ??_C@_0BM@JGJMBPHJ@Too?5many?5modules?5are?5loaded@ 00000001800576a0     dynamic_link.obj
 0002:000036c0       ??_C@_07EJHLHDPE@ind?5?$DM?58@ 00000001800576c0     dynamic_link.obj
 0002:000036d0       ??_C@_0EI@DMLGHJPK@c?3?2users?2nick?5clark?2documents?2c@ 00000001800576d0     dynamic_link.obj
 0002:00006a28       ??_7task@tbb@@6B@          000000018005aa28     pipeline.obj
 0002:00006a40       ??_C@_0BF@FLEJEMAB@execute?5not?5running?$DP@ 000000018005aa40     pipeline.obj
 0002:00006a58       ??_C@_0BK@BLKDHJIK@prefix?$CI?$CJ?4state?$DN?$DNexecuting@ 000000018005aa58     pipeline.obj
 0002:00006a80       ??_C@_0EC@JBJINLOK@c?3?2users?2nick?5clark?2documents?2c@ 000000018005aa80     pipeline.obj
 0002:00006ad0       ??_7filter@tbb@@6B@        000000018005aad0     pipeline.obj
 0002:00006af0       ??_7pipeline@tbb@@6B@      000000018005aaf0     pipeline.obj
 0002:00006af8       ??_C@_07DEMLHIDL@?$CBmy_sem@ 000000018005aaf8     pipeline.obj
 0002:00006b00       ??_C@_0EE@LHAHKPHL@c?3?2users?2nick?5clark?2documents?2c@ 000000018005ab00     pipeline.obj
 0002:00006b44       ??_C@_06PJFJBKOE@my_sem@   000000018005ab44     pipeline.obj
 0002:00006b4c       ??_C@_05HIFJDKLD@array@    000000018005ab4c     pipeline.obj
 0002:00006b58       ??_C@_0CC@OJFIPBCH@?$CItokendiff_t?$CJ?$CItoken?9low_token?$CJ?$DO@ 000000018005ab58     pipeline.obj
 0002:00006b80       ??_C@_0BN@OAIFFPEB@TLS?5not?5allocated?5for?5filter@ 000000018005ab80     pipeline.obj
 0002:00006ba0       ??_C@_0BN@LCAOOCFI@Failed?5to?5destroy?5filter?5TLS@ 000000018005aba0     pipeline.obj
 0002:00006bc8       ??_7stage_task@internal@tbb@@6B@ 000000018005abc8     pipeline.obj
 0002:00006be0       ??_C@_0DC@FJGKNBB@Trying?5to?5finalize?5the?5task?5tha@ 000000018005abe0     pipeline.obj
 0002:00006c18       ??_C@_0P@PMGHPDFJ@is_cancelled?$CI?$CJ@ 000000018005ac18     pipeline.obj
 0002:00006c30       ??_7pipeline_root_task@internal@tbb@@6B@ 000000018005ac30     pipeline.obj
 0002:00006c48       ??_C@_0BI@HDJOOCC@filter?5is?5thread?9bound?$DP@ 000000018005ac48     pipeline.obj
 0002:00006c60       ??_C@_0BM@EKBMLCCI@?$CBcurrent_filter?9?$DOis_bound?$CI?$CJ@ 000000018005ac60     pipeline.obj
 0002:00006c80       ??_C@_0CF@ELPNJBIG@previous?5filter?5is?5not?5thread?9b@ 000000018005ac80     pipeline.obj
 0002:00006ca8       ??_C@_0DE@MFDJBKCP@current_filter?9?$DOprev_filter_in_@ 000000018005aca8     pipeline.obj
 0002:00006ce0       ??_C@_0BF@HJPGMKEL@token?5counting?5error@ 000000018005ace0     pipeline.obj
 0002:00006cf8       ??_C@_0CJ@JJIHJCLA@refcnt?5?$DM?$DN?5int?$CImy_pipeline?4token@ 000000018005acf8     pipeline.obj
 0002:00006d28       ??_C@_0BI@GHAGBPIJ@my_pipeline?4filter_list@ 000000018005ad28     pipeline.obj
 0002:0000a0f0       ??_C@_0EL@BINDMLBM@c?3?2users?2nick?5clark?2documents?2c@ 000000018005e0f0     x86_rtm_rw_mutex.obj
 0002:0000a140       ??_C@_0BG@BEFAEEMA@holding?5mutex?5already@ 000000018005e140     x86_rtm_rw_mutex.obj
 0002:0000a158       ??_C@_06MDKGKMGM@?$CBmutex@ 000000018005e158     x86_rtm_rw_mutex.obj
 0002:0000a160       ??_C@_0BG@OJIPJPBB@mutex?5is?5not?5acquired@ 000000018005e160     x86_rtm_rw_mutex.obj
 0002:0000a178       ??_C@_05IGMCOAJJ@mutex@    000000018005e178     x86_rtm_rw_mutex.obj
 0002:0000b2c0       ??_C@_0CI@FKHHBFIM@QueryPerformanceFrequency?5retur@ 000000018005f2c0     condition_variable.obj
 0002:0000b2e8       ??_C@_04HEMGMBLB@rval@     000000018005f2e8     condition_variable.obj
 0002:0000b2f0       ??_C@_0EI@KECOMAAJ@c?3?2users?2nick?5clark?2documents?2c@ 000000018005f2f0     condition_variable.obj
 0002:0000b338       __real@3ff0000000000000    000000018005f338     condition_variable.obj
 0002:0000b340       __real@408f400000000000    000000018005f340     condition_variable.obj
 0002:0000b598       ??_C@_0BP@PLJHCHPC@QueryPerformanceCounter?5failed@ 000000018005f598     tbb_thread.obj
 0002:0000b5b8       ??_C@_0BC@DBAKKFEN@Invalid?5parameter@ 000000018005f5b8     tbb_thread.obj
 0002:0000b5d0       ??_C@_0EM@EEHGLGMH@c?3?2users?2nick?5clark?2documents?2c@ 000000018005f5d0     tbb_thread.obj
 0002:0000b620       ??_C@_0BC@JJJOOGFM@p?5?$DM?5parameter_max@ 000000018005f620     tbb_thread.obj
 0002:0000b638       __real@41efffffffe00000    000000018005f638     tbb_thread.obj
 0002:0000c258       ??_7versioned_object@rml@@6B@ 0000000180060258     private_server.obj
 0002:0000c268       ??_7server@rml@@6B@        0000000180060268     private_server.obj
 0002:0000c298       ??_7tbb_server@rml@internal@tbb@@6B@ 0000000180060298     private_server.obj
 0002:0000c2d8       ??_C@_0CP@ECLIENFE@thread_monitor?3?3launch?3?5_begint@ 00000001800602d8     private_server.obj
 0002:0000c308       ??_C@_05LAPONLG@false@     0000000180060308     private_server.obj
 0002:0000c318       ??_7private_server@rml@internal@tbb@@6B@ 0000000180060318     private_server.obj
 0002:0000c360       ??_C@_0EK@HFNMBEON@c?3?2users?2nick?5clark?2documents?2c@ 0000000180060360     private_server.obj
 0002:0000c3b0       ??_C@_0L@OCONFJAJ@s?$DN?$DNst_quit@ 00000001800603b0     private_server.obj
 0002:0000c3c0       ??_C@_0DJ@IIFFPPJI@Should?5not?5wake?5a?5thread?5while?5@ 00000001800603c0     private_server.obj
 0002:0000c400       ??_C@_08HIPBKMAG@?$CBmy_next@ 0000000180060400     private_server.obj
 0002:0000cf48       ??_7exception@std@@6B@     0000000180060f48     tbb_misc.obj
 0002:0000cf58       ??_C@_0BC@EOODALEL@Unknown?5exception@ 0000000180060f58     tbb_misc.obj
 0002:0000cf78       ??_7bad_alloc@std@@6B@     0000000180060f78     tbb_misc.obj
 0002:0000cf88       ??_C@_0P@GHFPNOJB@bad?5allocation@ 0000000180060f88     tbb_misc.obj
 0002:0000cfa0       ??_7logic_error@std@@6B@   0000000180060fa0     tbb_misc.obj
 0002:0000cfb8       ??_7invalid_argument@std@@6B@ 0000000180060fb8     tbb_misc.obj
 0002:0000cfd0       ??_7length_error@std@@6B@  0000000180060fd0     tbb_misc.obj
 0002:0000cfe8       ??_7out_of_range@std@@6B@  0000000180060fe8     tbb_misc.obj
 0002:0000d000       ??_7runtime_error@std@@6B@ 0000000180061000     tbb_misc.obj
 0002:0000d018       ??_7range_error@std@@6B@   0000000180061018     tbb_misc.obj
 0002:0000d030       ??_7bad_last_alloc@tbb@@6B@ 0000000180061030     tbb_misc.obj
 0002:0000d048       ??_7improper_lock@tbb@@6B@ 0000000180061048     tbb_misc.obj
 0002:0000d060       ??_7user_abort@tbb@@6B@    0000000180061060     tbb_misc.obj
 0002:0000d078       ??_7missing_wait@tbb@@6B@  0000000180061078     tbb_misc.obj
 0002:0000d090       ??_7invalid_multiple_scheduling@tbb@@6B@ 0000000180061090     tbb_misc.obj
 0002:0000e320       ??_C@_0EK@FMIOMPAP@c?3?2users?2nick?5clark?2documents?2c@ 0000000180062320     task.obj
 0002:0000e370       ??_C@_07BHCJEJPF@task?$CB?$DN0@ 0000000180062370     task.obj
 0002:0000e378       ??_C@_0BE@NMBEFKAA@?$CBis_poisoned?$CI?$CGtask?$CJ@ 0000000180062378     task.obj
 0002:0000e390       ??_C@_0BA@EMBLABKF@misaligned?5task@ 0000000180062390     task.obj
 0002:0000e3a0       ??_C@_0CG@BKBHDKDA@?$CIuintptr_t?$CJtask?5?$CF?5task_alignmen@ 00000001800623a0     task.obj
 0002:0000e3c8       ??_C@_0BN@EHGLMPPM@corrupt?5task?5?$CIinvalid?5state?$CJ@ 00000001800623c8     task.obj
 0002:0000e3e8       ??_C@_0DE@JCDKAFFI@?$CIunsigned?$CJtask?9?$DOstate?$CI?$CJ?$DM?$DN?$CIunsig@ 00000001800623e8     task.obj
 0002:0000e420       ??_C@_0ED@OGPAAPO@c?3?2users?2nick?5clark?2documents?2c@ 0000000180062420     task.obj
 0002:0000e468       ??_C@_08KALFEKOK@my_arena@ 0000000180062468     task.obj
 0002:0000f7d8       ??_7tbb_exception@tbb@@6B@ 00000001800637d8     task_group_context.obj
 0002:0000f810       ??_7captured_exception@tbb@@6B@ 0000000180063810     task_group_context.obj
 0002:00013090       ??_C@_0CC@MFNMDHO@p?5?$DO?$DN?50?5?$CG?$CG?5p?5?$DM?5num_priority_leve@ 0000000180067090     market.obj
 0002:000130b8       ??_C@_0CB@HMEIPHJN@destruction?5of?5an?5acquired?5mute@ 00000001800670b8     market.obj
 0002:000130dc       ??_C@_06ECFFOEMB@?$CBstate@ 00000001800670dc     market.obj
 0002:000130f0       ??_7client@rml@@6B@        00000001800670f0     market.obj
 0002:00013130       ??_7tbb_client@rml@internal@tbb@@6B@ 0000000180067130     market.obj
 0002:00013178       ??_7market@internal@tbb@@6B@ 0000000180067178     market.obj
 0002:000131c0       ??_C@_0PC@JBKCGBCI@?$CImy_priority_levels?$FLmy_global_t@ 00000001800671c0     market.obj
 0002:000132c0       ??_C@_0EA@IDFOBGHB@c?3?2users?2nick?5clark?2documents?2c@ 00000001800672c0     market.obj
 0002:00013300       ??_C@_0CF@JJLIEOOD@Element?5to?5remove?5is?5not?5in?5the@ 0000000180067300     market.obj
 0002:00013330       ??_C@_0EN@OJCEBKLC@node?$CIval?$CJ?4my_prev_node?5?$CB?$DN?5?$CGnode@ 0000000180067330     market.obj
 0002:00013380       ??_C@_0EI@IJIGEEGF@c?3?2users?2nick?5clark?2documents?2c@ 0000000180067380     market.obj
 0002:000133d0       ??_C@_0GJ@MCBNLHDF@node?$CIval?$CJ?4my_prev_node?9?$DOmy_next@ 00000001800673d0     market.obj
 0002:00013440       ??_C@_0FG@ECMKMFAA@Object?5with?5intrusive?5list?5node@ 0000000180067440     market.obj
 0002:000134a0       ??_C@_0EN@LEICMHPL@node?$CIval?$CJ?4my_prev_node?5?$DN?$DN?5?$CGnode@ 00000001800674a0     market.obj
 0002:000134f0       ??_C@_0BO@ECOGGHIB@intrusive_list_base?5corrupted@ 00000001800674f0     market.obj
 0002:00013510       ??_C@_0GD@OJFKBGDC@?$CImy_head?4my_prev_node?5?$DN?$DN?5?$CGmy_he@ 0000000180067510     market.obj
 0002:000172f0       ??_C@_0BJ@LFDBABJJ@ITERATOR?5LIST?5CORRUPTED?$CB@ 000000018006b2f0     arena.obj
 0002:00017310       ??_C@_1EE@KLDMFDFL@?$AAs?$AAt?$AAd?$AA?3?$AA?3?$AA_?$AAI?$AAt?$AAe?$AAr?$AAa?$AAt?$AAo?$AAr?$AA_@ 000000018006b310     arena.obj
 0002:00017358       ??_C@_1DG@PLBPCAEM@?$AA?$CC?$AAI?$AAT?$AAE?$AAR?$AAA?$AAT?$AAO?$AAR?$AA?5?$AAL?$AAI?$AAS?$AAT?$AA?5@ 000000018006b358     arena.obj
 0002:00017390       ??_C@_0BH@CBDGOEGG@integer?5overflow?5error@ 000000018006b390     arena.obj
 0002:000173a8       ??_C@_0BM@NOGDGACD@ref_count_?$DN?$DNint?$CIref_count_?$CJ@ 000000018006b3a8     arena.obj
 0002:000173d0       ??_7empty_task@tbb@@6B@    000000018006b3d0     arena.obj
 0002:000173e8       ??_C@_0BC@JDFJEHHM@my_task_pool_size@ 000000018006b3e8     arena.obj
 0002:00017400       ??_C@_0EB@POJHNKMH@c?3?2users?2nick?5clark?2documents?2c@ 000000018006b400     arena.obj
 0002:00017448       ??_C@_0BP@MNEAKMKM@sizeof?$CI?$CKthis?$CJ?$DN?$DNNFS_MaxLineSize@ 000000018006b448     arena.obj
 0002:00017468       ??_C@_09OBBJHBOG@?$CBmy_first@ 000000018006b468     arena.obj
 0002:00017478       ??_C@_08IBAGIHNA@?$CBmy_last@ 000000018006b478     arena.obj
 0002:00017488       ??_C@_0M@KNJEEGAH@?$CBmy_is_idle@ 000000018006b488     arena.obj
 0002:00017498       ??_C@_0N@IIPOOJBI@not?5attached@ 000000018006b498     arena.obj
 0002:000174a8       ??_C@_09OEPHKDIP@my_putter@ 000000018006b4a8     arena.obj
 0002:000174b8       ??_C@_0DA@EJPFNHBC@attempt?5to?5redundantly?5mark?5mai@ 000000018006b4b8     arena.obj
 0002:000174e8       ??_C@_0BP@JDMDBFAC@my_putter?9?$DOmy_is_idle?5?$HM?$HM?5value@ 000000018006b4e8     arena.obj
 0002:00017508       ??_C@_0CB@KDJNNNFJ@c?5must?5be?5odd?5for?5big?5rng?5perio@ 000000018006b508     arena.obj
 0002:0001752c       ??_C@_03NLFEFOO@c?$CG1@    000000018006b52c     arena.obj
 0002:00017530       ??_C@_0EC@FFOJHJBP@c?3?2users?2nick?5clark?2documents?2c@ 000000018006b530     arena.obj
 0002:00017578       ??_C@_0BO@KFDPICNO@task_group_context?5is?5invalid@ 000000018006b578     arena.obj
 0002:00017598       ??_C@_03DJKOPCOJ@tgc@      000000018006b598     arena.obj
 0002:000175a0       ??_C@_0CM@HLNMPAJN@referenced?5task_group_context?5w@ 000000018006b5a0     arena.obj
 0002:000175d0       ??_C@_0O@JDHKFJME@is_alive?$CIctx?$CJ@ 000000018006b5d0     arena.obj
 0002:000175e0       ??_C@_0DD@GCCMCKLJ@?$CB?$CIctx?$CG?$HO?$CI3?$HM?$CI7?$DM?$DMtask_group_contex@ 000000018006b5e0     arena.obj
 0002:00017618       ??_C@_0CJ@LFPFLKGK@tgc?9?$DOmy_kind?5?$DM?5task_group_conte@ 000000018006b618     arena.obj
 0002:00017650       ??_C@_0EL@PBLIFOPJ@tgc?9?$DOmy_cancellation_requested?5@ 000000018006b650     arena.obj
 0002:000176a0       ??_C@_0DJ@LDNDIAH@tgc?9?$DOmy_state?5?$DM?5task_group_cont@ 000000018006b6a0     arena.obj
 0002:000176e0       ??_C@_0O@DLOLMOAK@tgc?9?$DOmy_owner@ 000000018006b6e0     arena.obj
 0002:000176f0       ??_C@_0CN@NLACLNGC@tgc?9?$DOmy_node?4my_next?5?$CG?$CG?5tgc?9?$DOmy@ 000000018006b6f0     arena.obj
 0002:00017720       ??_C@_0DA@NDIDNFBO@is_alive?$CItgc?9?$DOmy_parent?9?$DOmy_ver@ 000000018006b720     arena.obj
 0002:00017750       ??_C@_06CKCKBIJI@pos?$DO?$DN0@ 000000018006b750     arena.obj
 0002:00017760       ??_C@_0EF@CCCFLAHE@c?3?2users?2nick?5clark?2documents?2c@ 000000018006b760     arena.obj
 0002:000177a8       ??_C@_0CA@GILKEELP@pos?$DMint?$CIsizeof?$CIpopulation_t?$CJ?$CK8?$CJ@ 000000018006b7a8     arena.obj
 0002:000177d0       ??_C@_0EI@IIECNBC@c?3?2users?2nick?5clark?2documents?2c@ 000000018006b7d0     arena.obj
 0002:00017818       ??_C@_0BK@FFKPNNPE@is_alive?$CI?$CIuintptr_t?$CJlast?$CJ@ 000000018006b818     arena.obj
 0002:00017834       ??_C@_04PLGBGIDD@last@     000000018006b834     arena.obj
 0002:00017840       ??_C@_0CF@KAJGPIBO@affinity?5id?5must?5be?5positive?5in@ 000000018006b840     arena.obj
 0002:00017868       ??_C@_04GEJGKJHB@0?$DMid@  000000018006b868     arena.obj
 0002:00017870       ??_C@_0DP@FBDKKFIA@c?3?2users?2nick?5clark?2documents?2c@ 000000018006b870     arena.obj
 0002:000178b0       ??_C@_0BK@FLEGBGKI@affinity?5id?5out?5of?5bounds@ 000000018006b8b0     arena.obj
 0002:000178d0       ??_C@_0BD@OMMHHPPG@id?5?$DM?$DN?5my_num_slots@ 000000018006b8d0     arena.obj
 0002:000178e8       ??_C@_0O@MBNNLPFM@my_arena_slot@ 000000018006b8e8     arena.obj
 0002:000178f8       ??_C@_0BL@ODPIFFEN@Task?5pool?5is?5not?5quiescent@ 000000018006b8f8     arena.obj
 0002:00017918       ??_C@_0BP@GAMMILEG@is_local_task_pool_quiescent?$CI?$CJ@ 000000018006b918     arena.obj
 0002:00017938       ??_C@_04OIAIIDOD@id?$DO0@  000000018006b938     arena.obj
 0002:00017948       ??_7delegated_task@internal@interface7@tbb@@6B@ 000000018006b948     arena.obj
 0002:00017960       ??_C@_0CB@OMHFKCP@s?4my_innermost_running_task?5?$DN?$DN?5@ 000000018006b960     arena.obj
 0002:00017990       ??_C@_0EB@DBPAAILB@c?3?2users?2nick?5clark?2documents?2c@ 000000018006b990     arena.obj
 0002:000179d8       ??_C@_0DM@HNNILCFL@expected?5to?5be?5enqueued?5and?5rec@ 000000018006b9d8     arena.obj
 0002:00017a18       ??_C@_0BE@CFOCPJGK@s?4outermost_level?$CI?$CJ@ 000000018006ba18     arena.obj
 0002:00017a30       ??_C@_0BI@CIDBMGBG@my_root?9?$DOref_count?$CI?$CJ?$DN?$DN2@ 000000018006ba30     arena.obj
 0002:00017a50       ??_7?$function_task@Vspawn_functor@graph@interface10@flow@tbb@@@internal@tbb@@6B@ 000000018006ba50     arena.obj
 0002:00017a70       ??_7wait_task@internal@interface7@tbb@@6B@ 000000018006ba70     arena.obj
 0002:00017a88       ??_C@_01LKDEMHDF@s@        000000018006ba88     arena.obj
 0002:00017a90       ??_C@_0DL@KFGKEBJE@The?5enqueued?5task?5can?5be?5proces@ 000000018006ba90     arena.obj
 0002:00017ad0       ??_C@_0BF@OHGECEBE@s?9?$DOoutermost_level?$CI?$CJ@ 000000018006bad0     arena.obj
 0002:00017ae8       ??_C@_0CF@ODNGAPM@s?9?$DOmy_innermost_running_task?5?$DN?$DN@ 000000018006bae8     arena.obj
 0002:00017b10       ??_C@_0CD@OFNAHHEA@is_bit_set?$CI?5population?$FLlevel?$FN?0?5@ 000000018006bb10     arena.obj
 0002:00017b38       ??_C@_0BO@CBFHELNN@number?5of?5lanes?5miscalculated@ 000000018006bb38     arena.obj
 0002:00017b58       ??_C@_0CL@NIIKOCAN@N?$DN?$DNmax_lanes?5?$HM?$HM?5N?$DO?$DNn_lanes?5?$CG?$CG?5?$CI@ 000000018006bb58     arena.obj
 0002:00017b88       ??_C@_0BO@GMMHLBMM@N?5?$DM?$DN?5sizeof?$CIpopulation_t?$CJ?5?$CK?58@ 000000018006bb88     arena.obj
 0002:00017ba8       ??_C@_0BD@KHCHLJLI@?$CBpopulation?$FLlevel?$FN@ 000000018006bba8     arena.obj
 0002:00017bc0       ??_C@_0DC@GFMAEIG@cannot?5increment?5value?9initiali@ 000000018006bbc0     arena.obj
 0002:00017c00       ??_C@_0GG@PDGBPBNH@c?3?2program?5files?5?$CIx86?$CJ?2microsof@ 000000018006bc00     arena.obj
 0002:00017c70       ??_C@_1MM@CBBKNAMM@?$AAc?$AA?3?$AA?2?$AAp?$AAr?$AAo?$AAg?$AAr?$AAa?$AAm?$AA?5?$AAf?$AAi?$AAl?$AAe@ 000000018006bc70     arena.obj
 0002:00017d40       ??_C@_1OK@IPOEJLAK@?$AAs?$AAt?$AAd?$AA?3?$AA?3?$AA_?$AAD?$AAe?$AAq?$AAu?$AAe?$AA_?$AAc?$AAo?$AAn@ 000000018006bd40     arena.obj
 0002:00017e30       ??_C@_1GI@POACGDOI@?$AA?$CC?$AAc?$AAa?$AAn?$AAn?$AAo?$AAt?$AA?5?$AAi?$AAn?$AAc?$AAr?$AAe?$AAm?$AAe@ 000000018006be30     arena.obj
 0002:00017e98       ??_C@_0CJ@GCBJHNIM@cannot?5increment?5deque?5iterator@ 000000018006be98     arena.obj
 0002:00017ed0       ??_C@_1FG@BGBCEPMC@?$AA?$CC?$AAc?$AAa?$AAn?$AAn?$AAo?$AAt?$AA?5?$AAi?$AAn?$AAc?$AAr?$AAe?$AAm?$AAe@ 000000018006bed0     arena.obj
 0002:00017f28       ??_C@_0DE@MANMEIKC@cannot?5dereference?5value?9initia@ 000000018006bf28     arena.obj
 0002:00017f60       ??_C@_1OI@HFCPILNI@?$AAs?$AAt?$AAd?$AA?3?$AA?3?$AA_?$AAD?$AAe?$AAq?$AAu?$AAe?$AA_?$AAc?$AAo?$AAn@ 000000018006bf60     arena.obj
 0002:00018050       ??_C@_1GM@HLAFMPGB@?$AA?$CC?$AAc?$AAa?$AAn?$AAn?$AAo?$AAt?$AA?5?$AAd?$AAe?$AAr?$AAe?$AAf?$AAe?$AAr@ 000000018006c050     arena.obj
 0002:000180c0       ??_C@_0CN@IEPDPKI@cannot?5deference?5out?5of?5range?5d@ 000000018006c0c0     arena.obj
 0002:000180f0       ??_C@_1FO@KFELHBJF@?$AA?$CC?$AAc?$AAa?$AAn?$AAn?$AAo?$AAt?$AA?5?$AAd?$AAe?$AAf?$AAe?$AAr?$AAe?$AAn@ 000000018006c0f0     arena.obj
 0002:00018150       ??_C@_0BN@DOAGFKAN@deque?5iterators?5incompatible@ 000000018006c150     arena.obj
 0002:00018170       ??_C@_1OC@EJJJDGHM@?$AAs?$AAt?$AAd?$AA?3?$AA?3?$AA_?$AAD?$AAe?$AAq?$AAu?$AAe?$AA_?$AAc?$AAo?$AAn@ 000000018006c170     arena.obj
 0002:00018258       ??_C@_1DO@MEEAMOJI@?$AA?$CC?$AAd?$AAe?$AAq?$AAu?$AAe?$AA?5?$AAi?$AAt?$AAe?$AAr?$AAa?$AAt?$AAo?$AAr@ 000000018006c258     arena.obj
 0002:00018298       ??_C@_0BC@KBDMBKEH@deque?$DMT?$DO?5too?5long@ 000000018006c298     arena.obj
 0002:000182b0       ??_C@_0BH@EDKEEENI@deque?5empty?5before?5pop@ 000000018006c2b0     arena.obj
 0002:000182d0       ??_C@_1KK@IPLLCLGI@?$AAs?$AAt?$AAd?$AA?3?$AA?3?$AAd?$AAe?$AAq?$AAu?$AAe?$AA?$DM?$AAc?$AAl?$AAa?$AAs@ 000000018006c2d0     arena.obj
 0002:00018380       ??_C@_1DC@NJAACHCD@?$AA?$CC?$AAd?$AAe?$AAq?$AAu?$AAe?$AA?5?$AAe?$AAm?$AAp?$AAt?$AAy?$AA?5?$AAb?$AAe@ 000000018006c380     arena.obj
 0002:000183b8       ??_C@_0BP@CBDJMBJD@broken?5arena?5reference?5counter@ 000000018006c3b8     arena.obj
 0002:000183d8       ??_C@_0BL@GOOCMMAL@my_references?5?$DO?$DN?5ref_param@ 000000018006c3d8     arena.obj
 0002:0001e070       ??_7scheduler@internal@tbb@@6B@ 0000000180072070     scheduler.obj
 0002:0001e098       ??_C@_0BH@PJCFOIOF@?$CBcurr?9?$DOnext_in_mailbox@ 0000000180072098     scheduler.obj
 0002:0001e0b0       ??_C@_04PBNCPCJL@curr@     00000001800720b0     scheduler.obj
 0002:0001e0b8       ??_C@_01PFHFFBPC@t@        00000001800720b8     scheduler.obj
 0002:0001e0c8       ??_7generic_scheduler@internal@tbb@@6B@ 00000001800720c8     scheduler.obj
 0002:0001e100       ??_C@_0BI@CMOLMDHH@RML?5server?5not?5defined?$DP@ 0000000180072100     scheduler.obj
 0002:0001e118       ??_C@_09PDIAIGKC@my_server@ 0000000180072118     scheduler.obj
 0002:0001e128       ??_C@_0DC@OMPMODAI@Task?5pool?5must?5be?5locked?5when?5r@ 0000000180072128     scheduler.obj
 0002:0001e160       ??_C@_0DD@IHALEKFF@my_arena_slot?9?$DOtask_pool?5?$DN?$DN?5?$CI?$CIt@ 0000000180072160     scheduler.obj
 0002:0001e198       ??_C@_0BP@DLJALJOC@task?5deque?5end?5was?5overwritten@ 0000000180072198     scheduler.obj
 0002:0001e1b8       ??_C@_0CN@ICKPEFI@new_tail?5?$DM?$DN?5my_arena_slot?9?$DOmy_t@ 00000001800721b8     scheduler.obj
 0002:0001e1e8       ??_C@_0DP@GHBJMLBA@Task?5pool?5must?5be?5locked?5when?5c@ 00000001800721e8     scheduler.obj
 0002:0001e228       ??_C@_0CD@CFIANOHN@The?5proxy?5task?5cannot?5be?5offloa@ 0000000180072228     scheduler.obj
 0002:0001e250       ??_C@_0N@GOECIDD@?$CBis_proxy?$CIt?$CJ@ 0000000180072250     scheduler.obj
 0002:0001e260       ??_C@_0EH@OANICANA@my_offloaded_task_list_tail_lin@ 0000000180072260     scheduler.obj
 0002:0001e2b0       ??_7?$custom_scheduler@UDefaultSchedulerTraits@internal@tbb@@@internal@tbb@@6B@ 00000001800722b0     scheduler.obj
 0002:0001e2f0       ??_7?$custom_scheduler@UIntelSchedulerTraits@internal@tbb@@@internal@tbb@@6B@ 00000001800722f0     scheduler.obj
 0002:0001e330       ??_C@_0EC@JPJKCONO@?$CBis_task_pool_published?$CI?$CJ?5?$CG?$CG?5is@ 0000000180072330     scheduler.obj
 0002:0001e380       ??_C@_0EF@CGPAFEPL@c?3?2users?2nick?5clark?2documents?2c@ 0000000180072380     scheduler.obj
 0002:0001e3c8       ??_C@_0BO@FFGMFFKH@?$CBmy_arena_slot?9?$DOtask_pool_ptr@ 00000001800723c8     scheduler.obj
 0002:0001e3e8       ??_C@_0DH@BMPONNCM@my_arena_slot?9?$DOmy_task_pool_siz@ 00000001800723e8     scheduler.obj
 0002:0001e420       ??_C@_0BJ@EBNAOIPB@invalid?5arena?5slot?5index@ 0000000180072420     scheduler.obj
 0002:0001e440       ??_C@_0DF@OAKHJCHO@my_arena_slot?5?$DN?$DN?5my_arena?9?$DOmy_s@ 0000000180072440     scheduler.obj
 0002:0001e478       ??_C@_0BI@DDHEOPJ@slot?5ownership?5corrupt?$DP@ 0000000180072478     scheduler.obj
 0002:0001e490       ??_C@_0ED@DPOFMDLB@tp?5?$DN?$DN?5?$CI?$CItask?$CK?$CK?$CJ?$HO?$CIintptr_t?$CJ0?$CJ?5?$HM?$HM@ 0000000180072490     scheduler.obj
 0002:0001e4d8       ??_C@_0BO@BPAKPMEK@not?5really?5acquired?5task?5pool@ 00000001800724d8     scheduler.obj
 0002:0001e4f8       ??_C@_0BE@OBDANAJJ@we?5are?5not?5in?5arena@ 00000001800724f8     scheduler.obj
 0002:0001e510       ??_C@_0BJ@KAKOPABB@arena?5slot?5is?5not?5locked@ 0000000180072510     scheduler.obj
 0002:0001e530       ??_C@_0CG@DLNDAJCB@not?5really?5locked?5victim?8s?5task@ 0000000180072530     scheduler.obj
 0002:0001e560       ??_C@_0IK@MGPPBPLF@victim_task_pool?5?$DN?$DN?5?$CI?$CItask?$CK?$CK?$CJ0?$CJ@ 0000000180072560     scheduler.obj
 0002:0001e5f0       ??_C@_0CA@KPJJIGGI@empty?5victim?5arena?5slot?5pointer@ 00000001800725f0     scheduler.obj
 0002:0001e610       ??_C@_0BC@FDIBDHCF@victim_arena_slot@ 0000000180072610     scheduler.obj
 0002:0001e628       ??_C@_0CA@PNKDECOB@victim?5arena?5slot?5is?5not?5locked@ 0000000180072628     scheduler.obj
 0002:0001e648       ??_C@_0DH@EKDIAKJL@victim_arena_slot?9?$DOtask_pool?5?$DN?$DN@ 0000000180072648     scheduler.obj
 0002:0001e680       ??_C@_0DH@EOPIIHGK@attempt?5to?5spawn?5task?5that?5is?5n@ 0000000180072680     scheduler.obj
 0002:0001e6b8       ??_C@_0BM@PKOLENLD@t?9?$DOstate?$CI?$CJ?$DN?$DNtask?3?3allocated@ 00000001800726b8     scheduler.obj
 0002:0001e6d8       ??_C@_0DF@OEIDPLN@attempt?5to?5spawn?5task?5whose?5par@ 00000001800726d8     scheduler.obj
 0002:0001e710       ??_C@_0N@GFHEPNGJ@ref_count?$DO?$DN0@ 0000000180072710     scheduler.obj
 0002:0001e720       ??_C@_0FB@KLFGCIGA@attempt?5to?5spawn?5task?5whose?5par@ 0000000180072720     scheduler.obj
 0002:0001e778       ??_C@_0N@GNAOLKKA@ref_count?$CB?$DN0@ 0000000180072778     scheduler.obj
 0002:0001e788       ??_C@_0DD@DBDAGODG@backwards?5compatibility?5to?5TBB?5@ 0000000180072788     scheduler.obj
 0002:0001e7c0       ??_C@_0CJ@OADHCJIC@dst_thread?5?$DN?$DN?50?5?$HM?$HM?5is_version_3@ 00000001800727c0     scheduler.obj
 0002:0001e7f0       ??_C@_0CI@GLNIEMEP@Is?5it?5safe?5to?5get?5a?5task?5at?5pos@ 00000001800727f0     scheduler.obj
 0002:0001e820       ??_C@_0FB@PEEIAAKN@__TBB_load_relaxed?$CI?5my_arena_sl@ 0000000180072820     scheduler.obj
 0002:0001e878       ??_C@_0CL@NKJHBMDP@The?5poisoned?5task?5is?5going?5to?5b@ 0000000180072878     scheduler.obj
 0002:0001e8a8       ??_C@_0BH@JBFJDMFK@?$CBis_poisoned?$CI?5result?5?$CJ@ 00000001800728a8     scheduler.obj
 0002:0001e8c0       ??_C@_0CM@FLLAMAOI@backwards?5compatibility?5with?5TB@ 00000001800728c0     scheduler.obj
 0002:0001e8f0       ??_C@_0BI@LOLDPLBP@is_version_3_task?$CI?5?$CKt?5?$CJ@ 00000001800728f0     scheduler.obj
 0002:0001e908       ??_C@_0BP@BDLOPJOA@my_innermost_running_task?5?$CB?$DN?5t@ 0000000180072908     scheduler.obj
 0002:0001e928       ??_C@_0BJ@HJENMGEB@is_task_pool_published?$CI?$CJ@ 0000000180072928     scheduler.obj
 0002:0001e948       ??_C@_07GEMCFJLC@?$CBresult@ 0000000180072948     scheduler.obj
 0002:0001e950       ??_C@_0CL@JFLKFHKK@victim?1thief?5arbitration?5algori@ 0000000180072950     scheduler.obj
 0002:0001e980       ??_C@_0HB@FMCKPCFE@H0?5?$DN?$DN?5__TBB_load_relaxed?$CI?5my_ar@ 0000000180072980     scheduler.obj
 0002:0001e9f8       ??_C@_09HNHGNKJM@T0?5?$DN?$DN?5T?$CL1@ 00000001800729f8     scheduler.obj
 0002:0001ea08       ??_C@_0CF@LDHNFBMB@is_quiescent_local_task_pool_re@ 0000000180072a08     scheduler.obj
 0002:0001ea30       ??_C@_07HCAANLFB@H0?5?$DN?$DN?5T@ 0000000180072a30     scheduler.obj
 0002:0001ea38       ??_C@_08IAEIEOP@H0?5?$DM?$DN?5T0@ 0000000180072a38     scheduler.obj
 0002:0001ea44       ??_C@_06KJFADLGN@result@   0000000180072a44     scheduler.obj
 0002:0001ea50       ??_C@_0DJ@MBBCHFFI@?$CIintptr_t?$CJ__TBB_load_relaxed?$CI?5m@ 0000000180072a50     scheduler.obj
 0002:0001ea90       ??_C@_0EA@DGLADJAL@result?5?$HM?$HM?5tasks_omitted?5?$HM?$HM?5is_q@ 0000000180072a90     scheduler.obj
 0002:0001ead0       ??_C@_0CI@FKMLHL@no?5arena?3?5initialization?5not?5co@ 0000000180072ad0     scheduler.obj
 0002:0001eaf8       ??_C@_0CB@LPMOJLPE@arena?5slot?5index?5is?5out?9of?9boun@ 0000000180072af8     scheduler.obj
 0002:0001eb20       ??_C@_0CI@OHFLOHIC@my_arena_index?5?$DM?5my_arena?9?$DOmy_n@ 0000000180072b20     scheduler.obj
 0002:0001eb48       ??_C@_0DF@PGIDHDB@my_arena_slot?5?$DN?$DN?5?$CGmy_arena?9?$DOmy_@ 0000000180072b48     scheduler.obj
 0002:0001eb80       ??_C@_0CE@INOMDMEC@someone?5else?5grabbed?5my?5arena?5s@ 0000000180072b80     scheduler.obj
 0002:0001eba8       ??_C@_0CI@LGNJBBEB@my_arena_slot?9?$DOtask_pool?5?$DN?$DN?5?$CI?$CIt@ 0000000180072ba8     scheduler.obj
 0002:0001ebd0       ??_C@_0CG@GFMBLNBF@entering?5arena?5without?5tasks?5to@ 0000000180072bd0     scheduler.obj
 0002:0001ec00       ??_C@_0FC@HABCALHI@__TBB_load_relaxed?$CImy_arena_slo@ 0000000180072c00     scheduler.obj
 0002:0001ec58       ??_C@_0N@GEHBJNPJ@Not?5in?5arena@ 0000000180072c58     scheduler.obj
 0002:0001ec68       ??_C@_0CD@GJBBKPKF@arena?5slot?5and?5slot?5index?5misma@ 0000000180072c68     scheduler.obj
 0002:0001ec90       ??_C@_0DF@MEJMMJFG@?$CGmy_arena?9?$DOmy_slots?$FLmy_arena_in@ 0000000180072c90     scheduler.obj
 0002:0001ecc8       ??_C@_0CM@PKMMCBAO@Task?5pool?5must?5be?5locked?5when?5l@ 0000000180072cc8     scheduler.obj
 0002:0001ecf8       ??_C@_0DD@NMGIJENM@Cannot?5leave?5arena?5when?5the?5tas@ 0000000180072cf8     scheduler.obj
 0002:0001ed30       ??_C@_0CF@NPJCDDNF@is_quiescent_local_task_pool_em@ 0000000180072d30     scheduler.obj
 0002:0001ed58       ??_C@_0BK@LFACAHON@Maximal?5capacity?5exceeded@ 0000000180072d58     scheduler.obj
 0002:0001ed78       ??_C@_0BO@MDAELBIO@m_num_segments?5?$DM?5max_segments@ 0000000180072d78     scheduler.obj
 0002:0001eda0       ??_C@_0EL@MFBLPAOL@c?3?2users?2nick?5clark?2documents?2c@ 0000000180072da0     scheduler.obj
 0002:0001edf0       ??_C@_0CK@LELAGDPJ@Nonempty?5initial?5segment?5must?5b@ 0000000180072df0     scheduler.obj
 0002:0001ee20       ??_C@_0CA@KCKFCMBB@initial_segment?5?$CG?$CG?5segment_size@ 0000000180072e20     scheduler.obj
 0002:0001ee40       ??_C@_0CH@JEFMPKMI@Normal?5task?5misinterpreted?5as?5a@ 0000000180072e40     scheduler.obj
 0002:0001ee68       ??_C@_0CG@CFHFCKPM@prefix?$CI?$CJ?4extra_state?5?$DN?$DN?5es_task@ 0000000180072e68     scheduler.obj
 0002:0001ee90       ??_C@_0GI@GIJCFNCK@Proxy?8s?5tag?5cannot?5specify?5both@ 0000000180072e90     scheduler.obj
 0002:0001eef8       ??_C@_0DF@OJCBPOPH@tat?5?$DN?$DN?5from_bit?5?$HM?$HM?5?$CIis_shared?$CIt@ 0000000180072ef8     scheduler.obj
 0002:0001ef30       ??_C@_0DB@IMPNEGJF@Empty?5proxy?5cannot?5contain?5non?9@ 0000000180072f30     scheduler.obj
 0002:0001ef68       ??_C@_0BJ@NAOIKHFB@task_and_tag?5?$DN?$DN?5from_bit@ 0000000180072f68     scheduler.obj
 0002:0001ef90       ??_C@_0EF@DFJMMIPF@completion?5of?5task?5caused?5prede@ 0000000180072f90     scheduler.obj
 0002:0001efd8       ??_C@_0P@KPMFOABG@p?4ref_count?$DN?$DN0@ 0000000180072fd8     scheduler.obj
 0002:0001eff0       ??_C@_0EK@FDDLGNLF@c?3?2users?2nick?5clark?2documents?2c@ 0000000180072ff0     scheduler.obj
 0002:0001f040       ??_C@_0DI@KEOEKCDJ@p?4isolation?5?$DN?$DN?5no_isolation?5?$HM?$HM?5@ 0000000180073040     scheduler.obj
 0002:0001f080       ??_C@_1KM@CNDICFPH@?$AAs?$AAt?$AAd?$AA?3?$AA?3?$AAd?$AAe?$AAq?$AAu?$AAe?$AA?$DM?$AAc?$AAl?$AAa?$AAs@ 0000000180073080     scheduler.obj
 0002:00020630       ??_C@_0CI@PMFFFLKG@task_arena?5initialization?5is?5in@ 0000000180074630     observer_proxy.obj
 0002:00020660       ??_C@_0EI@CMOJCNHJ@c?3?2users?2nick?5clark?2documents?2c@ 0000000180074660     observer_proxy.obj
 0002:000206a8       ??_C@_0L@KIPAIEID@my_context@ 00000001800746a8     observer_proxy.obj
 0002:000206b4       ??_C@_01KDCPPGHE@r@        00000001800746b4     observer_proxy.obj
 0002:000206b8       ??_C@_0CD@KLDPKFDL@Leaked?5?$CFld?5observer_proxy?5objec@ 00000001800746b8     observer_proxy.obj
 0002:000214d8       ??_7control_storage@internal@tbb@@6B@ 00000001800754d8     tbb_main.obj
 0002:00021500       ??_7?$padded_base@Vcontrol_storage@internal@tbb@@$0IA@$0CA@@internal@tbb@@6B@ 0000000180075500     tbb_main.obj
 0002:00021528       ??_7?$padded@Vcontrol_storage@internal@tbb@@$0IA@@internal@tbb@@6B@ 0000000180075528     tbb_main.obj
 0002:00021550       ??_7allowed_parallelism_control@internal@tbb@@6B@ 0000000180075550     tbb_main.obj
 0002:00021570       ??_C@_0BD@PLEDMFOC@my_active_value?$DO?$DN1@ 0000000180075570     tbb_main.obj
 0002:00021590       ??_C@_0EE@OEJJMPKD@c?3?2users?2nick?5clark?2documents?2c@ 0000000180075590     tbb_main.obj
 0002:000215e0       ??_7stack_size_control@internal@tbb@@6B@ 00000001800755e0     tbb_main.obj
 0002:00021d20       ??_C@_0CK@MILFLHAC@result?$DN?$DNsegment_base?$CIk?$CL1?$CJ?9segme@ 0000000180075d20     concurrent_vector_v2.obj
 0002:00021d50       ??_C@_0EO@EJLHDODB@c?3?2users?2nick?5clark?2documents?2c@ 0000000180075d50     concurrent_vector_v2.obj
 0002:00022628       ??_7concurrent_queue_base@internal@tbb@@6B@ 0000000180076628     concurrent_queue_v2.obj
 0002:00022640       ??_C@_0EP@OPFOEFKM@c?3?2users?2nick?5clark?2documents?2c@ 0000000180076640     concurrent_queue_v2.obj
 0002:00023048       ??_7type_info@@6B@         0000000180077048     MSVCRTD:std_type_info_static.obj
 0002:00023060       _pDefaultRawDllMain        0000000180077060     MSVCRTD:dll_dllmain.obj
 0002:00023060       _pRawDllMain               0000000180077060     MSVCRTD:dll_dllmain.obj
 0002:00023130       ??_C@_0NN@NGPKDKPD@The?5value?5of?5ESP?5was?5not?5proper@ 0000000180077130     MSVCRTD:error.obj
 0002:00023210       ??_C@_0BBN@GPMLNJCF@A?5cast?5to?5a?5smaller?5data?5type?5h@ 0000000180077210     MSVCRTD:error.obj
 0002:00023330       ??_C@_0BN@FFOINMNJ@Stack?5memory?5was?5corrupted?6?$AN@ 0000000180077330     MSVCRTD:error.obj
 0002:00023350       ??_C@_0DG@HKJMLLLP@A?5local?5variable?5was?5used?5befor@ 0000000180077350     MSVCRTD:error.obj
 0002:00023388       ??_C@_0CM@NGINOKPC@Stack?5memory?5around?5_alloca?5was@ 0000000180077388     MSVCRTD:error.obj
 0002:000233b8       ??_C@_0BO@GNIAFIKK@Unknown?5Runtime?5Check?5Error?6?$AN@ 00000001800773b8     MSVCRTD:error.obj
 0002:000233e0       ??_C@_1GM@OLMCBDMB@?$AAR?$AAu?$AAn?$AAt?$AAi?$AAm?$AAe?$AA?5?$AAC?$AAh?$AAe?$AAc?$AAk?$AA?5?$AAE@ 00000001800773e0     MSVCRTD:error.obj
 0002:00023450       ??_C@_1EA@NFKNIFJP@?$AAR?$AAu?$AAn?$AA?9?$AAT?$AAi?$AAm?$AAe?$AA?5?$AAC?$AAh?$AAe?$AAc?$AAk?$AA?5@ 0000000180077450     MSVCRTD:error.obj
 0002:00023490       ??_C@_0BB@PFFGGCJP@Unknown?5Filename@ 0000000180077490     MSVCRTD:error.obj
 0002:000234a8       ??_C@_0BE@GNBOBNCK@Unknown?5Module?5Name@ 00000001800774a8     MSVCRTD:error.obj
 0002:000234c0       ??_C@_0CA@IODNCDPG@Run?9Time?5Check?5Failure?5?$CD?$CFd?5?9?5?$CFs@ 00000001800774c0     MSVCRTD:error.obj
 0002:000234e0       ??_C@_0CG@IAFNJNEE@Stack?5corrupted?5near?5unknown?5va@ 00000001800774e0     MSVCRTD:error.obj
 0002:00023508       ??_C@_05MKKEDADM@?$CF?42X?5@ 0000000180077508     MSVCRTD:error.obj
 0002:00023510       ??_C@_0EJ@LJKNEOLN@Stack?5area?5around?5_alloca?5memor@ 0000000180077510     MSVCRTD:error.obj
 0002:0002355c       ??_C@_01EEMJAFIK@?6@       000000018007755c     MSVCRTD:error.obj
 0002:00023560       ??_C@_02LLMPMKNF@?$DO?5@   0000000180077560     MSVCRTD:error.obj
 0002:00023568       ??_C@_08OMAHNMHJ@?6Data?3?5?$DM@ 0000000180077568     MSVCRTD:error.obj
 0002:00023578       ??_C@_0CK@DKGBICFE@?6Allocation?5number?5within?5this?5@ 0000000180077578     MSVCRTD:error.obj
 0002:000235a8       ??_C@_07DFDJCKFN@?6Size?3?5@ 00000001800775a8     MSVCRTD:error.obj
 0002:000235b0       ??_C@_0N@MHFFIMFG@?6Address?3?50x@ 00000001800775b0     MSVCRTD:error.obj
 0002:000235c0       ??_C@_0EI@CLEPFNGI@Stack?5area?5around?5_alloca?5memor@ 00000001800775c0     MSVCRTD:error.obj
 0002:00023608       ??_C@_0BK@ODNDAGKB@?$CFs?$CFs?$CFp?$CFs?$CFzd?$CFs?$CFd?$CFs?$CFs?$CFs?$CFs?$CFs@ 0000000180077608     MSVCRTD:error.obj
 0002:00023628       ??_C@_0DE@OHJBPMBP@A?5variable?5is?5being?5used?5withou@ 0000000180077628     MSVCRTD:error.obj
 0002:00023688       ??_C@_0BJ@HEGAHDFO@Stack?5pointer?5corruption@ 0000000180077688     MSVCRTD:userapi.obj
 0002:000236a8       ??_C@_0CK@FEGOIOPB@Cast?5to?5smaller?5type?5causing?5lo@ 00000001800776a8     MSVCRTD:userapi.obj
 0002:000236d8       ??_C@_0BI@CIGMDCBH@Stack?5memory?5corruption@ 00000001800776d8     MSVCRTD:userapi.obj
 0002:000236f0       ??_C@_0CK@CNLNOEPB@Local?5variable?5used?5before?5init@ 00000001800776f0     MSVCRTD:userapi.obj
 0002:00023720       ??_C@_0BP@OGBCLIBO@Stack?5around?5_alloca?5corrupted@ 0000000180077720     MSVCRTD:userapi.obj
 0002:00023748       ??_7bad_array_new_length@std@@6B@ 0000000180077748     MSVCRTD:throw_bad_alloc.obj
 0002:00023758       ??_C@_0BF@KINCDENJ@bad?5array?5new?5length@ 0000000180077758     MSVCRTD:throw_bad_alloc.obj
 0002:000237d0       ??_C@_1EI@MLPKHBGE@?$AAa?$AAp?$AAi?$AA?9?$AAm?$AAs?$AA?9?$AAw?$AAi?$AAn?$AA?9?$AAc?$AAo?$AAr?$AAe@ 00000001800777d0     MSVCRTD:pdblkup.obj
 0002:00023818       ??_C@_1BK@JHLNAEJL@?$AAa?$AAd?$AAv?$AAa?$AAp?$AAi?$AA3?$AA2?$AA?4?$AAd?$AAl?$AAl@ 0000000180077818     MSVCRTD:pdblkup.obj
 0002:00023838       ??_C@_0O@COHOBMLB@RegOpenKeyExW@ 0000000180077838     MSVCRTD:pdblkup.obj
 0002:00023848       ??_C@_0BB@GLNAEDBD@RegQueryValueExW@ 0000000180077848     MSVCRTD:pdblkup.obj
 0002:00023860       ??_C@_0M@HLOHPNFA@RegCloseKey@ 0000000180077860     MSVCRTD:pdblkup.obj
 0002:00023870       ??_C@_1HE@EBEAGLFB@?$AAS?$AAO?$AAF?$AAT?$AAW?$AAA?$AAR?$AAE?$AA?2?$AAW?$AAo?$AAw?$AA6?$AA4?$AA3@ 0000000180077870     MSVCRTD:pdblkup.obj
 0002:000238e8       ??_C@_1BG@EABPBLLF@?$AAP?$AAr?$AAo?$AAd?$AAu?$AAc?$AAt?$AAD?$AAi?$AAr@ 00000001800778e8     MSVCRTD:pdblkup.obj
 0002:00023920       ??_C@_1BC@JINFINNJ@?$AAM?$AAS?$AAP?$AAD?$AAB?$AA1?$AA4?$AA0@ 0000000180077920     MSVCRTD:pdblkup.obj
 0002:00023938       ??_C@_0BB@KCIACLNC@PDBOpenValidate5@ 0000000180077938     MSVCRTD:pdblkup.obj
 0002:000239b0       _load_config_used          00000001800779b0     MSVCRTD:loadcfg.obj
 0002:00023ab0       ??_R4concurrent_queue_base_v3@internal@tbb@@6B@ 0000000180077ab0     concurrent_queue.obj
 0002:00023ad8       ??_R3concurrent_queue_base_v3@internal@tbb@@8 0000000180077ad8     concurrent_queue.obj
 0002:00023af0       ??_R2concurrent_queue_base_v3@internal@tbb@@8 0000000180077af0     concurrent_queue.obj
 0002:00023b10       ??_R1A@?0A@EA@concurrent_queue_base_v3@internal@tbb@@8 0000000180077b10     concurrent_queue.obj
 0002:00023b38       ??_R17?0A@EN@no_copy@internal@tbb@@8 0000000180077b38     concurrent_queue.obj
 0002:00023b60       ??_R3no_copy@internal@tbb@@8 0000000180077b60     concurrent_queue.obj
 0002:00023b78       ??_R2no_copy@internal@tbb@@8 0000000180077b78     concurrent_queue.obj
 0002:00023b90       ??_R1A@?0A@EA@no_copy@internal@tbb@@8 0000000180077b90     concurrent_queue.obj
 0002:00023bb8       ??_R1A@?0A@EN@no_assign@internal@tbb@@8 0000000180077bb8     concurrent_queue.obj
 0002:00023be0       ??_R3no_assign@internal@tbb@@8 0000000180077be0     concurrent_queue.obj
 0002:00023bf8       ??_R2no_assign@internal@tbb@@8 0000000180077bf8     concurrent_queue.obj
 0002:00023c08       ??_R1A@?0A@EA@no_assign@internal@tbb@@8 0000000180077c08     concurrent_queue.obj
 0002:00023c30       ??_R17?0A@EN@no_assign@internal@tbb@@8 0000000180077c30     concurrent_queue.obj
 0002:00023c58       ??_R4task@tbb@@6B@         0000000180077c58     pipeline.obj
 0002:00023c80       ??_R3task@tbb@@8           0000000180077c80     pipeline.obj
 0002:00023c98       ??_R2task@tbb@@8           0000000180077c98     pipeline.obj
 0002:00023cc0       ??_R1A@?0A@EA@task@tbb@@8  0000000180077cc0     pipeline.obj
 0002:00023ce8       ??_R17?0A@EA@task_base@internal@interface5@tbb@@8 0000000180077ce8     pipeline.obj
 0002:00023d10       ??_R3task_base@internal@interface5@tbb@@8 0000000180077d10     pipeline.obj
 0002:00023d28       ??_R2task_base@internal@interface5@tbb@@8 0000000180077d28     pipeline.obj
 0002:00023d48       ??_R1A@?0A@EA@task_base@internal@interface5@tbb@@8 0000000180077d48     pipeline.obj
 0002:00023d70       ??_R1A@?0A@EN@no_copy@internal@tbb@@8 0000000180077d70     pipeline.obj
 0002:00023d98       ??_R4pipeline@tbb@@6B@     0000000180077d98     pipeline.obj
 0002:00023dc0       ??_R3pipeline@tbb@@8       0000000180077dc0     pipeline.obj
 0002:00023dd8       ??_R2pipeline@tbb@@8       0000000180077dd8     pipeline.obj
 0002:00023de8       ??_R1A@?0A@EA@pipeline@tbb@@8 0000000180077de8     pipeline.obj
 0002:00023e10       ??_R4filter@tbb@@6B@       0000000180077e10     pipeline.obj
 0002:00023e38       ??_R3filter@tbb@@8         0000000180077e38     pipeline.obj
 0002:00023e50       ??_R2filter@tbb@@8         0000000180077e50     pipeline.obj
 0002:00023e70       ??_R1A@?0A@EA@filter@tbb@@8 0000000180077e70     pipeline.obj
 0002:00023e98       ??_R4stage_task@internal@tbb@@6B@ 0000000180077e98     pipeline.obj
 0002:00023ec0       ??_R3stage_task@internal@tbb@@8 0000000180077ec0     pipeline.obj
 0002:00023ed8       ??_R2stage_task@internal@tbb@@8 0000000180077ed8     pipeline.obj
 0002:00023f10       ??_R1A@?0A@EA@stage_task@internal@tbb@@8 0000000180077f10     pipeline.obj
 0002:00023f38       ??_R17?0A@EA@task_info@internal@tbb@@8 0000000180077f38     pipeline.obj
 0002:00023f60       ??_R3task_info@internal@tbb@@8 0000000180077f60     pipeline.obj
 0002:00023f78       ??_R2task_info@internal@tbb@@8 0000000180077f78     pipeline.obj
 0002:00023f88       ??_R1A@?0A@EA@task_info@internal@tbb@@8 0000000180077f88     pipeline.obj
 0002:00023fb0       ??_R4pipeline_root_task@internal@tbb@@6B@ 0000000180077fb0     pipeline.obj
 0002:00023fd8       ??_R3pipeline_root_task@internal@tbb@@8 0000000180077fd8     pipeline.obj
 0002:00023ff0       ??_R2pipeline_root_task@internal@tbb@@8 0000000180077ff0     pipeline.obj
 0002:00024020       ??_R1A@?0A@EA@pipeline_root_task@internal@tbb@@8 0000000180078020     pipeline.obj
 0002:00024048       ??_R4server@rml@@6B@       0000000180078048     private_server.obj
 0002:00024070       ??_R3server@rml@@8         0000000180078070     private_server.obj
 0002:00024088       ??_R2server@rml@@8         0000000180078088     private_server.obj
 0002:000240a0       ??_R1A@?0A@EA@server@rml@@8 00000001800780a0     private_server.obj
 0002:000240c8       ??_R1A@?0A@EA@versioned_object@rml@@8 00000001800780c8     private_server.obj
 0002:000240f0       ??_R3versioned_object@rml@@8 00000001800780f0     private_server.obj
 0002:00024108       ??_R2versioned_object@rml@@8 0000000180078108     private_server.obj
 0002:00024118       ??_R4versioned_object@rml@@6B@ 0000000180078118     private_server.obj
 0002:00024140       ??_R4tbb_server@rml@internal@tbb@@6B@ 0000000180078140     private_server.obj
 0002:00024168       ??_R3tbb_server@rml@internal@tbb@@8 0000000180078168     private_server.obj
 0002:00024180       ??_R2tbb_server@rml@internal@tbb@@8 0000000180078180     private_server.obj
 0002:000241a0       ??_R1A@?0A@EA@tbb_server@rml@internal@tbb@@8 00000001800781a0     private_server.obj
 0002:000241c8       ??_R4private_server@rml@internal@tbb@@6B@ 00000001800781c8     private_server.obj
 0002:000241f0       ??_R3private_server@rml@internal@tbb@@8 00000001800781f0     private_server.obj
 0002:00024208       ??_R2private_server@rml@internal@tbb@@8 0000000180078208     private_server.obj
 0002:00024240       ??_R1A@?0A@EA@private_server@rml@internal@tbb@@8 0000000180078240     private_server.obj
 0002:00024268       ??_R4exception@std@@6B@    0000000180078268     tbb_misc.obj
 0002:00024290       ??_R3exception@std@@8      0000000180078290     tbb_misc.obj
 0002:000242a8       ??_R2exception@std@@8      00000001800782a8     tbb_misc.obj
 0002:000242b8       ??_R1A@?0A@EA@exception@std@@8 00000001800782b8     tbb_misc.obj
 0002:000242e0       ??_R4bad_alloc@std@@6B@    00000001800782e0     tbb_misc.obj
 0002:00024308       ??_R3bad_alloc@std@@8      0000000180078308     tbb_misc.obj
 0002:00024320       ??_R2bad_alloc@std@@8      0000000180078320     tbb_misc.obj
 0002:00024338       ??_R1A@?0A@EA@bad_alloc@std@@8 0000000180078338     tbb_misc.obj
 0002:00024360       ??_R4logic_error@std@@6B@  0000000180078360     tbb_misc.obj
 0002:00024388       ??_R3logic_error@std@@8    0000000180078388     tbb_misc.obj
 0002:000243a0       ??_R2logic_error@std@@8    00000001800783a0     tbb_misc.obj
 0002:000243b8       ??_R1A@?0A@EA@logic_error@std@@8 00000001800783b8     tbb_misc.obj
 0002:000243e0       ??_R4invalid_argument@std@@6B@ 00000001800783e0     tbb_misc.obj
 0002:00024408       ??_R3invalid_argument@std@@8 0000000180078408     tbb_misc.obj
 0002:00024420       ??_R2invalid_argument@std@@8 0000000180078420     tbb_misc.obj
 0002:00024440       ??_R1A@?0A@EA@invalid_argument@std@@8 0000000180078440     tbb_misc.obj
 0002:00024468       ??_R4length_error@std@@6B@ 0000000180078468     tbb_misc.obj
 0002:00024490       ??_R3length_error@std@@8   0000000180078490     tbb_misc.obj
 0002:000244a8       ??_R2length_error@std@@8   00000001800784a8     tbb_misc.obj
 0002:000244c8       ??_R1A@?0A@EA@length_error@std@@8 00000001800784c8     tbb_misc.obj
 0002:000244f0       ??_R4out_of_range@std@@6B@ 00000001800784f0     tbb_misc.obj
 0002:00024518       ??_R3out_of_range@std@@8   0000000180078518     tbb_misc.obj
 0002:00024530       ??_R2out_of_range@std@@8   0000000180078530     tbb_misc.obj
 0002:00024550       ??_R1A@?0A@EA@out_of_range@std@@8 0000000180078550     tbb_misc.obj
 0002:00024578       ??_R4runtime_error@std@@6B@ 0000000180078578     tbb_misc.obj
 0002:000245a0       ??_R3runtime_error@std@@8  00000001800785a0     tbb_misc.obj
 0002:000245b8       ??_R2runtime_error@std@@8  00000001800785b8     tbb_misc.obj
 0002:000245d0       ??_R1A@?0A@EA@runtime_error@std@@8 00000001800785d0     tbb_misc.obj
 0002:000245f8       ??_R4range_error@std@@6B@  00000001800785f8     tbb_misc.obj
 0002:00024620       ??_R3range_error@std@@8    0000000180078620     tbb_misc.obj
 0002:00024638       ??_R2range_error@std@@8    0000000180078638     tbb_misc.obj
 0002:00024658       ??_R1A@?0A@EA@range_error@std@@8 0000000180078658     tbb_misc.obj
 0002:00024680       ??_R4bad_last_alloc@tbb@@6B@ 0000000180078680     tbb_misc.obj
 0002:000246a8       ??_R3bad_last_alloc@tbb@@8 00000001800786a8     tbb_misc.obj
 0002:000246c0       ??_R2bad_last_alloc@tbb@@8 00000001800786c0     tbb_misc.obj
 0002:000246e0       ??_R1A@?0A@EA@bad_last_alloc@tbb@@8 00000001800786e0     tbb_misc.obj
 0002:00024708       ??_R4improper_lock@tbb@@6B@ 0000000180078708     tbb_misc.obj
 0002:00024730       ??_R3improper_lock@tbb@@8  0000000180078730     tbb_misc.obj
 0002:00024748       ??_R2improper_lock@tbb@@8  0000000180078748     tbb_misc.obj
 0002:00024760       ??_R1A@?0A@EA@improper_lock@tbb@@8 0000000180078760     tbb_misc.obj
 0002:00024788       ??_R4user_abort@tbb@@6B@   0000000180078788     tbb_misc.obj
 0002:000247b0       ??_R3user_abort@tbb@@8     00000001800787b0     tbb_misc.obj
 0002:000247c8       ??_R2user_abort@tbb@@8     00000001800787c8     tbb_misc.obj
 0002:000247e0       ??_R1A@?0A@EA@user_abort@tbb@@8 00000001800787e0     tbb_misc.obj
 0002:00024808       ??_R4missing_wait@tbb@@6B@ 0000000180078808     tbb_misc.obj
 0002:00024830       ??_R3missing_wait@tbb@@8   0000000180078830     tbb_misc.obj
 0002:00024848       ??_R2missing_wait@tbb@@8   0000000180078848     tbb_misc.obj
 0002:00024860       ??_R1A@?0A@EA@missing_wait@tbb@@8 0000000180078860     tbb_misc.obj
 0002:00024888       ??_R4invalid_multiple_scheduling@tbb@@6B@ 0000000180078888     tbb_misc.obj
 0002:000248b0       ??_R3invalid_multiple_scheduling@tbb@@8 00000001800788b0     tbb_misc.obj
 0002:000248c8       ??_R2invalid_multiple_scheduling@tbb@@8 00000001800788c8     tbb_misc.obj
 0002:000248e0       ??_R1A@?0A@EA@invalid_multiple_scheduling@tbb@@8 00000001800788e0     tbb_misc.obj
 0002:00024908       ??_R4tbb_exception@tbb@@6B@ 0000000180078908     task_group_context.obj
 0002:00024930       ??_R3tbb_exception@tbb@@8  0000000180078930     task_group_context.obj
 0002:00024948       ??_R2tbb_exception@tbb@@8  0000000180078948     task_group_context.obj
 0002:00024960       ??_R1A@?0A@EA@tbb_exception@tbb@@8 0000000180078960     task_group_context.obj
 0002:00024988       ??_R4captured_exception@tbb@@6B@ 0000000180078988     task_group_context.obj
 0002:000249b0       ??_R3captured_exception@tbb@@8 00000001800789b0     task_group_context.obj
 0002:000249c8       ??_R2captured_exception@tbb@@8 00000001800789c8     task_group_context.obj
 0002:000249e8       ??_R1A@?0A@EA@captured_exception@tbb@@8 00000001800789e8     task_group_context.obj
 0002:00024a10       ??_R4market@internal@tbb@@6B@ 0000000180078a10     market.obj
 0002:00024a38       ??_R3market@internal@tbb@@8 0000000180078a38     market.obj
 0002:00024a50       ??_R2market@internal@tbb@@8 0000000180078a50     market.obj
 0002:00024a88       ??_R1A@?0A@EA@market@internal@tbb@@8 0000000180078a88     market.obj
 0002:00024ab0       ??_R1A@?0A@EN@tbb_client@rml@internal@tbb@@8 0000000180078ab0     market.obj
 0002:00024ad8       ??_R3tbb_client@rml@internal@tbb@@8 0000000180078ad8     market.obj
 0002:00024af0       ??_R2tbb_client@rml@internal@tbb@@8 0000000180078af0     market.obj
 0002:00024b10       ??_R1A@?0A@EA@tbb_client@rml@internal@tbb@@8 0000000180078b10     market.obj
 0002:00024b38       ??_R1A@?0A@EA@client@rml@@8 0000000180078b38     market.obj
 0002:00024b60       ??_R3client@rml@@8         0000000180078b60     market.obj
 0002:00024b78       ??_R2client@rml@@8         0000000180078b78     market.obj
 0002:00024b90       ??_R1A@?0A@EJ@client@rml@@8 0000000180078b90     market.obj
 0002:00024bb8       ??_R1A@?0A@EJ@versioned_object@rml@@8 0000000180078bb8     market.obj
 0002:00024be0       ??_R4client@rml@@6B@       0000000180078be0     market.obj
 0002:00024c08       ??_R4tbb_client@rml@internal@tbb@@6B@ 0000000180078c08     market.obj
 0002:00024c30       ??_R4empty_task@tbb@@6B@   0000000180078c30     arena.obj
 0002:00024c58       ??_R3empty_task@tbb@@8     0000000180078c58     arena.obj
 0002:00024c70       ??_R2empty_task@tbb@@8     0000000180078c70     arena.obj
 0002:00024ca0       ??_R1A@?0A@EA@empty_task@tbb@@8 0000000180078ca0     arena.obj
 0002:00024cc8       ??_R4delegated_task@internal@interface7@tbb@@6B@ 0000000180078cc8     arena.obj
 0002:00024cf0       ??_R3delegated_task@internal@interface7@tbb@@8 0000000180078cf0     arena.obj
 0002:00024d08       ??_R2delegated_task@internal@interface7@tbb@@8 0000000180078d08     arena.obj
 0002:00024d38       ??_R1A@?0A@EA@delegated_task@internal@interface7@tbb@@8 0000000180078d38     arena.obj
 0002:00024d60       ??_R4wait_task@internal@interface7@tbb@@6B@ 0000000180078d60     arena.obj
 0002:00024d88       ??_R3wait_task@internal@interface7@tbb@@8 0000000180078d88     arena.obj
 0002:00024da0       ??_R2wait_task@internal@interface7@tbb@@8 0000000180078da0     arena.obj
 0002:00024dd0       ??_R1A@?0A@EA@wait_task@internal@interface7@tbb@@8 0000000180078dd0     arena.obj
 0002:00024df8       ??_R4?$function_task@Vspawn_functor@graph@interface10@flow@tbb@@@internal@tbb@@6B@ 0000000180078df8     arena.obj
 0002:00024e20       ??_R3?$function_task@Vspawn_functor@graph@interface10@flow@tbb@@@internal@tbb@@8 0000000180078e20     arena.obj
 0002:00024e38       ??_R2?$function_task@Vspawn_functor@graph@interface10@flow@tbb@@@internal@tbb@@8 0000000180078e38     arena.obj
 0002:00024e68       ??_R1A@?0A@EA@?$function_task@Vspawn_functor@graph@interface10@flow@tbb@@@internal@tbb@@8 0000000180078e68     arena.obj
 0002:00024e90       ??_R4scheduler@internal@tbb@@6B@ 0000000180078e90     scheduler.obj
 0002:00024eb8       ??_R3scheduler@internal@tbb@@8 0000000180078eb8     scheduler.obj
 0002:00024ed0       ??_R2scheduler@internal@tbb@@8 0000000180078ed0     scheduler.obj
 0002:00024ef0       ??_R1A@?0A@EA@scheduler@internal@tbb@@8 0000000180078ef0     scheduler.obj
 0002:00024f18       ??_R4generic_scheduler@internal@tbb@@6B@ 0000000180078f18     scheduler.obj
 0002:00024f40       ??_R3generic_scheduler@internal@tbb@@8 0000000180078f40     scheduler.obj
 0002:00024f58       ??_R2generic_scheduler@internal@tbb@@8 0000000180078f58     scheduler.obj
 0002:00024f98       ??_R1A@?0A@EA@generic_scheduler@internal@tbb@@8 0000000180078f98     scheduler.obj
 0002:00024fc0       ??_R17?0A@EA@job@rml@@8    0000000180078fc0     scheduler.obj
 0002:00024fe8       ??_R3job@rml@@8            0000000180078fe8     scheduler.obj
 0002:00025000       ??_R2job@rml@@8            0000000180079000     scheduler.obj
 0002:00025010       ??_R1A@?0A@EA@job@rml@@8   0000000180079010     scheduler.obj
 0002:00025038       ??_R1BA@?0A@EA@intrusive_list_node@internal@tbb@@8 0000000180079038     scheduler.obj
 0002:00025060       ??_R3intrusive_list_node@internal@tbb@@8 0000000180079060     scheduler.obj
 0002:00025078       ??_R2intrusive_list_node@internal@tbb@@8 0000000180079078     scheduler.obj
 0002:00025088       ??_R1A@?0A@EA@intrusive_list_node@internal@tbb@@8 0000000180079088     scheduler.obj
 0002:000250b0       ??_R1CA@?0A@EA@scheduler_state@internal@tbb@@8 00000001800790b0     scheduler.obj
 0002:000250d8       ??_R3scheduler_state@internal@tbb@@8 00000001800790d8     scheduler.obj
 0002:000250f0       ??_R2scheduler_state@internal@tbb@@8 00000001800790f0     scheduler.obj
 0002:00025100       ??_R1A@?0A@EA@scheduler_state@internal@tbb@@8 0000000180079100     scheduler.obj
 0002:00025128       ??_R4?$custom_scheduler@UDefaultSchedulerTraits@internal@tbb@@@internal@tbb@@6B@ 0000000180079128     scheduler.obj
 0002:00025150       ??_R3?$custom_scheduler@UDefaultSchedulerTraits@internal@tbb@@@internal@tbb@@8 0000000180079150     scheduler.obj
 0002:00025170       ??_R2?$custom_scheduler@UDefaultSchedulerTraits@internal@tbb@@@internal@tbb@@8 0000000180079170     scheduler.obj
 0002:000251b8       ??_R1A@?0A@EA@?$custom_scheduler@UDefaultSchedulerTraits@internal@tbb@@@internal@tbb@@8 00000001800791b8     scheduler.obj
 0002:000251e0       ??_R1A@?0A@EN@generic_scheduler@internal@tbb@@8 00000001800791e0     scheduler.obj
 0002:00025208       ??_R1A@?0A@EJ@scheduler@internal@tbb@@8 0000000180079208     scheduler.obj
 0002:00025230       ??_R17?0A@EJ@job@rml@@8    0000000180079230     scheduler.obj
 0002:00025258       ??_R1BA@?0A@EJ@intrusive_list_node@internal@tbb@@8 0000000180079258     scheduler.obj
 0002:00025280       ??_R1CA@?0A@EJ@scheduler_state@internal@tbb@@8 0000000180079280     scheduler.obj
 0002:000252a8       ??_R4?$custom_scheduler@UIntelSchedulerTraits@internal@tbb@@@internal@tbb@@6B@ 00000001800792a8     scheduler.obj
 0002:000252d0       ??_R3?$custom_scheduler@UIntelSchedulerTraits@internal@tbb@@@internal@tbb@@8 00000001800792d0     scheduler.obj
 0002:000252f0       ??_R2?$custom_scheduler@UIntelSchedulerTraits@internal@tbb@@@internal@tbb@@8 00000001800792f0     scheduler.obj
 0002:00025338       ??_R1A@?0A@EA@?$custom_scheduler@UIntelSchedulerTraits@internal@tbb@@@internal@tbb@@8 0000000180079338     scheduler.obj
 0002:00025360       ??_R4control_storage@internal@tbb@@6B@ 0000000180079360     tbb_main.obj
 0002:00025388       ??_R3control_storage@internal@tbb@@8 0000000180079388     tbb_main.obj
 0002:000253a0       ??_R2control_storage@internal@tbb@@8 00000001800793a0     tbb_main.obj
 0002:000253b0       ??_R1A@?0A@EA@control_storage@internal@tbb@@8 00000001800793b0     tbb_main.obj
 0002:000253d8       ??_R4allowed_parallelism_control@internal@tbb@@6B@ 00000001800793d8     tbb_main.obj
 0002:00025400       ??_R3allowed_parallelism_control@internal@tbb@@8 0000000180079400     tbb_main.obj
 0002:00025418       ??_R2allowed_parallelism_control@internal@tbb@@8 0000000180079418     tbb_main.obj
 0002:00025440       ??_R1A@?0A@EA@allowed_parallelism_control@internal@tbb@@8 0000000180079440     tbb_main.obj
 0002:00025468       ??_R1A@?0A@EA@?$padded@Vcontrol_storage@internal@tbb@@$0IA@@internal@tbb@@8 0000000180079468     tbb_main.obj
 0002:00025490       ??_R3?$padded@Vcontrol_storage@internal@tbb@@$0IA@@internal@tbb@@8 0000000180079490     tbb_main.obj
 0002:000254a8       ??_R2?$padded@Vcontrol_storage@internal@tbb@@$0IA@@internal@tbb@@8 00000001800794a8     tbb_main.obj
 0002:000254c8       ??_R1A@?0A@EA@?$padded_base@Vcontrol_storage@internal@tbb@@$0IA@$0CA@@internal@tbb@@8 00000001800794c8     tbb_main.obj
 0002:000254f0       ??_R3?$padded_base@Vcontrol_storage@internal@tbb@@$0IA@$0CA@@internal@tbb@@8 00000001800794f0     tbb_main.obj
 0002:00025508       ??_R2?$padded_base@Vcontrol_storage@internal@tbb@@$0IA@$0CA@@internal@tbb@@8 0000000180079508     tbb_main.obj
 0002:00025520       ??_R4?$padded@Vcontrol_storage@internal@tbb@@$0IA@@internal@tbb@@6B@ 0000000180079520     tbb_main.obj
 0002:00025548       ??_R4?$padded_base@Vcontrol_storage@internal@tbb@@$0IA@$0CA@@internal@tbb@@6B@ 0000000180079548     tbb_main.obj
 0002:00025570       ??_R4stack_size_control@internal@tbb@@6B@ 0000000180079570     tbb_main.obj
 0002:00025598       ??_R3stack_size_control@internal@tbb@@8 0000000180079598     tbb_main.obj
 0002:000255b0       ??_R2stack_size_control@internal@tbb@@8 00000001800795b0     tbb_main.obj
 0002:000255d8       ??_R1A@?0A@EA@stack_size_control@internal@tbb@@8 00000001800795d8     tbb_main.obj
 0002:00025600       ??_R4concurrent_queue_base@internal@tbb@@6B@ 0000000180079600     concurrent_queue_v2.obj
 0002:00025628       ??_R3concurrent_queue_base@internal@tbb@@8 0000000180079628     concurrent_queue_v2.obj
 0002:00025640       ??_R2concurrent_queue_base@internal@tbb@@8 0000000180079640     concurrent_queue_v2.obj
 0002:00025660       ??_R1A@?0A@EA@concurrent_queue_base@internal@tbb@@8 0000000180079660     concurrent_queue_v2.obj
 0002:00025688       ??_R4type_info@@6B@        0000000180079688     MSVCRTD:std_type_info_static.obj
 0002:000256b0       ??_R3type_info@@8          00000001800796b0     MSVCRTD:std_type_info_static.obj
 0002:000256c8       ??_R2type_info@@8          00000001800796c8     MSVCRTD:std_type_info_static.obj
 0002:000256d8       ??_R1A@?0A@EA@type_info@@8 00000001800796d8     MSVCRTD:std_type_info_static.obj
 0002:00025700       ??_R4bad_array_new_length@std@@6B@ 0000000180079700     MSVCRTD:throw_bad_alloc.obj
 0002:00025728       ??_R3bad_array_new_length@std@@8 0000000180079728     MSVCRTD:throw_bad_alloc.obj
 0002:00025740       ??_R2bad_array_new_length@std@@8 0000000180079740     MSVCRTD:throw_bad_alloc.obj
 0002:00025760       ??_R1A@?0A@EA@bad_array_new_length@std@@8 0000000180079760     MSVCRTD:throw_bad_alloc.obj
 0002:00025ae0       __rtc_iaa                  0000000180079ae0     MSVCRTD:initsect.obj
 0002:00025c00       __rtc_izz                  0000000180079c00     MSVCRTD:initsect.obj
 0002:00025c08       __rtc_taa                  0000000180079c08     MSVCRTD:initsect.obj
 0002:00025d28       __rtc_tzz                  0000000180079d28     MSVCRTD:initsect.obj
 0002:0002cce0       _TI2?AVruntime_error@std@@ 0000000180080ce0     tbb_misc.obj
 0002:0002cd00       _CTA2?AVruntime_error@std@@ 0000000180080d00     tbb_misc.obj
 0002:0002cd18       _CT??_R0?AVruntime_error@std@@@8??0runtime_error@std@@QEAA@AEBV01@@Z24 0000000180080d18     tbb_misc.obj
 0002:0002cd40       _CT??_R0?AVexception@std@@@8??0exception@std@@QEAA@AEBV01@@Z24 0000000180080d40     tbb_misc.obj
 0002:0002cd68       _TI2?AVbad_alloc@std@@     0000000180080d68     tbb_misc.obj
 0002:0002cd88       _CTA2?AVbad_alloc@std@@    0000000180080d88     tbb_misc.obj
 0002:0002cda0       _CT??_R0?AVbad_alloc@std@@@8??0bad_alloc@std@@QEAA@AEBV01@@Z24 0000000180080da0     tbb_misc.obj
 0002:0002cdc8       _TI3?AVbad_last_alloc@tbb@@ 0000000180080dc8     tbb_misc.obj
 0002:0002cde8       _CTA3?AVbad_last_alloc@tbb@@ 0000000180080de8     tbb_misc.obj
 0002:0002ce08       _CT??_R0?AVbad_last_alloc@tbb@@@8??0bad_last_alloc@tbb@@QEAA@AEBV01@@Z24 0000000180080e08     tbb_misc.obj
 0002:0002ce30       _TI3?AVinvalid_argument@std@@ 0000000180080e30     tbb_misc.obj
 0002:0002ce50       _CTA3?AVinvalid_argument@std@@ 0000000180080e50     tbb_misc.obj
 0002:0002ce70       _CT??_R0?AVinvalid_argument@std@@@8??0invalid_argument@std@@QEAA@AEBV01@@Z24 0000000180080e70     tbb_misc.obj
 0002:0002ce98       _CT??_R0?AVlogic_error@std@@@8??0logic_error@std@@QEAA@AEBV01@@Z24 0000000180080e98     tbb_misc.obj
 0002:0002cec0       _TI3?AVout_of_range@std@@  0000000180080ec0     tbb_misc.obj
 0002:0002cee0       _CTA3?AVout_of_range@std@@ 0000000180080ee0     tbb_misc.obj
 0002:0002cf00       _CT??_R0?AVout_of_range@std@@@8??0out_of_range@std@@QEAA@AEBV01@@Z24 0000000180080f00     tbb_misc.obj
 0002:0002cf28       _TI3?AVrange_error@std@@   0000000180080f28     tbb_misc.obj
 0002:0002cf48       _CTA3?AVrange_error@std@@  0000000180080f48     tbb_misc.obj
 0002:0002cf68       _CT??_R0?AVrange_error@std@@@8??0range_error@std@@QEAA@AEBV01@@Z24 0000000180080f68     tbb_misc.obj
 0002:0002cf90       _TI2?AVmissing_wait@tbb@@  0000000180080f90     tbb_misc.obj
 0002:0002cfb0       _CTA2?AVmissing_wait@tbb@@ 0000000180080fb0     tbb_misc.obj
 0002:0002cfc8       _CT??_R0?AVmissing_wait@tbb@@@8??0missing_wait@tbb@@QEAA@AEBV01@@Z24 0000000180080fc8     tbb_misc.obj
 0002:0002cff0       _TI2?AVinvalid_multiple_scheduling@tbb@@ 0000000180080ff0     tbb_misc.obj
 0002:0002d010       _CTA2?AVinvalid_multiple_scheduling@tbb@@ 0000000180081010     tbb_misc.obj
 0002:0002d028       _CT??_R0?AVinvalid_multiple_scheduling@tbb@@@8??0invalid_multiple_scheduling@tbb@@QEAA@AEBV01@@Z24 0000000180081028     tbb_misc.obj
 0002:0002d050       _TI2?AVimproper_lock@tbb@@ 0000000180081050     tbb_misc.obj
 0002:0002d070       _CTA2?AVimproper_lock@tbb@@ 0000000180081070     tbb_misc.obj
 0002:0002d088       _CT??_R0?AVimproper_lock@tbb@@@8??0improper_lock@tbb@@QEAA@AEBV01@@Z24 0000000180081088     tbb_misc.obj
 0002:0002d0b0       _TI3?AVlength_error@std@@  00000001800810b0     tbb_misc.obj
 0002:0002d0d0       _CTA3?AVlength_error@std@@ 00000001800810d0     tbb_misc.obj
 0002:0002d0f0       _CT??_R0?AVlength_error@std@@@8??0length_error@std@@QEAA@AEBV01@@Z24 00000001800810f0     tbb_misc.obj
 0002:0002d118       _TI2?AVuser_abort@tbb@@    0000000180081118     tbb_misc.obj
 0002:0002d138       _CTA2?AVuser_abort@tbb@@   0000000180081138     tbb_misc.obj
 0002:0002d150       _CT??_R0?AVuser_abort@tbb@@@8??0user_abort@tbb@@QEAA@AEBV01@@Z24 0000000180081150     tbb_misc.obj
 0002:0002d178       _TI3?AVcaptured_exception@tbb@@ 0000000180081178     task_group_context.obj
 0002:0002d198       _CTA3?AVcaptured_exception@tbb@@ 0000000180081198     task_group_context.obj
 0002:0002d1b8       _CT??_R0?AVcaptured_exception@tbb@@@8??0captured_exception@tbb@@QEAA@AEBV01@@Z48 00000001800811b8     task_group_context.obj
 0002:0002d1e0       _CT??_R0?AVtbb_exception@tbb@@@8??0tbb_exception@tbb@@QEAA@AEBV01@@Z24 00000001800811e0     task_group_context.obj
 0002:0002d208       _TI3?AVbad_array_new_length@std@@ 0000000180081208     MSVCRTD:throw_bad_alloc.obj
 0002:0002d228       _CTA3?AVbad_array_new_length@std@@ 0000000180081228     MSVCRTD:throw_bad_alloc.obj
 0002:0002d248       _CT??_R0?AVbad_array_new_length@std@@@8??0bad_array_new_length@std@@QEAA@AEBV01@@Z24 0000000180081248     MSVCRTD:throw_bad_alloc.obj
 0002:000313c4       __IMPORT_DESCRIPTOR_KERNEL32 00000001800853c4     kernel32:KERNEL32.dll
 0002:000313d8       __IMPORT_DESCRIPTOR_MSVCP140D 00000001800853d8     msvcprtd:MSVCP140D.dll
 0002:000313ec       __IMPORT_DESCRIPTOR_VCRUNTIME140D 00000001800853ec     vcruntimed:VCRUNTIME140D.dll
 0002:00031400       __IMPORT_DESCRIPTOR_ucrtbased 0000000180085400     ucrtd:ucrtbased.dll
 0002:00031414       __NULL_IMPORT_DESCRIPTOR   0000000180085414     kernel32:KERNEL32.dll
 0003:00000010       ?SyncType_GlobalLock@tbb@@3PEB_WEB 0000000180087010     itt_notify.obj
 0003:00000018       ?SyncType_Scheduler@tbb@@3PEB_WEB 0000000180087018     itt_notify.obj
 0003:00000020       ?SyncObj_SchedulerInitialization@tbb@@3PEB_WEB 0000000180087020     itt_notify.obj
 0003:00000028       ?SyncObj_SchedulersList@tbb@@3PEB_WEB 0000000180087028     itt_notify.obj
 0003:00000030       ?SyncObj_WorkerLifeCycleMgmt@tbb@@3PEB_WEB 0000000180087030     itt_notify.obj
 0003:00000038       ?SyncObj_TaskStealingLoop@tbb@@3PEB_WEB 0000000180087038     itt_notify.obj
 0003:00000040       ?SyncObj_WorkerTaskPool@tbb@@3PEB_WEB 0000000180087040     itt_notify.obj
 0003:00000048       ?SyncObj_MasterTaskPool@tbb@@3PEB_WEB 0000000180087048     itt_notify.obj
 0003:00000050       ?SyncObj_TaskPoolSpinning@tbb@@3PEB_WEB 0000000180087050     itt_notify.obj
 0003:00000058       ?SyncObj_Mailbox@tbb@@3PEB_WEB 0000000180087058     itt_notify.obj
 0003:00000060       ?SyncObj_TaskReturnList@tbb@@3PEB_WEB 0000000180087060     itt_notify.obj
 0003:00000068       ?SyncObj_TaskStream@tbb@@3PEB_WEB 0000000180087068     itt_notify.obj
 0003:00000070       ?SyncObj_ContextsList@tbb@@3PEB_WEB 0000000180087070     itt_notify.obj
 0003:00000078       __itt_detach_ptr__3_0      0000000180087078     itt_notify.obj
 0003:00000080       __itt_sync_createA_ptr__3_0 0000000180087080     itt_notify.obj
 0003:00000088       __itt_sync_createW_ptr__3_0 0000000180087088     itt_notify.obj
 0003:00000090       __itt_sync_renameA_ptr__3_0 0000000180087090     itt_notify.obj
 0003:00000098       __itt_sync_renameW_ptr__3_0 0000000180087098     itt_notify.obj
 0003:000000a0       __itt_sync_destroy_ptr__3_0 00000001800870a0     itt_notify.obj
 0003:000000a8       __itt_sync_prepare_ptr__3_0 00000001800870a8     itt_notify.obj
 0003:000000b0       __itt_sync_cancel_ptr__3_0 00000001800870b0     itt_notify.obj
 0003:000000b8       __itt_sync_acquired_ptr__3_0 00000001800870b8     itt_notify.obj
 0003:000000c0       __itt_sync_releasing_ptr__3_0 00000001800870c0     itt_notify.obj
 0003:000000c8       __itt_suppress_push_ptr__3_0 00000001800870c8     itt_notify.obj
 0003:000000d0       __itt_suppress_pop_ptr__3_0 00000001800870d0     itt_notify.obj
 0003:000000d8       __itt_suppress_mark_range_ptr__3_0 00000001800870d8     itt_notify.obj
 0003:000000e0       __itt_suppress_clear_range_ptr__3_0 00000001800870e0     itt_notify.obj
 0003:000000e8       __itt_fsync_prepare_ptr__3_0 00000001800870e8     itt_notify.obj
 0003:000000f0       __itt_fsync_cancel_ptr__3_0 00000001800870f0     itt_notify.obj
 0003:000000f8       __itt_fsync_acquired_ptr__3_0 00000001800870f8     itt_notify.obj
 0003:00000100       __itt_fsync_releasing_ptr__3_0 0000000180087100     itt_notify.obj
 0003:00000108       __itt_model_site_begin_ptr__3_0 0000000180087108     itt_notify.obj
 0003:00000110       __itt_model_site_end_ptr__3_0 0000000180087110     itt_notify.obj
 0003:00000118       __itt_model_task_begin_ptr__3_0 0000000180087118     itt_notify.obj
 0003:00000120       __itt_model_task_end_ptr__3_0 0000000180087120     itt_notify.obj
 0003:00000128       __itt_model_lock_acquire_ptr__3_0 0000000180087128     itt_notify.obj
 0003:00000130       __itt_model_lock_release_ptr__3_0 0000000180087130     itt_notify.obj
 0003:00000138       __itt_model_record_allocation_ptr__3_0 0000000180087138     itt_notify.obj
 0003:00000140       __itt_model_record_deallocation_ptr__3_0 0000000180087140     itt_notify.obj
 0003:00000148       __itt_model_induction_uses_ptr__3_0 0000000180087148     itt_notify.obj
 0003:00000150       __itt_model_reduction_uses_ptr__3_0 0000000180087150     itt_notify.obj
 0003:00000158       __itt_model_observe_uses_ptr__3_0 0000000180087158     itt_notify.obj
 0003:00000160       __itt_model_clear_uses_ptr__3_0 0000000180087160     itt_notify.obj
 0003:00000168       __itt_model_site_beginW_ptr__3_0 0000000180087168     itt_notify.obj
 0003:00000170       __itt_model_task_beginW_ptr__3_0 0000000180087170     itt_notify.obj
 0003:00000178       __itt_model_iteration_taskW_ptr__3_0 0000000180087178     itt_notify.obj
 0003:00000180       __itt_model_site_beginA_ptr__3_0 0000000180087180     itt_notify.obj
 0003:00000188       __itt_model_site_beginAL_ptr__3_0 0000000180087188     itt_notify.obj
 0003:00000190       __itt_model_task_beginA_ptr__3_0 0000000180087190     itt_notify.obj
 0003:00000198       __itt_model_task_beginAL_ptr__3_0 0000000180087198     itt_notify.obj
 0003:000001a0       __itt_model_iteration_taskA_ptr__3_0 00000001800871a0     itt_notify.obj
 0003:000001a8       __itt_model_iteration_taskAL_ptr__3_0 00000001800871a8     itt_notify.obj
 0003:000001b0       __itt_model_site_end_2_ptr__3_0 00000001800871b0     itt_notify.obj
 0003:000001b8       __itt_model_task_end_2_ptr__3_0 00000001800871b8     itt_notify.obj
 0003:000001c0       __itt_model_lock_acquire_2_ptr__3_0 00000001800871c0     itt_notify.obj
 0003:000001c8       __itt_model_lock_release_2_ptr__3_0 00000001800871c8     itt_notify.obj
 0003:000001d0       __itt_model_aggregate_task_ptr__3_0 00000001800871d0     itt_notify.obj
 0003:000001d8       __itt_model_disable_push_ptr__3_0 00000001800871d8     itt_notify.obj
 0003:000001e0       __itt_model_disable_pop_ptr__3_0 00000001800871e0     itt_notify.obj
 0003:000001e8       __itt_heap_function_createA_ptr__3_0 00000001800871e8     itt_notify.obj
 0003:000001f0       __itt_heap_function_createW_ptr__3_0 00000001800871f0     itt_notify.obj
 0003:000001f8       __itt_heap_allocate_begin_ptr__3_0 00000001800871f8     itt_notify.obj
 0003:00000200       __itt_heap_allocate_end_ptr__3_0 0000000180087200     itt_notify.obj
 0003:00000208       __itt_heap_free_begin_ptr__3_0 0000000180087208     itt_notify.obj
 0003:00000210       __itt_heap_free_end_ptr__3_0 0000000180087210     itt_notify.obj
 0003:00000218       __itt_heap_reallocate_begin_ptr__3_0 0000000180087218     itt_notify.obj
 0003:00000220       __itt_heap_reallocate_end_ptr__3_0 0000000180087220     itt_notify.obj
 0003:00000228       __itt_heap_internal_access_begin_ptr__3_0 0000000180087228     itt_notify.obj
 0003:00000230       __itt_heap_internal_access_end_ptr__3_0 0000000180087230     itt_notify.obj
 0003:00000238       __itt_heap_record_memory_growth_begin_ptr__3_0 0000000180087238     itt_notify.obj
 0003:00000240       __itt_heap_record_memory_growth_end_ptr__3_0 0000000180087240     itt_notify.obj
 0003:00000248       __itt_heap_reset_detection_ptr__3_0 0000000180087248     itt_notify.obj
 0003:00000250       __itt_heap_record_ptr__3_0 0000000180087250     itt_notify.obj
 0003:00000258       __itt_id_create_ptr__3_0   0000000180087258     itt_notify.obj
 0003:00000260       __itt_id_destroy_ptr__3_0  0000000180087260     itt_notify.obj
 0003:00000268       __itt_get_timestamp_ptr__3_0 0000000180087268     itt_notify.obj
 0003:00000270       __itt_region_begin_ptr__3_0 0000000180087270     itt_notify.obj
 0003:00000278       __itt_region_end_ptr__3_0  0000000180087278     itt_notify.obj
 0003:00000280       __itt_frame_begin_v3_ptr__3_0 0000000180087280     itt_notify.obj
 0003:00000288       __itt_frame_end_v3_ptr__3_0 0000000180087288     itt_notify.obj
 0003:00000290       __itt_frame_submit_v3_ptr__3_0 0000000180087290     itt_notify.obj
 0003:00000298       __itt_task_group_ptr__3_0  0000000180087298     itt_notify.obj
 0003:000002a0       __itt_task_begin_ptr__3_0  00000001800872a0     itt_notify.obj
 0003:000002a8       __itt_task_begin_fn_ptr__3_0 00000001800872a8     itt_notify.obj
 0003:000002b0       __itt_task_end_ptr__3_0    00000001800872b0     itt_notify.obj
 0003:000002b8       __itt_counter_inc_v3_ptr__3_0 00000001800872b8     itt_notify.obj
 0003:000002c0       __itt_counter_inc_delta_v3_ptr__3_0 00000001800872c0     itt_notify.obj
 0003:000002c8       __itt_marker_ptr__3_0      00000001800872c8     itt_notify.obj
 0003:000002d0       __itt_metadata_add_ptr__3_0 00000001800872d0     itt_notify.obj
 0003:000002d8       __itt_metadata_str_addA_ptr__3_0 00000001800872d8     itt_notify.obj
 0003:000002e0       __itt_metadata_str_addW_ptr__3_0 00000001800872e0     itt_notify.obj
 0003:000002e8       __itt_relation_add_to_current_ptr__3_0 00000001800872e8     itt_notify.obj
 0003:000002f0       __itt_relation_add_ptr__3_0 00000001800872f0     itt_notify.obj
 0003:000002f8       __itt_event_createA_ptr__3_0 00000001800872f8     itt_notify.obj
 0003:00000300       __itt_event_createW_ptr__3_0 0000000180087300     itt_notify.obj
 0003:00000308       __itt_event_start_ptr__3_0 0000000180087308     itt_notify.obj
 0003:00000310       __itt_event_end_ptr__3_0   0000000180087310     itt_notify.obj
 0003:00000318       __itt_sync_set_nameA_ptr__3_0 0000000180087318     itt_notify.obj
 0003:00000320       __itt_sync_set_nameW_ptr__3_0 0000000180087320     itt_notify.obj
 0003:00000328       __itt_notify_sync_nameA_ptr__3_0 0000000180087328     itt_notify.obj
 0003:00000330       __itt_notify_sync_nameW_ptr__3_0 0000000180087330     itt_notify.obj
 0003:00000338       __itt_notify_sync_prepare_ptr__3_0 0000000180087338     itt_notify.obj
 0003:00000340       __itt_notify_sync_cancel_ptr__3_0 0000000180087340     itt_notify.obj
 0003:00000348       __itt_notify_sync_acquired_ptr__3_0 0000000180087348     itt_notify.obj
 0003:00000350       __itt_notify_sync_releasing_ptr__3_0 0000000180087350     itt_notify.obj
 0003:00000358       __itt_memory_read_ptr__3_0 0000000180087358     itt_notify.obj
 0003:00000360       __itt_memory_write_ptr__3_0 0000000180087360     itt_notify.obj
 0003:00000368       __itt_memory_update_ptr__3_0 0000000180087368     itt_notify.obj
 0003:00000370       __itt_state_get_ptr__3_0   0000000180087370     itt_notify.obj
 0003:00000378       __itt_state_set_ptr__3_0   0000000180087378     itt_notify.obj
 0003:00000380       __itt_obj_mode_set_ptr__3_0 0000000180087380     itt_notify.obj
 0003:00000388       __itt_thr_mode_set_ptr__3_0 0000000180087388     itt_notify.obj
 0003:00000390       __itt_frame_createA_ptr__3_0 0000000180087390     itt_notify.obj
 0003:00000398       __itt_frame_createW_ptr__3_0 0000000180087398     itt_notify.obj
 0003:000003a0       __itt_frame_begin_ptr__3_0 00000001800873a0     itt_notify.obj
 0003:000003a8       __itt_frame_end_ptr__3_0   00000001800873a8     itt_notify.obj
 0003:000003b0       __itt_counter_createA_ptr__3_0 00000001800873b0     itt_notify.obj
 0003:000003b8       __itt_counter_createW_ptr__3_0 00000001800873b8     itt_notify.obj
 0003:000003c0       __itt_counter_destroy_ptr__3_0 00000001800873c0     itt_notify.obj
 0003:000003c8       __itt_counter_inc_ptr__3_0 00000001800873c8     itt_notify.obj
 0003:000003d0       __itt_counter_inc_delta_ptr__3_0 00000001800873d0     itt_notify.obj
 0003:000003d8       __itt_mark_createA_ptr__3_0 00000001800873d8     itt_notify.obj
 0003:000003e0       __itt_mark_createW_ptr__3_0 00000001800873e0     itt_notify.obj
 0003:000003e8       __itt_markA_ptr__3_0       00000001800873e8     itt_notify.obj
 0003:000003f0       __itt_markW_ptr__3_0       00000001800873f0     itt_notify.obj
 0003:000003f8       __itt_mark_off_ptr__3_0    00000001800873f8     itt_notify.obj
 0003:00000400       __itt_mark_globalA_ptr__3_0 0000000180087400     itt_notify.obj
 0003:00000408       __itt_mark_globalW_ptr__3_0 0000000180087408     itt_notify.obj
 0003:00000410       __itt_mark_global_off_ptr__3_0 0000000180087410     itt_notify.obj
 0003:00000418       __itt_stack_caller_create_ptr__3_0 0000000180087418     itt_notify.obj
 0003:00000420       __itt_stack_caller_destroy_ptr__3_0 0000000180087420     itt_notify.obj
 0003:00000428       __itt_stack_callee_enter_ptr__3_0 0000000180087428     itt_notify.obj
 0003:00000430       __itt_stack_callee_leave_ptr__3_0 0000000180087430     itt_notify.obj
 0003:00000438       __itt_clock_domain_create_ptr__3_0 0000000180087438     itt_notify.obj
 0003:00000440       __itt_clock_domain_reset_ptr__3_0 0000000180087440     itt_notify.obj
 0003:00000448       __itt_id_create_ex_ptr__3_0 0000000180087448     itt_notify.obj
 0003:00000450       __itt_id_destroy_ex_ptr__3_0 0000000180087450     itt_notify.obj
 0003:00000458       __itt_task_begin_ex_ptr__3_0 0000000180087458     itt_notify.obj
 0003:00000460       __itt_task_begin_fn_ex_ptr__3_0 0000000180087460     itt_notify.obj
 0003:00000468       __itt_task_end_ex_ptr__3_0 0000000180087468     itt_notify.obj
 0003:00000470       __itt_task_begin_overlapped_ptr__3_0 0000000180087470     itt_notify.obj
 0003:00000478       __itt_task_begin_overlapped_ex_ptr__3_0 0000000180087478     itt_notify.obj
 0003:00000480       __itt_task_end_overlapped_ptr__3_0 0000000180087480     itt_notify.obj
 0003:00000488       __itt_task_end_overlapped_ex_ptr__3_0 0000000180087488     itt_notify.obj
 0003:00000490       __itt_marker_ex_ptr__3_0   0000000180087490     itt_notify.obj
 0003:00000498       __itt_metadata_add_with_scope_ptr__3_0 0000000180087498     itt_notify.obj
 0003:000004a0       __itt_metadata_str_add_with_scopeA_ptr__3_0 00000001800874a0     itt_notify.obj
 0003:000004a8       __itt_metadata_str_add_with_scopeW_ptr__3_0 00000001800874a8     itt_notify.obj
 0003:000004b0       __itt_relation_add_to_current_ex_ptr__3_0 00000001800874b0     itt_notify.obj
 0003:000004b8       __itt_relation_add_ex_ptr__3_0 00000001800874b8     itt_notify.obj
 0003:000004c0       __itt_track_group_create_ptr__3_0 00000001800874c0     itt_notify.obj
 0003:000004c8       __itt_track_create_ptr__3_0 00000001800874c8     itt_notify.obj
 0003:000004d0       __itt_set_track_ptr__3_0   00000001800874d0     itt_notify.obj
 0003:000004d8       __itt_api_version_ptr__3_0 00000001800874d8     itt_notify.obj
 0003:000004e0       __itt_av_saveA_ptr__3_0    00000001800874e0     itt_notify.obj
 0003:000004e8       __itt_av_saveW_ptr__3_0    00000001800874e8     itt_notify.obj
 0003:000004f0       __itt_domain_createA_ptr__3_0 00000001800874f0     itt_notify.obj
 0003:000004f8       __itt_domain_createW_ptr__3_0 00000001800874f8     itt_notify.obj
 0003:00000500       __itt_string_handle_createA_ptr__3_0 0000000180087500     itt_notify.obj
 0003:00000508       __itt_string_handle_createW_ptr__3_0 0000000180087508     itt_notify.obj
 0003:00000510       __itt_pause_ptr__3_0       0000000180087510     itt_notify.obj
 0003:00000518       __itt_resume_ptr__3_0      0000000180087518     itt_notify.obj
 0003:00000520       __itt_thread_set_nameA_ptr__3_0 0000000180087520     itt_notify.obj
 0003:00000528       __itt_thread_set_nameW_ptr__3_0 0000000180087528     itt_notify.obj
 0003:00000530       __itt_thread_ignore_ptr__3_0 0000000180087530     itt_notify.obj
 0003:00000538       __itt_thr_name_setA_ptr__3_0 0000000180087538     itt_notify.obj
 0003:00000540       __itt_thr_name_setW_ptr__3_0 0000000180087540     itt_notify.obj
 0003:00000548       __itt_thr_ignore_ptr__3_0  0000000180087548     itt_notify.obj
 0003:00000550       __itt_enable_attach_ptr__3_0 0000000180087550     itt_notify.obj
 0003:00001df0       ?__itt__ittapi_global@@3U___itt_global@@A 0000000180088df0     itt_notify.obj
 0003:00002038       ?NumGroups@ProcessorGroupInfo@internal@tbb@@2HA 0000000180089038     tbb_misc_ex.obj
 0003:00002040       ?msg@?1??assert_context_valid@generic_scheduler@internal@tbb@@SAXPEBVtask_group_context@4@@Z@4PEBDEB 0000000180089040     arena.obj
 0003:00002420       __security_cookie_complement 0000000180089420     MSVCRTD:gs_cookie.obj
 0003:00002428       __security_cookie          0000000180089428     MSVCRTD:gs_cookie.obj
 0003:00002430       _fltused                   0000000180089430     MSVCRTD:fltused.obj
 0003:00002440       __scrt_native_dllmain_reason 0000000180089440     MSVCRTD:utility.obj
 0003:00002448       ?_RTC_ErrorLevels@@3PAHA   0000000180089448     MSVCRTD:error.obj
 0003:00002460       __isa_available            0000000180089460     MSVCRTD:cpu_disp.obj
 0003:00002464       __isa_enabled              0000000180089464     MSVCRTD:cpu_disp.obj
 0003:00002468       __memcpy_nt_iters          0000000180089468     MSVCRTD:cpu_disp.obj
 0003:00002470       __scrt_ucrt_dll_is_in_use  0000000180089470     MSVCRTD:ucrt_stubs.obj
 0003:00002480       ??_R0?AVuser_abort@tbb@@@8 0000000180089480     concurrent_queue.obj
 0003:000024a8       ??_R0?AVconcurrent_queue_base_v3@internal@tbb@@@8 00000001800894a8     concurrent_queue.obj
 0003:000024e8       ??_R0?AVno_copy@internal@tbb@@@8 00000001800894e8     concurrent_queue.obj
 0003:00002518       ??_R0?AVno_assign@internal@tbb@@@8 0000000180089518     concurrent_queue.obj
 0003:00002548       ??_R0?AVtask@tbb@@@8       0000000180089548     pipeline.obj
 0003:00002568       ??_R0?AVtask_base@internal@interface5@tbb@@@8 0000000180089568     pipeline.obj
 0003:000025a0       ??_R0?AVpipeline@tbb@@@8   00000001800895a0     pipeline.obj
 0003:000025c8       ??_R0?AVfilter@tbb@@@8     00000001800895c8     pipeline.obj
 0003:000025f0       ??_R0?AVstage_task@internal@tbb@@@8 00000001800895f0     pipeline.obj
 0003:00002620       ??_R0?AUtask_info@internal@tbb@@@8 0000000180089620     pipeline.obj
 0003:00002650       ??_R0?AVpipeline_root_task@internal@tbb@@@8 0000000180089650     pipeline.obj
 0003:00002688       ??_R0?AVserver@rml@@@8     0000000180089688     private_server.obj
 0003:000026b0       ??_R0?AVversioned_object@rml@@@8 00000001800896b0     private_server.obj
 0003:000026e0       ??_R0?AVtbb_server@rml@internal@tbb@@@8 00000001800896e0     private_server.obj
 0003:00002718       ??_R0?AVprivate_server@rml@internal@tbb@@@8 0000000180089718     private_server.obj
 0003:00002750       ??_R0?AVruntime_error@std@@@8 0000000180089750     tbb_misc.obj
 0003:00002778       ??_R0?AVexception@std@@@8  0000000180089778     tbb_misc.obj
 0003:000027a0       ??_R0?AVbad_alloc@std@@@8  00000001800897a0     tbb_misc.obj
 0003:000027c8       ??_R0?AVbad_last_alloc@tbb@@@8 00000001800897c8     tbb_misc.obj
 0003:000027f8       ??_R0?AVinvalid_argument@std@@@8 00000001800897f8     tbb_misc.obj
 0003:00002828       ??_R0?AVlogic_error@std@@@8 0000000180089828     tbb_misc.obj
 0003:00002850       ??_R0?AVout_of_range@std@@@8 0000000180089850     tbb_misc.obj
 0003:00002878       ??_R0?AVrange_error@std@@@8 0000000180089878     tbb_misc.obj
 0003:000028a0       ??_R0?AVmissing_wait@tbb@@@8 00000001800898a0     tbb_misc.obj
 0003:000028c8       ??_R0?AVinvalid_multiple_scheduling@tbb@@@8 00000001800898c8     tbb_misc.obj
 0003:00002900       ??_R0?AVimproper_lock@tbb@@@8 0000000180089900     tbb_misc.obj
 0003:00002928       ??_R0?AVlength_error@std@@@8 0000000180089928     tbb_misc.obj
 0003:00002950       ??_R0?AVcaptured_exception@tbb@@@8 0000000180089950     task_group_context.obj
 0003:00002980       ??_R0?AVtbb_exception@tbb@@@8 0000000180089980     task_group_context.obj
 0003:000029a8       ??_R0?AVmarket@internal@tbb@@@8 00000001800899a8     market.obj
 0003:000029d8       ??_R0?AVtbb_client@rml@internal@tbb@@@8 00000001800899d8     market.obj
 0003:00002a10       ??_R0?AVclient@rml@@@8     0000000180089a10     market.obj
 0003:00002a38       ??_R0?AVdelegate_base@internal@interface7@tbb@@@8 0000000180089a38     arena.obj
 0003:00002a80       ??_R0?AV?$delegated_function@Vspawn_functor@graph@interface10@flow@tbb@@X@internal@interface7@tbb@@@8 0000000180089a80     arena.obj
 0003:00002af0       ??_R0?AVempty_task@tbb@@@8 0000000180089af0     arena.obj
 0003:00002b18       ??_R0?AVdelegated_task@internal@interface7@tbb@@@8 0000000180089b18     arena.obj
 0003:00002b58       ??_R0?AVwait_task@internal@interface7@tbb@@@8 0000000180089b58     arena.obj
 0003:00002b90       ??_R0?AV?$function_task@Vspawn_functor@graph@interface10@flow@tbb@@@internal@tbb@@@8 0000000180089b90     arena.obj
 0003:00002bf0       ??_R0?AVscheduler@internal@tbb@@@8 0000000180089bf0     scheduler.obj
 0003:00002c20       ??_R0?AVgeneric_scheduler@internal@tbb@@@8 0000000180089c20     scheduler.obj
 0003:00002c58       ??_R0?AVjob@rml@@@8        0000000180089c58     scheduler.obj
 0003:00002c78       ??_R0?AUintrusive_list_node@internal@tbb@@@8 0000000180089c78     scheduler.obj
 0003:00002cb0       ??_R0?AUscheduler_state@internal@tbb@@@8 0000000180089cb0     scheduler.obj
 0003:00002cf0       ??_R0?AV?$custom_scheduler@UDefaultSchedulerTraits@internal@tbb@@@internal@tbb@@@8 0000000180089cf0     scheduler.obj
 0003:00002d50       ??_R0?AV?$custom_scheduler@UIntelSchedulerTraits@internal@tbb@@@internal@tbb@@@8 0000000180089d50     scheduler.obj
 0003:00002db0       ??_R0?AVcontrol_storage@internal@tbb@@@8 0000000180089db0     tbb_main.obj
 0003:00002de8       ??_R0?AVallowed_parallelism_control@internal@tbb@@@8 0000000180089de8     tbb_main.obj
 0003:00002e30       ??_R0?AU?$padded@Vcontrol_storage@internal@tbb@@$0IA@@internal@tbb@@@8 0000000180089e30     tbb_main.obj
 0003:00002e90       ??_R0?AU?$padded_base@Vcontrol_storage@internal@tbb@@$0IA@$0CA@@internal@tbb@@@8 0000000180089e90     tbb_main.obj
 0003:00002ef0       ??_R0?AVstack_size_control@internal@tbb@@@8 0000000180089ef0     tbb_main.obj
 0003:00002f28       ??_R0?AVconcurrent_queue_base@internal@tbb@@@8 0000000180089f28     concurrent_queue_v2.obj
 0003:00002f68       ??_R0?AVtype_info@@@8      0000000180089f68     MSVCRTD:std_type_info_static.obj
 0003:00002f88       ??_R0?AVbad_array_new_length@std@@@8 0000000180089f88     MSVCRTD:throw_bad_alloc.obj
 0003:00002fd0       ?handles@internal@tbb@@3Uhandles_t@12@A 0000000180089fd0     dynamic_link.obj
 0003:00003018       ?init_dl_data_state@internal@tbb@@3U?$atomic@W4do_once_state@internal@tbb@@@2@A 000000018008a018     dynamic_link.obj
 0003:00004138       ?_OptionsStorage@?1??__local_stdio_printf_options@@9@4_KA 000000018008b138     private_server.obj
 0003:00004150       ?HoleIndex@ProcessorGroupInfo@internal@tbb@@2HA 000000018008b150     tbb_misc_ex.obj
 0003:00004160       ?theProcessorGroups@internal@tbb@@3PAUProcessorGroupInfo@12@A 000000018008b160     tbb_misc_ex.obj
 0003:000045a0       ?the_context_state_propagation_epoch@internal@tbb@@3_KA 000000018008b5a0     scheduler.obj
 0003:000045a8       ?the_context_state_propagation_mutex@internal@tbb@@3Vspin_mutex@2@A 000000018008b5a8     scheduler.obj
 0003:000046b0       ?the_global_observer_list@internal@tbb@@3U?$padded@Vobserver_list@internal@tbb@@$0IA@@12@A 000000018008b6b0     observer_proxy.obj
 0003:00004738       ?theMarket@market@internal@tbb@@0PEAV123@EA 000000018008b738     tbb_main.obj
 0003:00004740       ?theTLS@governor@internal@tbb@@0V?$basic_tls@_K@23@A 000000018008b740     tbb_main.obj
 0003:00004744       ?DefaultNumberOfThreads@governor@internal@tbb@@0IA 000000018008b744     tbb_main.obj
 0003:00004748       ?theRMLServerFactory@governor@internal@tbb@@0Vtbb_factory@rml@23@A 000000018008b748     tbb_main.obj
 0003:00004770       ?UsePrivateRML@governor@internal@tbb@@0_NA 000000018008b770     tbb_main.obj
 0003:00004771       ?is_speculation_enabled@governor@internal@tbb@@0_NA 000000018008b771     tbb_main.obj
 0003:00004772       ?is_rethrow_broken@governor@internal@tbb@@0_NA 000000018008b772     tbb_main.obj
 0003:00004773       ?InitializationDone@__TBB_InitOnce@internal@tbb@@0_NA 000000018008b773     tbb_main.obj
 0003:00004774       ?count@__TBB_InitOnce@internal@tbb@@0U?$atomic@H@3@A 000000018008b774     tbb_main.obj
 0003:00004778       ?InitializationLock@__TBB_InitOnce@internal@tbb@@0EA 000000018008b778     tbb_main.obj
 0003:00004780       ?AllocateSchedulerPtr@internal@tbb@@3P6APEAVgeneric_scheduler@12@AEAVmarket@12@@ZEA 000000018008b780     tbb_main.obj
 0003:00004788       ?theMarketMutex@market@internal@tbb@@0Vspin_mutex@3@A 000000018008b788     tbb_main.obj
 0003:00004e20       ?__type_info_root_node@@3U__type_info_node@@A 000000018008be20     MSVCRTD:tncleanup.obj
 0003:00004e30       __scrt_current_native_startup_state 000000018008be30     MSVCRTD:utility.obj
 0003:00004e38       __scrt_native_startup_lock 000000018008be38     MSVCRTD:utility.obj
 0003:00004e90       __favor                    000000018008be90     MSVCRTD:cpu_disp.obj
 0003:00004e94       __scrt_debugger_hook_flag  000000018008be94     MSVCRTD:utility_desktop.obj
 0003:00004e98       ?_OptionsStorage@?1??__local_stdio_scanf_options@@9@4_KA 000000018008be98     MSVCRTD:default_local_stdio_options.obj
 0003:00004eb0       __dyn_tls_init_callback    000000018008beb0     <common>

 entry point at        0001:0004eba0

 Static symbols

 0004:fff74000       $pdata$?fetch_and_store@?$atomic_traits@$03$0A@@internal@tbb@@SAHPECXH@Z 0000000180000000     scheduler.obj
 0002:fffac000       $unwind$??0intrusive_list_node@internal@tbb@@QEAA@XZ 0000000180000000     arena.obj
 0002:fffac000       $unwind$?deallocate_task@generic_scheduler@internal@tbb@@QEAAXAEAVtask@3@@Z 0000000180000000     arena.obj
 0004:fff74000       $pdata$?deallocate_task@generic_scheduler@internal@tbb@@QEAAXAEAVtask@3@@Z 0000000180000000     arena.obj
 0002:fffac000       $unwind$?is_worker@generic_scheduler@internal@tbb@@QEBA_NXZ 0000000180000000     arena.obj
 0004:fff74000       $pdata$?is_worker@generic_scheduler@internal@tbb@@QEBA_NXZ 0000000180000000     arena.obj
 0002:fffac000       $unwind$?outermost_level@generic_scheduler@internal@tbb@@QEBA_NXZ 0000000180000000     arena.obj
 0004:fff74000       $pdata$?outermost_level@generic_scheduler@internal@tbb@@QEBA_NXZ 0000000180000000     arena.obj
 0002:fffac000       $unwind$?master_outermost_level@generic_scheduler@internal@tbb@@QEBA_NXZ 0000000180000000     arena.obj
 0004:fff74000       $pdata$?master_outermost_level@generic_scheduler@internal@tbb@@QEBA_NXZ 0000000180000000     arena.obj
 0004:fff74000       $pdata$??$poison_pointer@Vtask@tbb@@@internal@tbb@@YAXAEAPEAVtask@1@@Z 0000000180000000     arena.obj
 0002:fffac000       $unwind$??$poison_pointer@Vtask@tbb@@@internal@tbb@@YAXAEAPEAVtask@1@@Z 0000000180000000     arena.obj
 0004:fff74000       $pdata$?is_alive@internal@tbb@@YA_N_K@Z 0000000180000000     arena.obj
 0002:fffac000       $unwind$?is_alive@internal@tbb@@YA_N_K@Z 0000000180000000     arena.obj
 0004:fff74000       $pdata$?assert_priority_valid@internal@tbb@@YAX_J@Z 0000000180000000     arena.obj
 0002:fffac000       $unwind$?assert_priority_valid@internal@tbb@@YAX_J@Z 0000000180000000     arena.obj
 0004:fff74000       $pdata$?normalize_priority@internal@tbb@@YA_JW4priority_t@2@@Z 0000000180000000     arena.obj
 0002:fffac000       $unwind$?normalize_priority@internal@tbb@@YA_JW4priority_t@2@@Z 0000000180000000     arena.obj
 0004:fff74000       $pdata$?begin@?$aligned_space@Vscoped_lock@spin_mutex@tbb@@$00@tbb@@QEBAPEAVscoped_lock@spin_mutex@2@XZ 0000000180000000     arena.obj
 0002:fffac000       $unwind$?begin@?$aligned_space@Vscoped_lock@spin_mutex@tbb@@$00@tbb@@QEBAPEAVscoped_lock@spin_mutex@2@XZ 0000000180000000     arena.obj
 0004:fff74000       $pdata$??$suppress_unused_warning@E@internal@tbb@@YAXAEBE@Z 0000000180000000     arena.obj
 0002:fffac000       $unwind$??$suppress_unused_warning@E@internal@tbb@@YAXAEBE@Z 0000000180000000     arena.obj
 0004:fff74000       $pdata$?unlock@spin_mutex@tbb@@QEAAXXZ 0000000180000000     arena.obj
 0002:fffac000       $unwind$?unlock@spin_mutex@tbb@@QEAAXXZ 0000000180000000     arena.obj
 0002:fffac000       ?unlock@spin_mutex@tbb@@QEAAXXZ$rtcName$0 0000000180000000     arena.obj
 0004:fff74000       $pdata$?lock@spin_mutex@tbb@@QEAAXXZ 0000000180000000     arena.obj
 0002:fffac000       $unwind$?lock@spin_mutex@tbb@@QEAAXXZ 0000000180000000     arena.obj
 0002:fffac000       ?lock@spin_mutex@tbb@@QEAAXXZ$rtcName$0 0000000180000000     arena.obj
 0002:fffac000       $ip2state$??1scoped_lock@spin_mutex@tbb@@QEAA@XZ 0000000180000000     arena.obj
 0002:fffac000       $cppxdata$??1scoped_lock@spin_mutex@tbb@@QEAA@XZ 0000000180000000     arena.obj
 0004:fff74000       $pdata$??1scoped_lock@spin_mutex@tbb@@QEAA@XZ 0000000180000000     arena.obj
 0002:fffac000       $unwind$??1scoped_lock@spin_mutex@tbb@@QEAA@XZ 0000000180000000     arena.obj
 0004:fff74000       $pdata$?try_acquire@scoped_lock@spin_mutex@tbb@@QEAA_NAEAV23@@Z 0000000180000000     arena.obj
 0002:fffac000       $unwind$?try_acquire@scoped_lock@spin_mutex@tbb@@QEAA_NAEAV23@@Z 0000000180000000     arena.obj
 0004:fff74000       $pdata$??0scoped_lock@spin_mutex@tbb@@QEAA@AEAV12@@Z 0000000180000000     arena.obj
 0002:fffac000       $unwind$??0scoped_lock@spin_mutex@tbb@@QEAA@AEAV12@@Z 0000000180000000     arena.obj
 0004:fff74000       $pdata$??0scoped_lock@spin_mutex@tbb@@QEAA@XZ 0000000180000000     arena.obj
 0002:fffac000       $unwind$??0scoped_lock@spin_mutex@tbb@@QEAA@XZ 0000000180000000     arena.obj
 0004:fff74000       $pdata$??0spin_mutex@tbb@@QEAA@XZ 0000000180000000     arena.obj
 0002:fffac000       $unwind$??0spin_mutex@tbb@@QEAA@XZ 0000000180000000     arena.obj
 0004:fff74000       $pdata$?throw_exception@internal@tbb@@YAXW4exception_id@12@@Z 0000000180000000     arena.obj
 0002:fffac000       $unwind$?throw_exception@internal@tbb@@YAXW4exception_id@12@@Z 0000000180000000     arena.obj
 0002:fffac000       $ip2state$??3@YAXPEAXAEBVallocate_root_with_context_proxy@internal@tbb@@@Z 0000000180000000     arena.obj
 0002:fffac000       $cppxdata$??3@YAXPEAXAEBVallocate_root_with_context_proxy@internal@tbb@@@Z 0000000180000000     arena.obj
 0004:fff74000       $pdata$??3@YAXPEAXAEBVallocate_root_with_context_proxy@internal@tbb@@@Z 0000000180000000     arena.obj
 0002:fffac000       $unwind$??3@YAXPEAXAEBVallocate_root_with_context_proxy@internal@tbb@@@Z 0000000180000000     arena.obj
 0004:fff74000       $pdata$??2@YAPEAX_KAEBVallocate_root_with_context_proxy@internal@tbb@@@Z 0000000180000000     arena.obj
 0002:fffac000       $unwind$??2@YAPEAX_KAEBVallocate_root_with_context_proxy@internal@tbb@@@Z 0000000180000000     arena.obj
 0004:fff74000       $pdata$??_Gtask@tbb@@UEAAPEAXI@Z 0000000180000000     arena.obj
 0002:fffac000       $unwind$??_Gtask@tbb@@UEAAPEAXI@Z 0000000180000000     arena.obj
 0004:fff74000       $pdata$?prefix@task@tbb@@QEBAAEAVtask_prefix@internal@2@PEAUversion_tag_v3@42@@Z 0000000180000000     arena.obj
 0002:fffac000       $unwind$?prefix@task@tbb@@QEBAAEAVtask_prefix@internal@2@PEAUversion_tag_v3@42@@Z 0000000180000000     arena.obj
 0004:fff74000       $pdata$?state@task@tbb@@QEBA?AW4state_type@12@XZ 0000000180000000     arena.obj
 0002:fffac000       $unwind$?state@task@tbb@@QEBA?AW4state_type@12@XZ 0000000180000000     arena.obj
 0004:fff74000       $pdata$?parent@task@tbb@@QEBAPEAV12@XZ 0000000180000000     arena.obj
 0002:fffac000       $unwind$?parent@task@tbb@@QEBAPEAV12@XZ 0000000180000000     arena.obj
 0004:fff74000       $pdata$?allocate_root@task@tbb@@SA?AVallocate_root_with_context_proxy@internal@2@AEAVtask_group_context@2@@Z 0000000180000000     arena.obj
 0002:fffac000       $unwind$?allocate_root@task@tbb@@SA?AVallocate_root_with_context_proxy@internal@2@AEAVtask_group_context@2@@Z 0000000180000000     arena.obj
 0004:fff74000       $pdata$??1task@tbb@@UEAA@XZ 0000000180000000     arena.obj
 0002:fffac000       $unwind$??1task@tbb@@UEAA@XZ 0000000180000000     arena.obj
 0004:fff74000       $pdata$??0task@tbb@@IEAA@XZ 0000000180000000     arena.obj
 0002:fffac000       $unwind$??0task@tbb@@IEAA@XZ 0000000180000000     arena.obj
 0004:fff74000       $pdata$??0task_group_context@tbb@@QEAA@W4kind_type@01@_K@Z 0000000180000000     arena.obj
 0002:fffac000       $unwind$??0task_group_context@tbb@@QEAA@W4kind_type@01@_K@Z 0000000180000000     arena.obj
 0004:fff74000       $pdata$??0allocate_root_with_context_proxy@internal@tbb@@QEAA@AEAVtask_group_context@2@@Z 0000000180000000     arena.obj
 0002:fffac000       $unwind$??0allocate_root_with_context_proxy@internal@tbb@@QEAA@AEAVtask_group_context@2@@Z 0000000180000000     arena.obj
 0004:fff74000       $pdata$??0task_base@internal@interface5@tbb@@QEAA@XZ 0000000180000000     arena.obj
 0002:fffac000       $unwind$??0task_base@internal@interface5@tbb@@QEAA@XZ 0000000180000000     arena.obj
 0004:fff74000       $pdata$?spawn@task_base@internal@interface5@tbb@@SAXAEAVtask@4@@Z 0000000180000000     arena.obj
 0002:fffac000       $unwind$?spawn@task_base@internal@interface5@tbb@@SAXAEAVtask@4@@Z 0000000180000000     arena.obj
 0004:fff74000       $pdata$??Y?$atomic_impl_with_arithmetic@IID@internal@tbb@@QEAAII@Z 0000000180000000     arena.obj
 0002:fffac000       $unwind$??Y?$atomic_impl_with_arithmetic@IID@internal@tbb@@QEAAII@Z 0000000180000000     arena.obj
 0004:fff74000       $pdata$?fetch_and_add@?$atomic_impl_with_arithmetic@IID@internal@tbb@@QEAAII@Z 0000000180000000     arena.obj
 0002:fffac000       $unwind$?__empty_global_delete@@YAXPEAX@Z 0000000180000000     concurrent_queue.obj
 0004:fff74000       $pdata$?__empty_global_delete@@YAXPEAX@Z 0000000180000000     concurrent_queue.obj
 0002:fffac000       $unwind$?__empty_global_delete@@YAXPEAX_K@Z 0000000180000000     concurrent_queue.obj
 0004:fff74000       $pdata$?__empty_global_delete@@YAXPEAX_K@Z 0000000180000000     concurrent_queue.obj
 0002:fffac000       $unwind$??B?$atomic_impl@_K@internal@tbb@@QEDA_KXZ 0000000180000000     concurrent_queue.obj
 0004:fff74000       $pdata$??B?$atomic_impl@_K@internal@tbb@@QEDA_KXZ 0000000180000000     concurrent_queue.obj
 0002:fffac000       $unwind$?fetch_and_add@?$atomic_impl_with_arithmetic@IID@internal@tbb@@QEAAII@Z 0000000180000000     arena.obj
 0004:fff74000       $pdata$?store_with_release@?$atomic_impl@I@internal@tbb@@IEAAII@Z 0000000180000000     arena.obj
 0002:fffac000       $unwind$?store_with_release@?$atomic_impl@I@internal@tbb@@IEAAII@Z 0000000180000000     arena.obj
 0004:fff74000       $pdata$??B?$atomic_impl@I@internal@tbb@@QEDAIXZ 0000000180000000     arena.obj
 0002:fffac000       $unwind$??B?$atomic_impl@I@internal@tbb@@QEDAIXZ 0000000180000000     arena.obj
 0004:fff74000       $pdata$?compare_and_swap@?$atomic_impl@I@internal@tbb@@QEAAIII@Z 0000000180000000     arena.obj
 0002:fffac000       $unwind$?compare_and_swap@?$atomic_impl@I@internal@tbb@@QEAAIII@Z 0000000180000000     arena.obj
 0004:fff74000       $pdata$??4?$atomic@_K@tbb@@QEAA_K_K@Z 0000000180000000     arena.obj
 0002:fffac000       $unwind$??4?$atomic@_K@tbb@@QEAA_K_K@Z 0000000180000000     arena.obj
 0004:fff74000       $pdata$??E?$atomic_impl_with_arithmetic@_K_KD@internal@tbb@@QEAA_KXZ 0000000180000000     arena.obj
 0002:fffac000       $unwind$??E?$atomic_impl_with_arithmetic@_K_KD@internal@tbb@@QEAA_KXZ 0000000180000000     arena.obj
 0004:fff74000       $pdata$?fetch_and_add@?$atomic_impl_with_arithmetic@_K_KD@internal@tbb@@QEAA_K_K@Z 0000000180000000     arena.obj
 0002:fffac000       $unwind$?fetch_and_add@?$atomic_impl_with_arithmetic@_K_KD@internal@tbb@@QEAA_K_K@Z 0000000180000000     arena.obj
 0004:fff74000       $pdata$?store_with_release@?$atomic_impl@_K@internal@tbb@@IEAA_K_K@Z 0000000180000000     arena.obj
 0002:fffac000       $unwind$?store_with_release@?$atomic_impl@_K@internal@tbb@@IEAA_K_K@Z 0000000180000000     arena.obj
 0004:fff74000       $pdata$??B?$atomic_impl@_K@internal@tbb@@QEDA_KXZ 0000000180000000     arena.obj
 0002:fffac000       $unwind$??B?$atomic_impl@_K@internal@tbb@@QEDA_KXZ 0000000180000000     arena.obj
 0004:fff74000       $pdata$?compare_and_swap@?$atomic_impl@_K@internal@tbb@@QEAA_K_K0@Z 0000000180000000     arena.obj
 0002:fffac000       $unwind$??B?$atomic_impl@_N@internal@tbb@@QEDA_NXZ 0000000180000000     arena.obj
 0004:fff74000       $pdata$??B?$atomic_impl@_N@internal@tbb@@QEDA_NXZ 0000000180000000     arena.obj
 0002:fffac000       $unwind$?store_with_release@?$atomic_impl@_N@internal@tbb@@IEAA_N_N@Z 0000000180000000     arena.obj
 0004:fff74000       $pdata$?store_with_release@?$atomic_impl@_N@internal@tbb@@IEAA_N_N@Z 0000000180000000     arena.obj
 0002:fffac000       $unwind$??4?$atomic@_N@tbb@@QEAA_N_N@Z 0000000180000000     arena.obj
 0004:fff74000       $pdata$??4?$atomic@_N@tbb@@QEAA_N_N@Z 0000000180000000     arena.obj
 0002:fffac000       $unwind$?compare_and_swap@?$atomic_impl@_K@internal@tbb@@QEAA_K_K0@Z 0000000180000000     arena.obj
 0004:fff74000       $pdata$??B?$atomic_impl@_J@internal@tbb@@QEDA_JXZ 0000000180000000     arena.obj
 0002:fffac000       $unwind$??B?$atomic_impl@_J@internal@tbb@@QEDA_JXZ 0000000180000000     arena.obj
 0004:fff74000       $pdata$?store@?$machine_load_store_relaxed@_K$07@internal@tbb@@SAXAEC_K_K@Z 0000000180000000     arena.obj
 0002:fffac000       $unwind$?store@?$machine_load_store_relaxed@_K$07@internal@tbb@@SAXAEC_K_K@Z 0000000180000000     arena.obj
 0004:fff74000       $pdata$?load@?$machine_load_store_relaxed@_K$07@internal@tbb@@SA_KAED_K@Z 0000000180000000     arena.obj
 0002:fffac000       $unwind$?load@?$machine_load_store_relaxed@_K$07@internal@tbb@@SA_KAED_K@Z 0000000180000000     arena.obj
 0004:fff74000       $pdata$?__TBB_store_relaxed@internal@tbb@@YAXAEC_K_K@Z 0000000180000000     arena.obj
 0002:fffac000       $unwind$?__TBB_store_relaxed@internal@tbb@@YAXAEC_K_K@Z 0000000180000000     arena.obj
 0004:fff74000       $pdata$?load_with_acquire@?$machine_load_store@_K$07@internal@tbb@@SA_KAED_K@Z 0000000180000000     arena.obj
 0002:fffac000       $unwind$?load_with_acquire@?$machine_load_store@_K$07@internal@tbb@@SA_KAED_K@Z 0000000180000000     arena.obj
 0004:fff74000       $pdata$?pause@atomic_backoff@internal@tbb@@QEAAXXZ 0000000180000000     arena.obj
 0002:fffac000       $unwind$??$poison_pointer@Vscheduler@internal@tbb@@@internal@tbb@@YAXAEAPEAVscheduler@01@@Z 0000000180000000     arena.obj
 0004:fff74000       $pdata$??$poison_pointer@Vscheduler@internal@tbb@@@internal@tbb@@YAXAEAPEAVscheduler@01@@Z 0000000180000000     arena.obj
 0002:fffac000       $unwind$?pause@atomic_backoff@internal@tbb@@QEAAXXZ 0000000180000000     arena.obj
 0004:fff74000       $pdata$??0atomic_backoff@internal@tbb@@QEAA@XZ 0000000180000000     arena.obj
 0002:fffac000       $unwind$?default_num_threads@governor@internal@tbb@@SAIXZ 0000000180000000     arena.obj
 0004:fff74000       $pdata$?default_num_threads@governor@internal@tbb@@SAIXZ 0000000180000000     arena.obj
 0002:fffac000       $unwind$?tls_scheduler_of@governor@internal@tbb@@SAPEAVgeneric_scheduler@23@_K@Z 0000000180000000     arena.obj
 0004:fff74000       $pdata$?tls_scheduler_of@governor@internal@tbb@@SAPEAVgeneric_scheduler@23@_K@Z 0000000180000000     arena.obj
 0002:fffac000       $unwind$?local_scheduler@governor@internal@tbb@@SAPEAVgeneric_scheduler@23@XZ 0000000180000000     arena.obj
 0002:fffac000       $unwind$??$__TBB_load_with_acquire@_J@internal@tbb@@YA_JAED_J@Z 0000000180000000     concurrent_queue.obj
 0004:fff74000       $pdata$??$__TBB_load_with_acquire@_J@internal@tbb@@YA_JAED_J@Z 0000000180000000     concurrent_queue.obj
 0004:fff74000       $pdata$?local_scheduler@governor@internal@tbb@@SAPEAVgeneric_scheduler@23@XZ 0000000180000000     arena.obj
 0002:fffac000       $unwind$?local_scheduler_weak@governor@internal@tbb@@SAPEAVgeneric_scheduler@23@XZ 0000000180000000     arena.obj
 0004:fff74000       $pdata$?local_scheduler_weak@governor@internal@tbb@@SAPEAVgeneric_scheduler@23@XZ 0000000180000000     arena.obj
 0002:fffac000       $unwind$?local_scheduler_if_initialized@governor@internal@tbb@@SAPEAVgeneric_scheduler@23@XZ 0000000180000000     arena.obj
 0004:fff74000       $pdata$?local_scheduler_if_initialized@governor@internal@tbb@@SAPEAVgeneric_scheduler@23@XZ 0000000180000000     arena.obj
 0002:fffac000       $unwind$??0atomic_backoff@internal@tbb@@QEAA@XZ 0000000180000000     arena.obj
 0004:fff74000       $pdata$?atomic_fence@tbb@@YAXXZ 0000000180000000     arena.obj
 0002:fffac000       $unwind$?get@?$basic_tls@_K@internal@tbb@@QEAA_KXZ 0000000180000000     arena.obj
 0004:fff74000       $pdata$?get@?$basic_tls@_K@internal@tbb@@QEAA_KXZ 0000000180000000     arena.obj
 0002:fffac000       $unwind$??0?$converter@_K@?$atomic_impl@_K@internal@tbb@@QEAA@XZ 0000000180000000     concurrent_queue.obj
 0004:fff74000       $pdata$??0?$converter@_K@?$atomic_impl@_K@internal@tbb@@QEAA@XZ 0000000180000000     concurrent_queue.obj
 0002:fffac000       $unwind$??$to_bits_ref@$$CD_K@?$atomic_impl@_K@internal@tbb@@CAAEA_JAED_K@Z 0000000180000000     concurrent_queue.obj
 0004:fff74000       $pdata$??$to_bits_ref@$$CD_K@?$atomic_impl@_K@internal@tbb@@CAAEA_JAED_K@Z 0000000180000000     concurrent_queue.obj
 0002:fffac000       ??$to_value@_K@?$atomic_impl@_K@internal@tbb@@CA_K_J@Z$rtcName$0 0000000180000000     concurrent_queue.obj
 0002:fffac000       $unwind$??0binary_semaphore@internal@tbb@@QEAA@XZ 0000000180000000     arena.obj
 0004:fff74000       $pdata$??0binary_semaphore@internal@tbb@@QEAA@XZ 0000000180000000     arena.obj
 0002:fffac000       $unwind$??$to_value@_K@?$atomic_impl@_K@internal@tbb@@CA_K_J@Z 0000000180000000     concurrent_queue.obj
 0004:fff74000       $pdata$??$to_value@_K@?$atomic_impl@_K@internal@tbb@@CA_K_J@Z 0000000180000000     concurrent_queue.obj
 0002:fffac000       $unwind$??1binary_semaphore@internal@tbb@@QEAA@XZ 0000000180000000     arena.obj
 0004:fff74000       $pdata$??1binary_semaphore@internal@tbb@@QEAA@XZ 0000000180000000     arena.obj
 0002:fffac000       $unwind$?P@binary_semaphore@internal@tbb@@QEAAXXZ 0000000180000000     arena.obj
 0004:fff74000       $pdata$?P@binary_semaphore@internal@tbb@@QEAAXXZ 0000000180000000     arena.obj
 0002:fffac000       $unwind$?V@binary_semaphore@internal@tbb@@QEAAXXZ 0000000180000000     arena.obj
 0002:fffac000       $unwind$?load_with_acquire@?$machine_load_store@_J$07@internal@tbb@@SA_JAED_J@Z 0000000180000000     concurrent_queue.obj
 0004:fff74000       $pdata$?load_with_acquire@?$machine_load_store@_J$07@internal@tbb@@SA_JAED_J@Z 0000000180000000     concurrent_queue.obj
 0002:fffac000       $unwind$??0?$ptr_converter@PED_K@?$atomic_impl@_K@internal@tbb@@QEAA@PED_K@Z 0000000180000000     concurrent_queue.obj
 0004:fff74000       $pdata$??0?$ptr_converter@PED_K@?$atomic_impl@_K@internal@tbb@@QEAA@PED_K@Z 0000000180000000     concurrent_queue.obj
 0004:fff74000       $pdata$?V@binary_semaphore@internal@tbb@@QEAAXXZ 0000000180000000     arena.obj
 0002:fffac000       $unwind$??_Gbinary_semaphore@internal@tbb@@QEAAPEAXI@Z 0000000180000000     arena.obj
 0004:fff74000       $pdata$??_Gbinary_semaphore@internal@tbb@@QEAAPEAXI@Z 0000000180000000     arena.obj
 0002:fffac000       $unwind$??0node_t@circular_doubly_linked_list_with_sentinel@internal@tbb@@QEAA@XZ 0000000180000000     arena.obj
 0004:fff74000       $pdata$??0node_t@circular_doubly_linked_list_with_sentinel@internal@tbb@@QEAA@XZ 0000000180000000     arena.obj
 0002:fffac000       $unwind$??0circular_doubly_linked_list_with_sentinel@internal@tbb@@QEAA@XZ 0000000180000000     arena.obj
 0004:fff74000       $pdata$??0circular_doubly_linked_list_with_sentinel@internal@tbb@@QEAA@XZ 0000000180000000     arena.obj
 0002:fffac000       $unwind$??1circular_doubly_linked_list_with_sentinel@internal@tbb@@QEAA@XZ 0000000180000000     arena.obj
 0004:fff74000       $pdata$??1circular_doubly_linked_list_with_sentinel@internal@tbb@@QEAA@XZ 0000000180000000     arena.obj
 0002:fffac000       $cppxdata$??1circular_doubly_linked_list_with_sentinel@internal@tbb@@QEAA@XZ 0000000180000000     arena.obj
 0002:fffac000       $ip2state$??1circular_doubly_linked_list_with_sentinel@internal@tbb@@QEAA@XZ 0000000180000000     arena.obj
 0002:fffac000       $unwind$?size@circular_doubly_linked_list_with_sentinel@internal@tbb@@QEBA_KXZ 0000000180000000     arena.obj
 0004:fff74000       $pdata$?size@circular_doubly_linked_list_with_sentinel@internal@tbb@@QEBA_KXZ 0000000180000000     arena.obj
 0002:fffac000       $unwind$?empty@circular_doubly_linked_list_with_sentinel@internal@tbb@@QEBA_NXZ 0000000180000000     arena.obj
 0004:fff74000       $pdata$?empty@circular_doubly_linked_list_with_sentinel@internal@tbb@@QEBA_NXZ 0000000180000000     arena.obj
 0002:fffac000       $unwind$?front@circular_doubly_linked_list_with_sentinel@internal@tbb@@QEBAPEAUnode_t@123@XZ 0000000180000000     arena.obj
 0004:fff74000       $pdata$?front@circular_doubly_linked_list_with_sentinel@internal@tbb@@QEBAPEAUnode_t@123@XZ 0000000180000000     arena.obj
 0002:fffac000       $unwind$?last@circular_doubly_linked_list_with_sentinel@internal@tbb@@QEBAPEAUnode_t@123@XZ 0000000180000000     arena.obj
 0004:fff74000       $pdata$?last@circular_doubly_linked_list_with_sentinel@internal@tbb@@QEBAPEAUnode_t@123@XZ 0000000180000000     arena.obj
 0002:fffac000       $unwind$?end@circular_doubly_linked_list_with_sentinel@internal@tbb@@QEBAPEBUnode_t@123@XZ 0000000180000000     arena.obj
 0004:fff74000       $pdata$?end@circular_doubly_linked_list_with_sentinel@internal@tbb@@QEBAPEBUnode_t@123@XZ 0000000180000000     arena.obj
 0002:fffac000       $unwind$?add@circular_doubly_linked_list_with_sentinel@internal@tbb@@QEAAXPEAUnode_t@123@@Z 0000000180000000     arena.obj
 0004:fff74000       $pdata$?add@circular_doubly_linked_list_with_sentinel@internal@tbb@@QEAAXPEAUnode_t@123@@Z 0000000180000000     arena.obj
 0002:fffac000       $unwind$?remove@circular_doubly_linked_list_with_sentinel@internal@tbb@@QEAAXAEAUnode_t@123@@Z 0000000180000000     arena.obj
 0004:fff74000       $pdata$?remove@circular_doubly_linked_list_with_sentinel@internal@tbb@@QEAAXAEAUnode_t@123@@Z 0000000180000000     arena.obj
 0002:fffac000       $unwind$?clear@circular_doubly_linked_list_with_sentinel@internal@tbb@@QEAAXXZ 0000000180000000     arena.obj
 0004:fff74000       $pdata$?clear@circular_doubly_linked_list_with_sentinel@internal@tbb@@QEAAXXZ 0000000180000000     arena.obj
 0002:fffac000       $unwind$??$__TBB_load_relaxed@_K@internal@tbb@@YA_KAED_K@Z 0000000180000000     arena.obj
 0004:fff74000       $pdata$??$__TBB_load_relaxed@_K@internal@tbb@@YA_KAED_K@Z 0000000180000000     arena.obj
 0002:fffac000       $unwind$??$__TBB_store_relaxed@_KH@internal@tbb@@YAXAEC_KH@Z 0000000180000000     arena.obj
 0004:fff74000       $pdata$??$__TBB_store_relaxed@_KH@internal@tbb@@YAXAEC_KH@Z 0000000180000000     arena.obj
 0002:fffac000       $unwind$??0thread_context@concurrent_monitor@internal@tbb@@QEAA@XZ 0000000180000000     arena.obj
 0004:fff74000       $pdata$??0thread_context@concurrent_monitor@internal@tbb@@QEAA@XZ 0000000180000000     arena.obj
 0002:fffac000       $unwind$??1thread_context@concurrent_monitor@internal@tbb@@QEAA@XZ 0000000180000000     arena.obj
 0004:fff74000       $pdata$??1thread_context@concurrent_monitor@internal@tbb@@QEAA@XZ 0000000180000000     arena.obj
 0002:fffac000       $cppxdata$??1thread_context@concurrent_monitor@internal@tbb@@QEAA@XZ 0000000180000000     arena.obj
 0002:fffac000       $ip2state$??1thread_context@concurrent_monitor@internal@tbb@@QEAA@XZ 0000000180000000     arena.obj
 0002:fffac000       $unwind$?semaphore@thread_context@concurrent_monitor@internal@tbb@@QEAAAEAVbinary_semaphore@34@XZ 0000000180000000     arena.obj
 0004:fff74000       $pdata$?semaphore@thread_context@concurrent_monitor@internal@tbb@@QEAAAEAVbinary_semaphore@34@XZ 0000000180000000     arena.obj
 0002:fffac000       $unwind$?begin@?$aligned_space@Vbinary_semaphore@internal@tbb@@$00@tbb@@QEBAPEAVbinary_semaphore@internal@2@XZ 0000000180000000     arena.obj
 0004:fff74000       $pdata$?begin@?$aligned_space@Vbinary_semaphore@internal@tbb@@$00@tbb@@QEBAPEAVbinary_semaphore@internal@2@XZ 0000000180000000     arena.obj
 0002:fffac000       $unwind$??0concurrent_monitor@internal@tbb@@QEAA@XZ 0000000180000000     arena.obj
 0004:fff74000       $pdata$??0concurrent_monitor@internal@tbb@@QEAA@XZ 0000000180000000     arena.obj
 0002:fffac000       $cppxdata$??0concurrent_monitor@internal@tbb@@QEAA@XZ 0000000180000000     arena.obj
 0002:fffac000       $stateUnwindMap$??0concurrent_monitor@internal@tbb@@QEAA@XZ 0000000180000000     arena.obj
 0002:fffac000       $ip2state$??0concurrent_monitor@internal@tbb@@QEAA@XZ 0000000180000000     arena.obj
 0002:fffac000       $unwind$?dtor$0@?0???0concurrent_monitor@internal@tbb@@QEAA@XZ@4HA 0000000180000000     arena.obj
 0004:fff74000       $pdata$?dtor$0@?0???0concurrent_monitor@internal@tbb@@QEAA@XZ@4HA 0000000180000000     arena.obj
 0002:fffac000       $unwind$?commit_wait@concurrent_monitor@internal@tbb@@QEAA_NAEAVthread_context@123@@Z 0000000180000000     arena.obj
 0004:fff74000       $pdata$?commit_wait@concurrent_monitor@internal@tbb@@QEAA_NAEAVthread_context@123@@Z 0000000180000000     arena.obj
 0002:fffac000       $unwind$?atomic_fence@tbb@@YAXXZ 0000000180000000     arena.obj
 0004:fff74000       $pdata$?get_env@cpu_ctl_env@internal@tbb@@QEAAXXZ 0000000180000000     arena.obj
 0002:fffac000       $unwind$?to_thread_context@concurrent_monitor@internal@tbb@@AEAAPEAVthread_context@123@PEAUnode_t@circular_doubly_linked_list_with_sentinel@23@@Z 0000000180000000     arena.obj
 0004:fff74000       $pdata$?to_thread_context@concurrent_monitor@internal@tbb@@AEAAPEAVthread_context@123@PEAUnode_t@circular_doubly_linked_list_with_sentinel@23@@Z 0000000180000000     arena.obj
 0002:fffac000       $unwind$?__empty_global_delete@@YAXPEAX@Z 0000000180000000     concurrent_vector.obj
 0004:fff74000       $pdata$?__empty_global_delete@@YAXPEAX@Z 0000000180000000     concurrent_vector.obj
 0002:fffac000       $unwind$?__empty_global_delete@@YAXPEAX_K@Z 0000000180000000     concurrent_vector.obj
 0004:fff74000       $pdata$?__empty_global_delete@@YAXPEAX_K@Z 0000000180000000     concurrent_vector.obj
 0002:fffac000       $unwind$??0no_copy@internal@tbb@@QEAA@XZ 0000000180000000     concurrent_vector.obj
 0004:fff74000       $pdata$??0no_copy@internal@tbb@@QEAA@XZ 0000000180000000     concurrent_vector.obj
 0002:fffac000       $unwind$??2@YAPEAX_KPEAX@Z 0000000180000000     concurrent_vector.obj
 0004:fff74000       $pdata$??2@YAPEAX_KPEAX@Z  0000000180000000     concurrent_vector.obj
 0002:fffac000       $unwind$?throw_exception@internal@tbb@@YAXW4exception_id@12@@Z 0000000180000000     concurrent_vector.obj
 0004:fff74000       $pdata$?throw_exception@internal@tbb@@YAXW4exception_id@12@@Z 0000000180000000     concurrent_vector.obj
 0002:fffac000       $unwind$??$__TBB_store_relaxed@IH@internal@tbb@@YAXAECIH@Z 0000000180000000     arena.obj
 0004:fff74000       $pdata$??$__TBB_store_relaxed@IH@internal@tbb@@YAXAECIH@Z 0000000180000000     arena.obj
 0002:fffac000       $unwind$??$__TBB_load_relaxed@I@internal@tbb@@YAIAEDI@Z 0000000180000000     arena.obj
 0002:fffac000       $unwind$??0atomic_backoff@internal@tbb@@QEAA@XZ 0000000180000000     concurrent_vector.obj
 0004:fff74000       $pdata$??0atomic_backoff@internal@tbb@@QEAA@XZ 0000000180000000     concurrent_vector.obj
 0002:fffac000       $unwind$??0atomic_backoff@internal@tbb@@QEAA@_N@Z 0000000180000000     concurrent_vector.obj
 0004:fff74000       $pdata$??0atomic_backoff@internal@tbb@@QEAA@_N@Z 0000000180000000     concurrent_vector.obj
 0002:fffac000       $unwind$?pause@atomic_backoff@internal@tbb@@QEAAXXZ 0000000180000000     concurrent_vector.obj
 0004:fff74000       $pdata$?pause@atomic_backoff@internal@tbb@@QEAAXXZ 0000000180000000     concurrent_vector.obj
 0002:fffac000       $unwind$?compare_and_swap@?$atomic_impl@_K@internal@tbb@@QEAA_K_K0@Z 0000000180000000     concurrent_vector.obj
 0004:fff74000       $pdata$?compare_and_swap@?$atomic_impl@_K@internal@tbb@@QEAA_K_K0@Z 0000000180000000     concurrent_vector.obj
 0002:fffac000       $unwind$??B?$atomic_impl@_K@internal@tbb@@QEDA_KXZ 0000000180000000     concurrent_vector.obj
 0004:fff74000       $pdata$??B?$atomic_impl@_K@internal@tbb@@QEDA_KXZ 0000000180000000     concurrent_vector.obj
 0002:fffac000       $unwind$?store_with_release@?$atomic_impl@_K@internal@tbb@@IEAA_K_K@Z 0000000180000000     concurrent_vector.obj
 0004:fff74000       $pdata$?store_with_release@?$atomic_impl@_K@internal@tbb@@IEAA_K_K@Z 0000000180000000     concurrent_vector.obj
 0002:fffac000       $unwind$?fetch_and_add@?$atomic_impl_with_arithmetic@_K_KD@internal@tbb@@QEAA_K_K@Z 0000000180000000     concurrent_vector.obj
 0004:fff74000       $pdata$?fetch_and_add@?$atomic_impl_with_arithmetic@_K_KD@internal@tbb@@QEAA_K_K@Z 0000000180000000     concurrent_vector.obj
 0002:fffac000       $unwind$??4?$atomic@_K@tbb@@QEAA_K_K@Z 0000000180000000     concurrent_vector.obj
 0004:fff74000       $pdata$??4?$atomic@_K@tbb@@QEAA_K_K@Z 0000000180000000     concurrent_vector.obj
 0004:fff74000       $pdata$??$__TBB_load_relaxed@I@internal@tbb@@YAIAEDI@Z 0000000180000000     arena.obj
 0002:fffac000       $unwind$?get_env@cpu_ctl_env@internal@tbb@@QEAAXXZ 0000000180000000     arena.obj
 0002:fffac000       $ip2state$??0exception_ptr@std@@QEAA@AEBV01@@Z 0000000180000000     arena.obj
 0002:fffac000       $cppxdata$??0exception_ptr@std@@QEAA@AEBV01@@Z 0000000180000000     arena.obj
 0004:fff74000       $pdata$??0exception_ptr@std@@QEAA@AEBV01@@Z 0000000180000000     arena.obj
 0002:fffac000       $unwind$??0exception_ptr@std@@QEAA@AEBV01@@Z 0000000180000000     arena.obj
 0002:fffac000       $ip2state$??1exception_ptr@std@@QEAA@XZ 0000000180000000     arena.obj
 0002:fffac000       $cppxdata$??1exception_ptr@std@@QEAA@XZ 0000000180000000     arena.obj
 0004:fff74000       $pdata$??1exception_ptr@std@@QEAA@XZ 0000000180000000     arena.obj
 0000:fff69000       .debug$S                   0000000180000000     tbb_debug.exp
 0002:fffac000       $unwind$??1exception_ptr@std@@QEAA@XZ 0000000180000000     arena.obj
 0000:fff69000       .debug$S                   0000000180000000     kernel32:KERNEL32.dll
 0000:fff69000       .debug$S                   0000000180000000     kernel32:KERNEL32.dll
 0000:fff69000       .debug$S                   0000000180000000     kernel32:KERNEL32.dll
 0000:fff69000       .debug$S                   0000000180000000     kernel32:KERNEL32.dll
 0000:fff69000       .debug$S                   0000000180000000     kernel32:KERNEL32.dll
 0000:fff69000       .debug$S                   0000000180000000     kernel32:KERNEL32.dll
 0000:fff69000       .debug$S                   0000000180000000     kernel32:KERNEL32.dll
 0000:fff69000       .debug$S                   0000000180000000     kernel32:KERNEL32.dll
 0000:fff69000       .debug$S                   0000000180000000     kernel32:KERNEL32.dll
 0000:fff69000       .debug$S                   0000000180000000     kernel32:KERNEL32.dll
 0000:fff69000       .debug$S                   0000000180000000     kernel32:KERNEL32.dll
 0000:fff69000       .debug$S                   0000000180000000     kernel32:KERNEL32.dll
 0000:fff69000       .debug$S                   0000000180000000     kernel32:KERNEL32.dll
 0000:fff69000       .debug$S                   0000000180000000     kernel32:KERNEL32.dll
 0000:fff69000       .debug$S                   0000000180000000     kernel32:KERNEL32.dll
 0000:fff69000       .debug$S                   0000000180000000     kernel32:KERNEL32.dll
 0000:fff69000       .debug$S                   0000000180000000     kernel32:KERNEL32.dll
 0000:fff69000       .debug$S                   0000000180000000     kernel32:KERNEL32.dll
 0000:fff69000       .debug$S                   0000000180000000     kernel32:KERNEL32.dll
 0000:fff69000       .debug$S                   0000000180000000     kernel32:KERNEL32.dll
 0004:fff74000       $pdata$??2@YAPEAX_KPEAX@Z  0000000180000000     arena.obj
 0000:fff69000       .debug$S                   0000000180000000     ucrtd:ucrtbased.dll
 0000:fff69000       .debug$S                   0000000180000000     ucrtd:ucrtbased.dll
 0000:fff69000       .debug$S                   0000000180000000     ucrtd:ucrtbased.dll
 0000:fff69000       .debug$S                   0000000180000000     ucrtd:ucrtbased.dll
 0000:fff69000       .debug$S                   0000000180000000     ucrtd:ucrtbased.dll
 0000:fff69000       .debug$S                   0000000180000000     ucrtd:ucrtbased.dll
 0000:fff69000       .debug$S                   0000000180000000     ucrtd:ucrtbased.dll
 0000:fff69000       .debug$S                   0000000180000000     ucrtd:ucrtbased.dll
 0000:fff69000       .debug$S                   0000000180000000     ucrtd:ucrtbased.dll
 0000:fff69000       .debug$S                   0000000180000000     ucrtd:ucrtbased.dll
 0000:fff69000       .debug$S                   0000000180000000     ucrtd:ucrtbased.dll
 0000:fff69000       .debug$S                   0000000180000000     ucrtd:ucrtbased.dll
 0000:fff69000       .debug$S                   0000000180000000     ucrtd:ucrtbased.dll
 0000:fff69000       .debug$S                   0000000180000000     ucrtd:ucrtbased.dll
 0000:fff69000       .debug$S                   0000000180000000     ucrtd:ucrtbased.dll
 0000:fff69000       .debug$S                   0000000180000000     ucrtd:ucrtbased.dll
 0000:fff69000       .debug$S                   0000000180000000     ucrtd:ucrtbased.dll
 0000:fff69000       .debug$S                   0000000180000000     ucrtd:ucrtbased.dll
 0000:fff69000       .debug$S                   0000000180000000     ucrtd:ucrtbased.dll
 0000:fff69000       .debug$S                   0000000180000000     ucrtd:ucrtbased.dll
 0000:fff69000       .debug$S                   0000000180000000     ucrtd:ucrtbased.dll
 0000:fff69000       .debug$S                   0000000180000000     ucrtd:ucrtbased.dll
 0000:fff69000       .debug$S                   0000000180000000     ucrtd:ucrtbased.dll
 0000:fff69000       .debug$S                   0000000180000000     ucrtd:ucrtbased.dll
 0000:fff69000       .debug$S                   0000000180000000     ucrtd:ucrtbased.dll
 0000:fff69000       .debug$S                   0000000180000000     ucrtd:ucrtbased.dll
 0000:fff69000       .debug$S                   0000000180000000     ucrtd:ucrtbased.dll
 0000:fff69000       .debug$S                   0000000180000000     ucrtd:ucrtbased.dll
 0000:fff69000       .debug$S                   0000000180000000     ucrtd:ucrtbased.dll
 0000:fff69000       .debug$S                   0000000180000000     ucrtd:ucrtbased.dll
 0000:fff69000       .debug$S                   0000000180000000     ucrtd:ucrtbased.dll
 0000:fff69000       .debug$S                   0000000180000000     ucrtd:ucrtbased.dll
 0000:fff69000       .debug$S                   0000000180000000     ucrtd:ucrtbased.dll
 0000:fff69000       .debug$S                   0000000180000000     ucrtd:ucrtbased.dll
 0000:fff69000       .debug$S                   0000000180000000     ucrtd:ucrtbased.dll
 0000:fff69000       .debug$S                   0000000180000000     ucrtd:ucrtbased.dll
 0000:fff69000       .debug$S                   0000000180000000     ucrtd:ucrtbased.dll
 0000:fff69000       .debug$S                   0000000180000000     ucrtd:ucrtbased.dll
 0000:fff69000       .debug$S                   0000000180000000     ucrtd:ucrtbased.dll
 0000:fff69000       .debug$S                   0000000180000000     ucrtd:ucrtbased.dll
 0000:fff69000       .debug$S                   0000000180000000     ucrtd:ucrtbased.dll
 0000:fff69000       .debug$S                   0000000180000000     ucrtd:ucrtbased.dll
 0000:fff69000       .debug$S                   0000000180000000     ucrtd:ucrtbased.dll
 0002:fffac000       $unwind$??2@YAPEAX_KPEAX@Z 0000000180000000     arena.obj
 0000:fff69000       .debug$S                   0000000180000000     vcruntimed:VCRUNTIME140D.dll
 0000:fff69000       .debug$S                   0000000180000000     vcruntimed:VCRUNTIME140D.dll
 0000:fff69000       .debug$S                   0000000180000000     vcruntimed:VCRUNTIME140D.dll
 0000:fff69000       .debug$S                   0000000180000000     vcruntimed:VCRUNTIME140D.dll
 0000:fff69000       .debug$S                   0000000180000000     vcruntimed:VCRUNTIME140D.dll
 0000:fff69000       .debug$S                   0000000180000000     vcruntimed:VCRUNTIME140D.dll
 0000:fff69000       .debug$S                   0000000180000000     vcruntimed:VCRUNTIME140D.dll
 0000:fff69000       .debug$S                   0000000180000000     vcruntimed:VCRUNTIME140D.dll
 0000:fff69000       .debug$S                   0000000180000000     vcruntimed:VCRUNTIME140D.dll
 0000:fff69000       .debug$S                   0000000180000000     vcruntimed:VCRUNTIME140D.dll
 0000:fff69000       .debug$S                   0000000180000000     vcruntimed:VCRUNTIME140D.dll
 0000:fff69000       .debug$S                   0000000180000000     vcruntimed:VCRUNTIME140D.dll
 0000:fff69000       .debug$S                   0000000180000000     vcruntimed:VCRUNTIME140D.dll
 0000:fff69000       .debug$S                   0000000180000000     vcruntimed:VCRUNTIME140D.dll
 0000:fff69000       .debug$S                   0000000180000000     vcruntimed:VCRUNTIME140D.dll
 0000:fff69000       .debug$S                   0000000180000000     vcruntimed:VCRUNTIME140D.dll
 0000:fff69000       .debug$S                   0000000180000000     vcruntimed:VCRUNTIME140D.dll
 0004:fff74000       $pdata$??0mutex_copy_deprecated_and_disabled@internal@tbb@@QEAA@XZ 0000000180000000     arena.obj
 0002:fffac000       $unwind$??0mutex_copy_deprecated_and_disabled@internal@tbb@@QEAA@XZ 0000000180000000     arena.obj
 0004:fff74000       $pdata$??0no_copy@internal@tbb@@QEAA@XZ 0000000180000000     arena.obj
 0002:fffac000       $unwind$??0no_copy@internal@tbb@@QEAA@XZ 0000000180000000     arena.obj
 0004:fff74000       $pdata$?__empty_global_delete@@YAXPEAX_K@Z 0000000180000000     arena.obj
 0002:fffac000       $unwind$?__empty_global_delete@@YAXPEAX_K@Z 0000000180000000     arena.obj
 0004:fff74000       $pdata$?__empty_global_delete@@YAXPEAX@Z 0000000180000000     arena.obj
 0002:fffac000       $unwind$?__empty_global_delete@@YAXPEAX@Z 0000000180000000     arena.obj
 0002:fffac000       $unwind$?empty@?$task_stream@$02@internal@tbb@@QEAA_NH@Z 0000000180000000     arena.obj
 0004:fff74000       $pdata$?empty@?$task_stream@$02@internal@tbb@@QEAA_NH@Z 0000000180000000     arena.obj
 0001:fffff000       ?dtor$0@?0???0concurrent_monitor@internal@tbb@@QEAA@XZ@4HA 0000000180000000 f   arena.obj
 0004:fff74000       $pdata$??0?$ptr_converter@PED_K@?$atomic_impl@_K@internal@tbb@@QEAA@PED_K@Z 0000000180000000     market.obj
 0002:fffac000       $unwind$??0?$ptr_converter@PED_K@?$atomic_impl@_K@internal@tbb@@QEAA@PED_K@Z 0000000180000000     market.obj
 0004:fff74000       $pdata$?fetch_and_add@?$atomic_traits@$03$0A@@internal@tbb@@SAHPECXH@Z 0000000180000000     market.obj
 0002:fffac000       $unwind$?fetch_and_add@?$atomic_traits@$03$0A@@internal@tbb@@SAHPECXH@Z 0000000180000000     market.obj
 0004:fff74000       $pdata$?compare_and_swap@?$atomic_traits@$03$0A@@internal@tbb@@SAHPECXHH@Z 0000000180000000     market.obj
 0002:fffac000       $unwind$?compare_and_swap@?$atomic_traits@$03$0A@@internal@tbb@@SAHPECXHH@Z 0000000180000000     market.obj
 0004:fff74000       $pdata$??0?$ptr_converter@PEDI@?$atomic_impl@I@internal@tbb@@QEAA@PEDI@Z 0000000180000000     market.obj
 0002:fffac000       $unwind$??0?$ptr_converter@PEDI@?$atomic_impl@I@internal@tbb@@QEAA@PEDI@Z 0000000180000000     market.obj
 0004:fff74000       $pdata$??0?$ptr_converter@PEDH@?$atomic_impl@H@internal@tbb@@QEAA@PEDH@Z 0000000180000000     market.obj
 0002:fffac000       $unwind$??0?$ptr_converter@PEDH@?$atomic_impl@H@internal@tbb@@QEAA@PEDH@Z 0000000180000000     market.obj
 0004:fff74000       $pdata$?load_with_acquire@?$machine_load_store@H$03@internal@tbb@@SAHAEDH@Z 0000000180000000     market.obj
 0002:fffac000       $unwind$?load_with_acquire@?$machine_load_store@H$03@internal@tbb@@SAHAEDH@Z 0000000180000000     market.obj
 0004:fff74000       $pdata$?store_with_release@?$machine_load_store@_J$07@internal@tbb@@SAXAEC_J_J@Z 0000000180000000     market.obj
 0002:fffac000       $unwind$?store_with_release@?$machine_load_store@_J$07@internal@tbb@@SAXAEC_J_J@Z 0000000180000000     market.obj
 0004:fff74000       $pdata$?load_with_acquire@?$machine_load_store@_J$07@internal@tbb@@SA_JAED_J@Z 0000000180000000     market.obj
 0002:fffac000       $unwind$?load_with_acquire@?$machine_load_store@_J$07@internal@tbb@@SA_JAED_J@Z 0000000180000000     market.obj
 0004:fff74000       $pdata$??$fetch_and_add@$0A@@?$atomic_impl_with_arithmetic@IID@internal@tbb@@QEAAII@Z 0000000180000000     market.obj
 0002:fffac000       $unwind$??$fetch_and_add@$0A@@?$atomic_impl_with_arithmetic@IID@internal@tbb@@QEAAII@Z 0000000180000000     market.obj
 0002:fffac000       $unwind$?num_workers_active@arena@internal@tbb@@QEAAIXZ 0000000180000000     arena.obj
 0004:fff74000       $pdata$?num_workers_active@arena@internal@tbb@@QEAAIXZ 0000000180000000     arena.obj
 0004:fff74000       $pdata$??$to_value@_K@?$atomic_impl@_K@internal@tbb@@SA_K_J@Z 0000000180000000     market.obj
 0002:fffac000       $unwind$??$to_value@_K@?$atomic_impl@_K@internal@tbb@@SA_K_J@Z 0000000180000000     market.obj
 0002:fffac000       ??$to_value@_K@?$atomic_impl@_K@internal@tbb@@SA_K_J@Z$rtcName$0 0000000180000000     market.obj
 0004:fff74000       $pdata$??$to_bits_ref@$$CD_K@?$atomic_impl@_K@internal@tbb@@SAAEA_JAED_K@Z 0000000180000000     market.obj
 0002:fffac000       $unwind$??$to_bits_ref@$$CD_K@?$atomic_impl@_K@internal@tbb@@SAAEA_JAED_K@Z 0000000180000000     market.obj
 0004:fff74000       $pdata$??0?$converter@_K@?$atomic_impl@_K@internal@tbb@@QEAA@XZ 0000000180000000     market.obj
 0002:fffac000       __guard_fids___scrt_set_unhandled_exception_filter 0000000180000000     MSVCRTD:utility_desktop.obj
 0002:fffac000       $unwind$??0?$converter@_K@?$atomic_impl@_K@internal@tbb@@QEAA@XZ 0000000180000000     market.obj
 0004:fff74000       $pdata$??$to_value@I@?$atomic_impl@I@internal@tbb@@SAIH@Z 0000000180000000     market.obj
 0002:fffac000       $unwind$??$to_value@I@?$atomic_impl@I@internal@tbb@@SAIH@Z 0000000180000000     market.obj
 0002:fffac000       ??$to_value@I@?$atomic_impl@I@internal@tbb@@SAIH@Z$rtcName$0 0000000180000000     market.obj
 0004:fff74000       $pdata$??$to_bits_ref@$$CDI@?$atomic_impl@I@internal@tbb@@SAAEAHAEDI@Z 0000000180000000     market.obj
 0002:fffac000       $unwind$??$to_bits_ref@$$CDI@?$atomic_impl@I@internal@tbb@@SAAEAHAEDI@Z 0000000180000000     market.obj
 0004:fff74000       $pdata$??0?$converter@I@?$atomic_impl@I@internal@tbb@@QEAA@I@Z 0000000180000000     market.obj
 0002:fffac000       $unwind$??0?$converter@I@?$atomic_impl@I@internal@tbb@@QEAA@I@Z 0000000180000000     market.obj
 0004:fff74000       $pdata$??0?$converter@I@?$atomic_impl@I@internal@tbb@@QEAA@XZ 0000000180000000     market.obj
 0002:fffac000       ??$spin_wait_while_eq@U?$atomic@_K@tbb@@_K@internal@tbb@@YAXAEDU?$atomic@_K@1@_K@Z$rtcName$0 0000000180000000     concurrent_vector.obj
 0002:fffac000       $unwind$?recall_by_mandatory_request@arena@internal@tbb@@QEBA_NXZ 0000000180000000     arena.obj
 0004:fff74000       $pdata$?recall_by_mandatory_request@arena@internal@tbb@@QEBA_NXZ 0000000180000000     arena.obj
 0002:fffac000       __guard_fids__             0000000180000000     MSVCRTD:throw_bad_alloc.obj
 0002:fffac000       __guard_fids__             0000000180000000     MSVCRTD:throw_bad_alloc.obj
 0002:fffac000       __guard_fids__             0000000180000000     MSVCRTD:throw_bad_alloc.obj
 0002:fffac000       $unwind$??$spin_wait_while_eq@U?$atomic@_K@tbb@@_K@internal@tbb@@YAXAEDU?$atomic@_K@1@_K@Z 0000000180000000     concurrent_vector.obj
 0004:fff74000       $pdata$??$spin_wait_while_eq@U?$atomic@_K@tbb@@_K@internal@tbb@@YAXAEDU?$atomic@_K@1@_K@Z 0000000180000000     concurrent_vector.obj
 0002:fffac000       $unwind$??0?$converter@I@?$atomic_impl@I@internal@tbb@@QEAA@XZ 0000000180000000     market.obj
 0004:fff74000       $pdata$??$__TBB_load_with_acquire@H@internal@tbb@@YAHAEDH@Z 0000000180000000     market.obj
 0002:fffac000       $unwind$??$__TBB_load_with_acquire@H@internal@tbb@@YAHAEDH@Z 0000000180000000     market.obj
 0004:fff74000       $pdata$??0?$converter@H@?$atomic_impl@H@internal@tbb@@QEAA@XZ 0000000180000000     market.obj
 0002:fffac000       $unwind$??0?$converter@H@?$atomic_impl@H@internal@tbb@@QEAA@XZ 0000000180000000     market.obj
 0004:fff74000       $pdata$??$__TBB_load_with_acquire@_J@internal@tbb@@YA_JAED_J@Z 0000000180000000     market.obj
 0002:fffac000       $unwind$??$__TBB_load_with_acquire@_J@internal@tbb@@YA_JAED_J@Z 0000000180000000     concurrent_vector.obj
 0004:fff74000       $pdata$??$__TBB_load_with_acquire@_J@internal@tbb@@YA_JAED_J@Z 0000000180000000     concurrent_vector.obj
 0002:fffac000       $unwind$??$__TBB_load_with_acquire@_J@internal@tbb@@YA_JAED_J@Z 0000000180000000     market.obj
 0004:fff74000       $pdata$??$__TBB_store_with_release@_J_J@internal@tbb@@YAXAEC_J_J@Z 0000000180000000     market.obj
 0004:fff74000       $pdata$??_Gbad_alloc@std@@UEAAPEAXI@Z 0000000180000000     MSVCRTD:throw_bad_alloc.obj
 0002:fffac000       $unwind$??_Gbad_alloc@std@@UEAAPEAXI@Z 0000000180000000     MSVCRTD:throw_bad_alloc.obj
 0004:fff74000       $pdata$??0bad_alloc@std@@QEAA@AEBV01@@Z 0000000180000000     MSVCRTD:throw_bad_alloc.obj
 0002:fffac000       $unwind$??0bad_alloc@std@@QEAA@AEBV01@@Z 0000000180000000     MSVCRTD:throw_bad_alloc.obj
 0004:fff74000       $pdata$??1bad_alloc@std@@UEAA@XZ 0000000180000000     MSVCRTD:throw_bad_alloc.obj
 0002:fffac000       $unwind$??1bad_alloc@std@@UEAA@XZ 0000000180000000     MSVCRTD:throw_bad_alloc.obj
 0002:fffac000       $unwind$??$__TBB_store_with_release@_J_J@internal@tbb@@YAXAEC_J_J@Z 0000000180000000     market.obj
 0002:fffac000       $unwind$??$__TBB_store_with_release@_J_J@internal@tbb@@YAXAEC_J_J@Z 0000000180000000     concurrent_vector.obj
 0004:fff74000       $pdata$??0bad_alloc@std@@QEAA@XZ 0000000180000000     MSVCRTD:throw_bad_alloc.obj
 0002:fffac000       $unwind$??0bad_alloc@std@@QEAA@XZ 0000000180000000     MSVCRTD:throw_bad_alloc.obj
 0004:fff74000       $pdata$??_Gexception@std@@UEAAPEAXI@Z 0000000180000000     MSVCRTD:throw_bad_alloc.obj
 0002:fffac000       $unwind$??_Gexception@std@@UEAAPEAXI@Z 0000000180000000     MSVCRTD:throw_bad_alloc.obj
 0004:fff74000       $pdata$?what@exception@std@@UEBAPEBDXZ 0000000180000000     MSVCRTD:throw_bad_alloc.obj
 0002:fffac000       $unwind$?what@exception@std@@UEBAPEBDXZ 0000000180000000     MSVCRTD:throw_bad_alloc.obj
 0004:fff74000       $pdata$??1exception@std@@UEAA@XZ 0000000180000000     MSVCRTD:throw_bad_alloc.obj
 0002:fffac000       $unwind$??1exception@std@@UEAA@XZ 0000000180000000     MSVCRTD:throw_bad_alloc.obj
 0004:fff74000       $pdata$??0exception@std@@QEAA@AEBV01@@Z 0000000180000000     MSVCRTD:throw_bad_alloc.obj
 0002:fffac000       $unwind$??0exception@std@@QEAA@AEBV01@@Z 0000000180000000     MSVCRTD:throw_bad_alloc.obj
 0004:fff74000       $pdata$??0exception@std@@QEAA@QEBDH@Z 0000000180000000     MSVCRTD:throw_bad_alloc.obj
 0002:fffac000       $unwind$??0exception@std@@QEAA@QEBDH@Z 0000000180000000     MSVCRTD:throw_bad_alloc.obj
 0004:fff74000       $pdata$??$__TBB_store_with_release@_J_J@internal@tbb@@YAXAEC_J_J@Z 0000000180000000     concurrent_vector.obj
 0004:fff74000       $pdata$??$as_atomic@_K@internal@tbb@@YAAEAU?$atomic@_K@1@AEA_K@Z 0000000180000000     market.obj
 0002:fffac000       __guard_fids__guard_icall_checks_enforced 0000000180000000     MSVCRTD:guard_support.obj
 0002:fffac000       $unwind$??$as_atomic@_K@internal@tbb@@YAAEAU?$atomic@_K@1@AEA_K@Z 0000000180000000     market.obj
 0004:fff74000       $pdata$?is_worker@generic_scheduler@internal@tbb@@QEBA_NXZ 0000000180000000     market.obj
 0002:fffac000       $unwind$??0?$converter@_K@?$atomic_impl@_K@internal@tbb@@QEAA@XZ 0000000180000000     concurrent_vector.obj
 0004:fff74000       $pdata$??0?$converter@_K@?$atomic_impl@_K@internal@tbb@@QEAA@XZ 0000000180000000     concurrent_vector.obj
 0002:fffac000       __guard_fids__             0000000180000000     MSVCRTD:guard_support.obj
 0002:fffac000       $unwind$??0?$converter@_K@?$atomic_impl@_K@internal@tbb@@QEAA@_K@Z 0000000180000000     concurrent_vector.obj
 0004:fff74000       $pdata$??0?$converter@_K@?$atomic_impl@_K@internal@tbb@@QEAA@_K@Z 0000000180000000     concurrent_vector.obj
 0002:fffac000       $unwind$??$to_bits_ref@_K@?$atomic_impl@_K@internal@tbb@@CAAEA_JAEA_K@Z 0000000180000000     concurrent_vector.obj
 0004:fff74000       $pdata$??$to_bits_ref@_K@?$atomic_impl@_K@internal@tbb@@CAAEA_JAEA_K@Z 0000000180000000     concurrent_vector.obj
 0002:fffac000       $unwind$??$to_bits@_K@?$atomic_impl@_K@internal@tbb@@CA_J_K@Z 0000000180000000     concurrent_vector.obj
 0004:fff74000       $pdata$??$to_bits@_K@?$atomic_impl@_K@internal@tbb@@CA_J_K@Z 0000000180000000     concurrent_vector.obj
 0002:fffac000       $unwind$??$to_bits_ref@$$CD_K@?$atomic_impl@_K@internal@tbb@@CAAEA_JAED_K@Z 0000000180000000     concurrent_vector.obj
 0004:fff74000       $pdata$??$to_bits_ref@$$CD_K@?$atomic_impl@_K@internal@tbb@@CAAEA_JAED_K@Z 0000000180000000     concurrent_vector.obj
 0002:fffac000       ??$to_value@_K@?$atomic_impl@_K@internal@tbb@@CA_K_J@Z$rtcName$0 0000000180000000     concurrent_vector.obj
 0002:fffac000       $unwind$?is_worker@generic_scheduler@internal@tbb@@QEBA_NXZ 0000000180000000     market.obj
 0004:fff74000       $pdata$?get@?$basic_tls@_K@internal@tbb@@QEAA_KXZ 0000000180000000     market.obj
 0002:fffac000       $unwind$??$to_value@_K@?$atomic_impl@_K@internal@tbb@@CA_K_J@Z 0000000180000000     concurrent_vector.obj
 0004:fff74000       $pdata$??$to_value@_K@?$atomic_impl@_K@internal@tbb@@CA_K_J@Z 0000000180000000     concurrent_vector.obj
 0002:fffac000       $unwind$??$compare_and_swap@$0A@@?$atomic_impl@_K@internal@tbb@@QEAA_K_K0@Z 0000000180000000     concurrent_vector.obj
 0004:fff74000       $pdata$??$compare_and_swap@$0A@@?$atomic_impl@_K@internal@tbb@@QEAA_K_K0@Z 0000000180000000     concurrent_vector.obj
 0002:fffac000       $unwind$??$fetch_and_add@$0A@@?$atomic_impl_with_arithmetic@_K_KD@internal@tbb@@QEAA_K_K@Z 0000000180000000     concurrent_vector.obj
 0004:fff74000       $pdata$??$fetch_and_add@$0A@@?$atomic_impl_with_arithmetic@_K_KD@internal@tbb@@QEAA_K_K@Z 0000000180000000     concurrent_vector.obj
 0002:fffac000       $unwind$?get@?$basic_tls@_K@internal@tbb@@QEAA_KXZ 0000000180000000     market.obj
 0004:fff74000       $pdata$?local_scheduler_if_initialized@governor@internal@tbb@@SAPEAVgeneric_scheduler@23@XZ 0000000180000000     market.obj
 0002:fffac000       $unwind$?local_scheduler_if_initialized@governor@internal@tbb@@SAPEAVgeneric_scheduler@23@XZ 0000000180000000     market.obj
 0004:fff74000       $pdata$?tls_scheduler_of@governor@internal@tbb@@SAPEAVgeneric_scheduler@23@_K@Z 0000000180000000     market.obj
 0002:fffac000       $unwind$?tls_scheduler_of@governor@internal@tbb@@SAPEAVgeneric_scheduler@23@_K@Z 0000000180000000     market.obj
 0004:fff74000       $pdata$?default_num_threads@governor@internal@tbb@@SAIXZ 0000000180000000     market.obj
 0002:fffac000       $unwind$??$poison_value@_K@internal@tbb@@YAXAEA_K@Z 0000000180000000     arena.obj
 0004:fff74000       $pdata$??$poison_value@_K@internal@tbb@@YAXAEA_K@Z 0000000180000000     arena.obj
 0002:fffac000       $unwind$?default_num_threads@governor@internal@tbb@@SAIXZ 0000000180000000     market.obj
 0002:fffac000       $unwind$?load_with_acquire@?$machine_load_store@_J$07@internal@tbb@@SA_JAED_J@Z 0000000180000000     concurrent_vector.obj
 0004:fff74000       $pdata$?load_with_acquire@?$machine_load_store@_J$07@internal@tbb@@SA_JAED_J@Z 0000000180000000     concurrent_vector.obj
 0002:fffac000       $unwind$?store_with_release@?$machine_load_store@_J$07@internal@tbb@@SAXAEC_J_J@Z 0000000180000000     concurrent_vector.obj
 0004:fff74000       $pdata$?store_with_release@?$machine_load_store@_J$07@internal@tbb@@SAXAEC_J_J@Z 0000000180000000     concurrent_vector.obj
 0002:fffac000       $unwind$?compare_and_swap@?$atomic_traits@$07$0A@@internal@tbb@@SA_JPECX_J1@Z 0000000180000000     concurrent_vector.obj
 0004:fff74000       $pdata$?compare_and_swap@?$atomic_traits@$07$0A@@internal@tbb@@SA_JPECX_J1@Z 0000000180000000     concurrent_vector.obj
 0002:fffac000       $unwind$?fetch_and_add@?$atomic_traits@$07$0A@@internal@tbb@@SA_JPECX_J@Z 0000000180000000     concurrent_vector.obj
 0004:fff74000       $pdata$??0versioned_object@rml@@QEAA@XZ 0000000180000000     market.obj
 0002:fffac000       $unwind$??0versioned_object@rml@@QEAA@XZ 0000000180000000     market.obj
 0004:fff74000       $pdata$?release@scoped_lock@spin_rw_mutex_v3@tbb@@QEAAXXZ 0000000180000000     market.obj
 0002:fffac000       $unwind$?release@scoped_lock@spin_rw_mutex_v3@tbb@@QEAAXXZ 0000000180000000     market.obj
 0004:fff74000       $pdata$?acquire@scoped_lock@spin_rw_mutex_v3@tbb@@QEAAXAEAV23@_N@Z 0000000180000000     market.obj
 0002:fffac000       $unwind$??$__TBB_load_with_acquire@_K@internal@tbb@@YA_KAED_K@Z 0000000180000000     arena.obj
 0004:fff74000       $pdata$??$__TBB_load_with_acquire@_K@internal@tbb@@YA_KAED_K@Z 0000000180000000     arena.obj
 0004:fff74000       $pdata$?fetch_and_add@?$atomic_traits@$07$0A@@internal@tbb@@SA_JPECX_J@Z 0000000180000000     concurrent_vector.obj
 0002:fffac000       $unwind$??0?$ptr_converter@PEA_K@?$atomic_impl@_K@internal@tbb@@QEAA@PEA_K@Z 0000000180000000     concurrent_vector.obj
 0004:fff74000       $pdata$??0?$ptr_converter@PEA_K@?$atomic_impl@_K@internal@tbb@@QEAA@PEA_K@Z 0000000180000000     concurrent_vector.obj
 0002:fffac000       $unwind$??0?$ptr_converter@PED_K@?$atomic_impl@_K@internal@tbb@@QEAA@PED_K@Z 0000000180000000     concurrent_vector.obj
 0004:fff74000       $pdata$??0?$ptr_converter@PED_K@?$atomic_impl@_K@internal@tbb@@QEAA@PED_K@Z 0000000180000000     concurrent_vector.obj
 0002:fffac000       $unwind$?acquire@scoped_lock@spin_rw_mutex_v3@tbb@@QEAAXAEAV23@_N@Z 0000000180000000     market.obj
 0004:fff74000       $pdata$??$suppress_unused_warning@E@internal@tbb@@YAXAEBE@Z 0000000180000000     market.obj
 0002:fffac000       $unwind$??$suppress_unused_warning@E@internal@tbb@@YAXAEBE@Z 0000000180000000     market.obj
 0002:fffac000       $ip2state$??1scoped_lock@spin_mutex@tbb@@QEAA@XZ 0000000180000000     market.obj
 0002:fffac000       $cppxdata$??1scoped_lock@spin_mutex@tbb@@QEAA@XZ 0000000180000000     market.obj
 0004:fff74000       $pdata$??1scoped_lock@spin_mutex@tbb@@QEAA@XZ 0000000180000000     market.obj
 0002:fffac000       $unwind$??1scoped_lock@spin_mutex@tbb@@QEAA@XZ 0000000180000000     market.obj
 0004:fff74000       $pdata$??0scoped_lock@spin_mutex@tbb@@QEAA@AEAV12@@Z 0000000180000000     market.obj
 0002:fffac000       __guard_fids_?dllmain_dispatch@@YAHQEAUHINSTANCE__@@KQEAX@Z 0000000180000000     MSVCRTD:dll_dllmain.obj
 0002:fffac000       $unwind$??0scoped_lock@spin_mutex@tbb@@QEAA@AEAV12@@Z 0000000180000000     market.obj
 0004:fff74000       $pdata$??B?$atomic_impl@H@internal@tbb@@QEDAHXZ 0000000180000000     market.obj
 0002:fffac000       $unwind$??B?$atomic_impl@H@internal@tbb@@QEDAHXZ 0000000180000000     market.obj
 0004:fff74000       $pdata$??E?$atomic_impl_with_arithmetic@IID@internal@tbb@@QEAAIXZ 0000000180000000     market.obj
 0002:fffac000       $unwind$??E?$atomic_impl_with_arithmetic@IID@internal@tbb@@QEAAIXZ 0000000180000000     market.obj
 0004:fff74000       $pdata$?fetch_and_add@?$atomic_impl_with_arithmetic@IID@internal@tbb@@QEAAII@Z 0000000180000000     market.obj
 0002:fffac000       $unwind$?fetch_and_add@?$atomic_impl_with_arithmetic@IID@internal@tbb@@QEAAII@Z 0000000180000000     market.obj
 0004:fff74000       $pdata$??B?$atomic_impl@I@internal@tbb@@QEDAIXZ 0000000180000000     market.obj
 0002:fffac000       $unwind$??B?$atomic_impl@I@internal@tbb@@QEDAIXZ 0000000180000000     market.obj
 0004:fff74000       $pdata$??B?$atomic_impl@_K@internal@tbb@@QEDA_KXZ 0000000180000000     market.obj
 0002:fffac000       $unwind$??B?$atomic_impl@_K@internal@tbb@@QEDA_KXZ 0000000180000000     market.obj
 0004:fff74000       $pdata$?store_with_release@?$machine_load_store@_K$07@internal@tbb@@SAXAEC_K_K@Z 0000000180000000     market.obj
 0002:fffac000       $unwind$?store_with_release@?$machine_load_store@_K$07@internal@tbb@@SAXAEC_K_K@Z 0000000180000000     market.obj
 0004:fff74000       $pdata$?__TBB_store_with_release@internal@tbb@@YAXAEC_K_K@Z 0000000180000000     market.obj
 0002:fffac000       $unwind$?__TBB_store_with_release@internal@tbb@@YAXAEC_K_K@Z 0000000180000000     market.obj
 0004:fff74000       $pdata$?active_value@global_control@interface9@tbb@@SA_KW4parameter@123@@Z 0000000180000000     market.obj
 0002:fffac000       $unwind$?active_value@global_control@interface9@tbb@@SA_KW4parameter@123@@Z 0000000180000000     market.obj
 0004:fff74000       $pdata$??2@YAPEAX_KPEAX@Z  0000000180000000     market.obj
 0002:fffac000       $unwind$??2@YAPEAX_KPEAX@Z 0000000180000000     market.obj
 0004:fff74000       $pdata$??0mutex_copy_deprecated_and_disabled@internal@tbb@@QEAA@XZ 0000000180000000     market.obj
 0002:fffac000       $unwind$??0mutex_copy_deprecated_and_disabled@internal@tbb@@QEAA@XZ 0000000180000000     market.obj
 0004:fff74000       $pdata$??0no_copy@internal@tbb@@QEAA@XZ 0000000180000000     market.obj
 0002:fffac000       $unwind$??0no_copy@internal@tbb@@QEAA@XZ 0000000180000000     market.obj
 0002:fffac000       $unwind$??$as_atomic@PEAVarena@internal@tbb@@@internal@tbb@@YAAEAU?$atomic@PEAVarena@internal@tbb@@@1@AEAPEAVarena@01@@Z 0000000180000000     arena.obj
 0004:fff74000       $pdata$??$as_atomic@PEAVarena@internal@tbb@@@internal@tbb@@YAAEAU?$atomic@PEAVarena@internal@tbb@@@1@AEAPEAVarena@01@@Z 0000000180000000     arena.obj
 0004:fff74000       $pdata$?__empty_global_delete@@YAXPEAX_K@Z 0000000180000000     market.obj
 0002:fffac000       $unwind$?__empty_global_delete@@YAXPEAX_K@Z 0000000180000000     market.obj
 0004:fff74000       $pdata$?__empty_global_delete@@YAXPEAX@Z 0000000180000000     market.obj
 0002:fffac000       $unwind$?__empty_global_delete@@YAXPEAX@Z 0000000180000000     market.obj
 0004:fff74000       $pdata$??0?$ptr_converter@PEDW4do_once_state@internal@tbb@@@?$atomic_impl@W4do_once_state@internal@tbb@@@internal@tbb@@QEAA@PEDW4do_once_state@23@@Z 0000000180000000     governor.obj
 0002:fffac000       $unwind$??0no_copy@internal@tbb@@QEAA@XZ 0000000180000000     dynamic_link.obj
 0004:fff74000       $pdata$??0no_copy@internal@tbb@@QEAA@XZ 0000000180000000     dynamic_link.obj
 0002:fffac000       $unwind$??0atomic_backoff@internal@tbb@@QEAA@XZ 0000000180000000     dynamic_link.obj
 0004:fff74000       $pdata$??0atomic_backoff@internal@tbb@@QEAA@XZ 0000000180000000     dynamic_link.obj
 0002:fffac000       $unwind$?pause@atomic_backoff@internal@tbb@@QEAAXXZ 0000000180000000     dynamic_link.obj
 0004:fff74000       $pdata$?pause@atomic_backoff@internal@tbb@@QEAAXXZ 0000000180000000     dynamic_link.obj
 0002:fffac000       $unwind$??B?$atomic_impl@_K@internal@tbb@@QEDA_KXZ 0000000180000000     dynamic_link.obj
 0004:fff74000       $pdata$??B?$atomic_impl@_K@internal@tbb@@QEDA_KXZ 0000000180000000     dynamic_link.obj
 0002:fffac000       $unwind$?fetch_and_add@?$atomic_impl_with_arithmetic@_K_KD@internal@tbb@@QEAA_K_K@Z 0000000180000000     dynamic_link.obj
 0004:fff74000       $pdata$?fetch_and_add@?$atomic_impl_with_arithmetic@_K_KD@internal@tbb@@QEAA_K_K@Z 0000000180000000     dynamic_link.obj
 0002:fffac000       $unwind$??E?$atomic_impl_with_arithmetic@_K_KD@internal@tbb@@QEAA_KH@Z 0000000180000000     dynamic_link.obj
 0004:fff74000       $pdata$??E?$atomic_impl_with_arithmetic@_K_KD@internal@tbb@@QEAA_KH@Z 0000000180000000     dynamic_link.obj
 0002:fffac000       $unwind$??0?$ptr_converter@PEDW4do_once_state@internal@tbb@@@?$atomic_impl@W4do_once_state@internal@tbb@@@internal@tbb@@QEAA@PEDW4do_once_state@23@@Z 0000000180000000     governor.obj
 0004:fff74000       $pdata$??$compare_and_swap@$0A@@?$atomic_impl@W4do_once_state@internal@tbb@@@internal@tbb@@QEAA?AW4do_once_state@12@W4312@0@Z 0000000180000000     governor.obj
 0002:fffac000       $unwind$??$compare_and_swap@$0A@@?$atomic_impl@W4do_once_state@internal@tbb@@@internal@tbb@@QEAA?AW4do_once_state@12@W4312@0@Z 0000000180000000     governor.obj
 0004:fff74000       $pdata$??$to_value@W4do_once_state@internal@tbb@@@?$atomic_impl@W4do_once_state@internal@tbb@@@internal@tbb@@CA?AW4do_once_state@12@H@Z 0000000180000000     governor.obj
 0002:fffac000       $unwind$??$to_value@W4do_once_state@internal@tbb@@@?$atomic_impl@W4do_once_state@internal@tbb@@@internal@tbb@@CA?AW4do_once_state@12@H@Z 0000000180000000     governor.obj
 0002:fffac000       ??$to_value@W4do_once_state@internal@tbb@@@?$atomic_impl@W4do_once_state@internal@tbb@@@internal@tbb@@CA?AW4do_once_state@12@H@Z$rtcName$0 0000000180000000     governor.obj
 0004:fff74000       $pdata$??$to_bits_ref@$$CDW4do_once_state@internal@tbb@@@?$atomic_impl@W4do_once_state@internal@tbb@@@internal@tbb@@CAAEAHAEDW4do_once_state@12@@Z 0000000180000000     governor.obj
 0002:fffac000       $unwind$??$to_bits_ref@$$CDW4do_once_state@internal@tbb@@@?$atomic_impl@W4do_once_state@internal@tbb@@@internal@tbb@@CAAEAHAEDW4do_once_state@12@@Z 0000000180000000     governor.obj
 0004:fff74000       $pdata$?compare_and_swap@?$atomic_traits@$03$0A@@internal@tbb@@SAHPECXHH@Z 0000000180000000     governor.obj
 0002:fffac000       $unwind$?compare_and_swap@?$atomic_traits@$03$0A@@internal@tbb@@SAHPECXHH@Z 0000000180000000     governor.obj
 0004:fff74000       $pdata$??0?$ptr_converter@PEAW4do_once_state@internal@tbb@@@?$atomic_impl@W4do_once_state@internal@tbb@@@internal@tbb@@QEAA@PEAW4do_once_state@23@@Z 0000000180000000     governor.obj
 0002:fffac000       $unwind$??0?$ptr_converter@PEAW4do_once_state@internal@tbb@@@?$atomic_impl@W4do_once_state@internal@tbb@@@internal@tbb@@QEAA@PEAW4do_once_state@23@@Z 0000000180000000     governor.obj
 0002:fffac000       $unwind$??$__TBB_load_with_acquire@_J@internal@tbb@@YA_JAED_J@Z 0000000180000000     dynamic_link.obj
 0004:fff74000       $pdata$??$__TBB_load_with_acquire@_J@internal@tbb@@YA_JAED_J@Z 0000000180000000     dynamic_link.obj
 0002:fffac000       $unwind$??$__TBB_store_with_release@HH@internal@tbb@@YAXAECHH@Z 0000000180000000     dynamic_link.obj
 0004:fff74000       $pdata$??$__TBB_store_with_release@HH@internal@tbb@@YAXAECHH@Z 0000000180000000     dynamic_link.obj
 0002:fffac000       $unwind$??$__TBB_load_with_acquire@H@internal@tbb@@YAHAEDH@Z 0000000180000000     dynamic_link.obj
 0004:fff74000       $pdata$??$__TBB_load_with_acquire@H@internal@tbb@@YAHAEDH@Z 0000000180000000     dynamic_link.obj
 0002:fffac000       $unwind$??0?$converter@_K@?$atomic_impl@_K@internal@tbb@@QEAA@XZ 0000000180000000     dynamic_link.obj
 0004:fff74000       $pdata$??0?$converter@_K@?$atomic_impl@_K@internal@tbb@@QEAA@XZ 0000000180000000     dynamic_link.obj
 0002:fffac000       $unwind$??$to_bits_ref@$$CD_K@?$atomic_impl@_K@internal@tbb@@CAAEA_JAED_K@Z 0000000180000000     dynamic_link.obj
 0004:fff74000       $pdata$??$to_bits_ref@$$CD_K@?$atomic_impl@_K@internal@tbb@@CAAEA_JAED_K@Z 0000000180000000     dynamic_link.obj
 0002:fffac000       ??$to_value@_K@?$atomic_impl@_K@internal@tbb@@CA_K_J@Z$rtcName$0 0000000180000000     dynamic_link.obj
 0004:fff74000       $pdata$?store_with_release@?$machine_load_store@H$03@internal@tbb@@SAXAECHH@Z 0000000180000000     governor.obj
 0002:fffac000       $unwind$?store_with_release@?$machine_load_store@H$03@internal@tbb@@SAXAECHH@Z 0000000180000000     governor.obj
 0002:fffac000       $unwind$??$to_value@_K@?$atomic_impl@_K@internal@tbb@@CA_K_J@Z 0000000180000000     dynamic_link.obj
 0004:fff74000       $pdata$??$to_value@_K@?$atomic_impl@_K@internal@tbb@@CA_K_J@Z 0000000180000000     dynamic_link.obj
 0002:fffac000       $unwind$??$fetch_and_add@$0A@@?$atomic_impl_with_arithmetic@_K_KD@internal@tbb@@QEAA_K_K@Z 0000000180000000     dynamic_link.obj
 0004:fff74000       $pdata$??$fetch_and_add@$0A@@?$atomic_impl_with_arithmetic@_K_KD@internal@tbb@@QEAA_K_K@Z 0000000180000000     dynamic_link.obj
 0004:fff74000       $pdata$?load_with_acquire@?$machine_load_store@H$03@internal@tbb@@SAHAEDH@Z 0000000180000000     governor.obj
 0002:fffac000       $unwind$?load_with_acquire@?$machine_load_store@H$03@internal@tbb@@SAHAEDH@Z 0000000180000000     governor.obj
 0004:fff74000       $pdata$??$spin_wait_while_eq@U?$atomic@W4do_once_state@internal@tbb@@@tbb@@W4do_once_state@internal@2@@internal@tbb@@YAXAEDU?$atomic@W4do_once_state@internal@tbb@@@1@W4do_once_state@01@@Z 0000000180000000     governor.obj
 0002:fffac000       $unwind$??$spin_wait_while_eq@U?$atomic@W4do_once_state@internal@tbb@@@tbb@@W4do_once_state@internal@2@@internal@tbb@@YAXAEDU?$atomic@W4do_once_state@internal@tbb@@@1@W4do_once_state@01@@Z 0000000180000000     governor.obj
 0002:fffac000       ??$spin_wait_while_eq@U?$atomic@W4do_once_state@internal@tbb@@@tbb@@W4do_once_state@internal@2@@internal@tbb@@YAXAEDU?$atomic@W4do_once_state@internal@tbb@@@1@W4do_once_state@01@@Z$rtcName$0 0000000180000000     governor.obj
 0004:fff74000       $pdata$??$to_bits@W4do_once_state@internal@tbb@@@?$atomic_impl@W4do_once_state@internal@tbb@@@internal@tbb@@CAHW4do_once_state@12@@Z 0000000180000000     governor.obj
 0002:fffac000       $unwind$?load_with_acquire@?$machine_load_store@_J$07@internal@tbb@@SA_JAED_J@Z 0000000180000000     dynamic_link.obj
 0004:fff74000       $pdata$?load_with_acquire@?$machine_load_store@_J$07@internal@tbb@@SA_JAED_J@Z 0000000180000000     dynamic_link.obj
 0002:fffac000       $unwind$?load_with_acquire@?$machine_load_store@H$03@internal@tbb@@SAHAEDH@Z 0000000180000000     dynamic_link.obj
 0004:fff74000       $pdata$?load_with_acquire@?$machine_load_store@H$03@internal@tbb@@SAHAEDH@Z 0000000180000000     dynamic_link.obj
 0002:fffac000       $unwind$?store_with_release@?$machine_load_store@H$03@internal@tbb@@SAXAECHH@Z 0000000180000000     dynamic_link.obj
 0004:fff74000       $pdata$?store_with_release@?$machine_load_store@H$03@internal@tbb@@SAXAECHH@Z 0000000180000000     dynamic_link.obj
 0002:fffac000       $unwind$??0?$ptr_converter@PED_K@?$atomic_impl@_K@internal@tbb@@QEAA@PED_K@Z 0000000180000000     dynamic_link.obj
 0004:fff74000       $pdata$??0?$ptr_converter@PED_K@?$atomic_impl@_K@internal@tbb@@QEAA@PED_K@Z 0000000180000000     dynamic_link.obj
 0002:fffac000       $unwind$?fetch_and_add@?$atomic_traits@$07$0A@@internal@tbb@@SA_JPECX_J@Z 0000000180000000     dynamic_link.obj
 0004:fff74000       $pdata$?fetch_and_add@?$atomic_traits@$07$0A@@internal@tbb@@SA_JPECX_J@Z 0000000180000000     dynamic_link.obj
 0002:fffac000       $unwind$??$to_bits@W4do_once_state@internal@tbb@@@?$atomic_impl@W4do_once_state@internal@tbb@@@internal@tbb@@CAHW4do_once_state@12@@Z 0000000180000000     governor.obj
 0004:fff74000       $pdata$??$to_bits_ref@W4do_once_state@internal@tbb@@@?$atomic_impl@W4do_once_state@internal@tbb@@@internal@tbb@@CAAEAHAEAW4do_once_state@12@@Z 0000000180000000     governor.obj
 0002:fffac000       $unwind$??$to_bits_ref@W4do_once_state@internal@tbb@@@?$atomic_impl@W4do_once_state@internal@tbb@@@internal@tbb@@CAAEAHAEAW4do_once_state@12@@Z 0000000180000000     governor.obj
 0004:fff74000       $pdata$??0?$converter@W4do_once_state@internal@tbb@@@?$atomic_impl@W4do_once_state@internal@tbb@@@internal@tbb@@QEAA@W4do_once_state@23@@Z 0000000180000000     governor.obj
 0002:fffac000       $unwind$??0?$converter@W4do_once_state@internal@tbb@@@?$atomic_impl@W4do_once_state@internal@tbb@@@internal@tbb@@QEAA@W4do_once_state@23@@Z 0000000180000000     governor.obj
 0004:fff74000       $pdata$??0?$converter@W4do_once_state@internal@tbb@@@?$atomic_impl@W4do_once_state@internal@tbb@@@internal@tbb@@QEAA@XZ 0000000180000000     governor.obj
 0002:fffac000       $unwind$??0?$converter@W4do_once_state@internal@tbb@@@?$atomic_impl@W4do_once_state@internal@tbb@@@internal@tbb@@QEAA@XZ 0000000180000000     governor.obj
 0004:fff74000       $pdata$??$__TBB_load_with_acquire@H@internal@tbb@@YAHAEDH@Z 0000000180000000     governor.obj
 0002:fffac000       $unwind$??$__TBB_load_with_acquire@H@internal@tbb@@YAHAEDH@Z 0000000180000000     governor.obj
 0004:fff74000       $pdata$??$__TBB_store_with_release@HH@internal@tbb@@YAXAECHH@Z 0000000180000000     governor.obj
 0002:fffac000       $unwind$??$__TBB_store_with_release@HH@internal@tbb@@YAXAECHH@Z 0000000180000000     governor.obj
 0004:fff74000       $pdata$?default_context@generic_scheduler@internal@tbb@@QEAAPEAVtask_group_context@3@XZ 0000000180000000     governor.obj
 0002:fffac000       $unwind$?default_context@generic_scheduler@internal@tbb@@QEAAPEAVtask_group_context@3@XZ 0000000180000000     governor.obj
 0004:fff74000       $pdata$?master_outermost_level@generic_scheduler@internal@tbb@@QEBA_NXZ 0000000180000000     governor.obj
 0002:fffac000       $unwind$??$__TBB_load_with_acquire@_J@internal@tbb@@YA_JAED_J@Z 0000000180000000     arena.obj
 0004:fff74000       $pdata$??$__TBB_load_with_acquire@_J@internal@tbb@@YA_JAED_J@Z 0000000180000000     arena.obj
 0002:fffac000       $unwind$?master_outermost_level@generic_scheduler@internal@tbb@@QEBA_NXZ 0000000180000000     governor.obj
 0004:fff74000       $pdata$?outermost_level@generic_scheduler@internal@tbb@@QEBA_NXZ 0000000180000000     governor.obj
 0002:fffac000       $unwind$?outermost_level@generic_scheduler@internal@tbb@@QEBA_NXZ 0000000180000000     governor.obj
 0004:fff74000       $pdata$?is_worker@generic_scheduler@internal@tbb@@QEBA_NXZ 0000000180000000     governor.obj
 0002:fffac000       $unwind$?is_worker@generic_scheduler@internal@tbb@@QEBA_NXZ 0000000180000000     governor.obj
 0004:fff74000       $pdata$?throw_exception@internal@tbb@@YAXW4exception_id@12@@Z 0000000180000000     governor.obj
 0002:fffac000       $unwind$?throw_exception@internal@tbb@@YAXW4exception_id@12@@Z 0000000180000000     governor.obj
 0004:fff74000       $pdata$?prefix@task@tbb@@QEBAAEAVtask_prefix@internal@2@PEAUversion_tag_v3@42@@Z 0000000180000000     governor.obj
 0002:fffac000       $unwind$?prefix@task@tbb@@QEBAAEAVtask_prefix@internal@2@PEAUversion_tag_v3@42@@Z 0000000180000000     governor.obj
 0004:fff74000       $pdata$?get@?$basic_tls@_K@internal@tbb@@QEAA_KXZ 0000000180000000     governor.obj
 0002:fffac000       $unwind$?get@?$basic_tls@_K@internal@tbb@@QEAA_KXZ 0000000180000000     governor.obj
 0004:fff74000       $pdata$?local_scheduler_if_initialized@governor@internal@tbb@@SAPEAVgeneric_scheduler@23@XZ 0000000180000000     governor.obj
 0002:fffac000       $unwind$?local_scheduler_if_initialized@governor@internal@tbb@@SAPEAVgeneric_scheduler@23@XZ 0000000180000000     governor.obj
 0004:fff74000       $pdata$?tls_scheduler_of@governor@internal@tbb@@SAPEAVgeneric_scheduler@23@_K@Z 0000000180000000     governor.obj
 0002:fffac000       $unwind$?tls_scheduler_of@governor@internal@tbb@@SAPEAVgeneric_scheduler@23@_K@Z 0000000180000000     governor.obj
 0004:fff74000       $pdata$?default_num_threads@governor@internal@tbb@@SAIXZ 0000000180000000     governor.obj
 0002:fffac000       $unwind$?default_num_threads@governor@internal@tbb@@SAIXZ 0000000180000000     governor.obj
 0004:fff74000       $pdata$??4?$atomic@W4do_once_state@internal@tbb@@@tbb@@QEAA?AW4do_once_state@internal@1@W4231@@Z 0000000180000000     governor.obj
 0002:fffac000       $unwind$??4?$atomic@W4do_once_state@internal@tbb@@@tbb@@QEAA?AW4do_once_state@internal@1@W4231@@Z 0000000180000000     governor.obj
 0004:fff74000       $pdata$?store_with_release@?$atomic_impl@W4do_once_state@internal@tbb@@@internal@tbb@@IEAA?AW4do_once_state@23@W4423@@Z 0000000180000000     governor.obj
 0002:fffac000       $unwind$?store_with_release@?$atomic_impl@W4do_once_state@internal@tbb@@@internal@tbb@@IEAA?AW4do_once_state@23@W4423@@Z 0000000180000000     governor.obj
 0004:fff74000       $pdata$??B?$atomic_impl@W4do_once_state@internal@tbb@@@internal@tbb@@QEDA?AW4do_once_state@12@XZ 0000000180000000     governor.obj
 0002:fffac000       $unwind$??B?$atomic_impl@W4do_once_state@internal@tbb@@@internal@tbb@@QEDA?AW4do_once_state@12@XZ 0000000180000000     governor.obj
 0004:fff74000       $pdata$?compare_and_swap@?$atomic_impl@W4do_once_state@internal@tbb@@@internal@tbb@@QEAA?AW4do_once_state@23@W4423@0@Z 0000000180000000     governor.obj
 0002:fffac000       $unwind$??$punned_cast@PEAVcpu_ctl_env@internal@tbb@@$$CBUcpu_ctl_env_space@23@@internal@tbb@@YAPEAVcpu_ctl_env@01@PEBUcpu_ctl_env_space@01@@Z 0000000180000000     arena.obj
 0004:fff74000       $pdata$??$punned_cast@PEAVcpu_ctl_env@internal@tbb@@$$CBUcpu_ctl_env_space@23@@internal@tbb@@YAPEAVcpu_ctl_env@01@PEBUcpu_ctl_env_space@01@@Z 0000000180000000     arena.obj
 0002:fffac000       $unwind$?compare_and_swap@?$atomic_impl@W4do_once_state@internal@tbb@@@internal@tbb@@QEAA?AW4do_once_state@23@W4423@0@Z 0000000180000000     governor.obj
 0004:fff74000       $pdata$?pause@atomic_backoff@internal@tbb@@QEAAXXZ 0000000180000000     governor.obj
 0002:fffac000       $unwind$?pause@atomic_backoff@internal@tbb@@QEAAXXZ 0000000180000000     governor.obj
 0004:fff74000       $pdata$??0atomic_backoff@internal@tbb@@QEAA@XZ 0000000180000000     governor.obj
 0002:fffac000       $unwind$??0atomic_backoff@internal@tbb@@QEAA@XZ 0000000180000000     governor.obj
 0002:fffac000       __guard_fids__             0000000180000000     MSVCRTD:std_type_info_static.obj
 0004:fff74000       $pdata$??0no_copy@internal@tbb@@QEAA@XZ 0000000180000000     governor.obj
 0002:fffac000       $unwind$??0no_copy@internal@tbb@@QEAA@XZ 0000000180000000     governor.obj
 0004:fff74000       $pdata$?__empty_global_delete@@YAXPEAX_K@Z 0000000180000000     governor.obj
 0002:fffac000       $unwind$?__empty_global_delete@@YAXPEAX_K@Z 0000000180000000     governor.obj
 0004:fff74000       $pdata$?__empty_global_delete@@YAXPEAX@Z 0000000180000000     governor.obj
 0002:fffac000       $unwind$?__empty_global_delete@@YAXPEAX@Z 0000000180000000     governor.obj
 0004:fff74000       $pdata$?store@?$machine_load_store_relaxed@_J$07@internal@tbb@@SAXAEC_J_J@Z 0000000180000000     task_group_context.obj
 0002:fffac000       $unwind$?store@?$machine_load_store_relaxed@_J$07@internal@tbb@@SAXAEC_J_J@Z 0000000180000000     task_group_context.obj
 0004:fff74000       $pdata$?load@?$machine_load_store_relaxed@_J$07@internal@tbb@@SA_JAED_J@Z 0000000180000000     task_group_context.obj
 0002:fffac000       $unwind$?load@?$machine_load_store_relaxed@_J$07@internal@tbb@@SA_JAED_J@Z 0000000180000000     task_group_context.obj
 0004:fff74000       $pdata$??$__TBB_load_relaxed@_J@internal@tbb@@YA_JAED_J@Z 0000000180000000     task_group_context.obj
 0002:fffac000       $unwind$??$__TBB_load_relaxed@_J@internal@tbb@@YA_JAED_J@Z 0000000180000000     task_group_context.obj
 0004:fff74000       $pdata$??0?$ptr_converter@PEB_K@?$atomic_impl@_K@internal@tbb@@QEAA@PEB_K@Z 0000000180000000     task_group_context.obj
 0002:fffac000       __guard_fids__CRT_RTC_INITW 0000000180000000     MSVCRTD:init.obj
 0002:fffac000       __guard_fids__CRT_RTC_INIT 0000000180000000     MSVCRTD:init.obj
 0002:fffac000       $unwind$??0?$ptr_converter@PEB_K@?$atomic_impl@_K@internal@tbb@@QEAA@PEB_K@Z 0000000180000000     task_group_context.obj
 0004:fff74000       $pdata$??$__TBB_store_relaxed@_J_J@internal@tbb@@YAXAEC_J_J@Z 0000000180000000     task_group_context.obj
 0002:fffac000       $unwind$??$__TBB_store_relaxed@_J_J@internal@tbb@@YAXAEC_J_J@Z 0000000180000000     task_group_context.obj
 0004:fff74000       $pdata$??0?$ptr_converter@PED_K@?$atomic_impl@_K@internal@tbb@@QEAA@PED_K@Z 0000000180000000     task_group_context.obj
 0002:fffac000       $unwind$??0?$ptr_converter@PED_K@?$atomic_impl@_K@internal@tbb@@QEAA@PED_K@Z 0000000180000000     task_group_context.obj
 0004:fff74000       $pdata$??0?$ptr_converter@PEA_K@?$atomic_impl@_K@internal@tbb@@QEAA@PEA_K@Z 0000000180000000     task_group_context.obj
 0002:fffac000       $unwind$??0?$ptr_converter@PEA_K@?$atomic_impl@_K@internal@tbb@@QEAA@PEA_K@Z 0000000180000000     task_group_context.obj
 0004:fff74000       $pdata$??0?$ptr_converter@PEDI@?$atomic_impl@I@internal@tbb@@QEAA@PEDI@Z 0000000180000000     task_group_context.obj
 0002:fffac000       $unwind$??0?$ptr_converter@PEDI@?$atomic_impl@I@internal@tbb@@QEAA@PEDI@Z 0000000180000000     task_group_context.obj
 0004:fff74000       $pdata$?load_with_acquire@?$machine_load_store@H$03@internal@tbb@@SAHAEDH@Z 0000000180000000     task_group_context.obj
 0002:fffac000       $unwind$?load_with_acquire@?$machine_load_store@H$03@internal@tbb@@SAHAEDH@Z 0000000180000000     task_group_context.obj
 0004:fff74000       $pdata$?store_with_release@?$machine_load_store@_J$07@internal@tbb@@SAXAEC_J_J@Z 0000000180000000     task_group_context.obj
 0002:fffac000       $unwind$?store_with_release@?$machine_load_store@_J$07@internal@tbb@@SAXAEC_J_J@Z 0000000180000000     task_group_context.obj
 0004:fff74000       $pdata$?load_with_acquire@?$machine_load_store@_J$07@internal@tbb@@SA_JAED_J@Z 0000000180000000     task_group_context.obj
 0002:fffac000       $unwind$?load_with_acquire@?$machine_load_store@_J$07@internal@tbb@@SA_JAED_J@Z 0000000180000000     task_group_context.obj
 0004:fff74000       $pdata$?fetch_and_add@?$atomic_traits@$07$0A@@internal@tbb@@SA_JPECX_J@Z 0000000180000000     task_group_context.obj
 0002:fffac000       $unwind$?fetch_and_add@?$atomic_traits@$07$0A@@internal@tbb@@SA_JPECX_J@Z 0000000180000000     task_group_context.obj
 0004:fff74000       $pdata$?compare_and_swap@?$atomic_traits@$07$0A@@internal@tbb@@SA_JPECX_J1@Z 0000000180000000     task_group_context.obj
 0002:fffac000       $unwind$?compare_and_swap@?$atomic_traits@$07$0A@@internal@tbb@@SA_JPECX_J1@Z 0000000180000000     task_group_context.obj
 0004:fff74000       $pdata$??$fetch_and_add@$0A@@?$atomic_impl_with_arithmetic@_K_KD@internal@tbb@@QEAA_K_K@Z 0000000180000000     task_group_context.obj
 0002:fffac000       $unwind$??$fetch_and_add@$0A@@?$atomic_impl_with_arithmetic@_K_KD@internal@tbb@@QEAA_K_K@Z 0000000180000000     task_group_context.obj
 0004:fff74000       $pdata$??$store@_J@?$atomic_load_store_traits@$01@internal@tbb@@SAXAEC_J_J@Z 0000000180000000     task_group_context.obj
 0002:fffac000       $unwind$??$store@_J@?$atomic_load_store_traits@$01@internal@tbb@@SAXAEC_J_J@Z 0000000180000000     task_group_context.obj
 0004:fff74000       $pdata$??$load@_J@?$atomic_load_store_traits@$02@internal@tbb@@SA_JAED_J@Z 0000000180000000     task_group_context.obj
 0002:fffac000       $unwind$??$load@_J@?$atomic_load_store_traits@$02@internal@tbb@@SA_JAED_J@Z 0000000180000000     task_group_context.obj
 0004:fff74000       $pdata$?store@?$machine_load_store_relaxed@W4kind_type@task_group_context@tbb@@$03@internal@tbb@@SAXAECW4kind_type@task_group_context@3@W4453@@Z 0000000180000000     task_group_context.obj
 0002:fffac000       $unwind$?store@?$machine_load_store_relaxed@W4kind_type@task_group_context@tbb@@$03@internal@tbb@@SAXAECW4kind_type@task_group_context@3@W4453@@Z 0000000180000000     task_group_context.obj
 0000:fff69000       .debug$S                   0000000180000000     msvcprtd:MSVCP140D.dll
 0000:fff69000       .debug$S                   0000000180000000     msvcprtd:MSVCP140D.dll
 0000:fff69000       .debug$S                   0000000180000000     msvcprtd:MSVCP140D.dll
 0000:fff69000       .debug$S                   0000000180000000     msvcprtd:MSVCP140D.dll
 0000:fff69000       .debug$S                   0000000180000000     msvcprtd:MSVCP140D.dll
 0000:fff69000       .debug$S                   0000000180000000     msvcprtd:MSVCP140D.dll
 0000:fff69000       .debug$S                   0000000180000000     msvcprtd:MSVCP140D.dll
 0000:fff69000       .debug$S                   0000000180000000     msvcprtd:MSVCP140D.dll
 0000:fff69000       .debug$S                   0000000180000000     msvcprtd:MSVCP140D.dll
 0004:fff74000       $pdata$?load@?$machine_load_store_relaxed@W4kind_type@task_group_context@tbb@@$03@internal@tbb@@SA?AW4kind_type@task_group_context@3@AEDW4453@@Z 0000000180000000     task_group_context.obj
 0000:fff69000       .debug$S                   0000000180000000     kernel32:KERNEL32.dll
 0000:fff69000       .debug$S                   0000000180000000     kernel32:KERNEL32.dll
 0000:fff69000       .debug$S                   0000000180000000     kernel32:KERNEL32.dll
 0000:fff69000       .debug$S                   0000000180000000     kernel32:KERNEL32.dll
 0000:fff69000       .debug$S                   0000000180000000     kernel32:KERNEL32.dll
 0000:fff69000       .debug$S                   0000000180000000     kernel32:KERNEL32.dll
 0000:fff69000       .debug$S                   0000000180000000     kernel32:KERNEL32.dll
 0000:fff69000       .debug$S                   0000000180000000     kernel32:KERNEL32.dll
 0000:fff69000       .debug$S                   0000000180000000     kernel32:KERNEL32.dll
 0000:fff69000       .debug$S                   0000000180000000     kernel32:KERNEL32.dll
 0000:fff69000       .debug$S                   0000000180000000     kernel32:KERNEL32.dll
 0000:fff69000       .debug$S                   0000000180000000     kernel32:KERNEL32.dll
 0000:fff69000       .debug$S                   0000000180000000     kernel32:KERNEL32.dll
 0000:fff69000       .debug$S                   0000000180000000     kernel32:KERNEL32.dll
 0000:fff69000       .debug$S                   0000000180000000     kernel32:KERNEL32.dll
 0000:fff69000       .debug$S                   0000000180000000     kernel32:KERNEL32.dll
 0000:fff69000       .debug$S                   0000000180000000     kernel32:KERNEL32.dll
 0000:fff69000       .debug$S                   0000000180000000     kernel32:KERNEL32.dll
 0000:fff69000       .debug$S                   0000000180000000     kernel32:KERNEL32.dll
 0000:fff69000       .debug$S                   0000000180000000     kernel32:KERNEL32.dll
 0000:fff69000       .debug$S                   0000000180000000     kernel32:KERNEL32.dll
 0000:fff69000       .debug$S                   0000000180000000     kernel32:KERNEL32.dll
 0000:fff69000       .debug$S                   0000000180000000     kernel32:KERNEL32.dll
 0000:fff69000       .debug$S                   0000000180000000     kernel32:KERNEL32.dll
 0000:fff69000       .debug$S                   0000000180000000     kernel32:KERNEL32.dll
 0000:fff69000       .debug$S                   0000000180000000     kernel32:KERNEL32.dll
 0000:fff69000       .debug$S                   0000000180000000     kernel32:KERNEL32.dll
 0000:fff69000       .debug$S                   0000000180000000     kernel32:KERNEL32.dll
 0000:fff69000       .debug$S                   0000000180000000     kernel32:KERNEL32.dll
 0000:fff69000       .debug$S                   0000000180000000     kernel32:KERNEL32.dll
 0000:fff69000       .debug$S                   0000000180000000     kernel32:KERNEL32.dll
 0000:fff69000       .debug$S                   0000000180000000     kernel32:KERNEL32.dll
 0000:fff69000       .debug$S                   0000000180000000     kernel32:KERNEL32.dll
 0000:fff69000       .debug$S                   0000000180000000     kernel32:KERNEL32.dll
 0000:fff69000       .debug$S                   0000000180000000     kernel32:KERNEL32.dll
 0000:fff69000       .debug$S                   0000000180000000     kernel32:KERNEL32.dll
 0000:fff69000       .debug$S                   0000000180000000     kernel32:KERNEL32.dll
 0000:fff69000       .debug$S                   0000000180000000     kernel32:KERNEL32.dll
 0000:fff69000       .debug$S                   0000000180000000     kernel32:KERNEL32.dll
 0002:fffac000       $unwind$?load@?$machine_load_store_relaxed@W4kind_type@task_group_context@tbb@@$03@internal@tbb@@SA?AW4kind_type@task_group_context@3@AEDW4453@@Z 0000000180000000     task_group_context.obj
 0004:fff74000       $pdata$??$store@_J@?$atomic_load_store_traits@$02@internal@tbb@@SAXAEC_J_J@Z 0000000180000000     task_group_context.obj
 0002:fffac000       $unwind$??$store@_J@?$atomic_load_store_traits@$02@internal@tbb@@SAXAEC_J_J@Z 0000000180000000     task_group_context.obj
 0004:fff74000       $pdata$??$compare_and_swap@$0A@@?$atomic_impl@_K@internal@tbb@@QEAA_K_K0@Z 0000000180000000     task_group_context.obj
 0002:fffac000       $unwind$??$compare_and_swap@$0A@@?$atomic_impl@_K@internal@tbb@@QEAA_K_K0@Z 0000000180000000     task_group_context.obj
 0004:fff74000       $pdata$??0?$converter@_K@?$atomic_impl@_K@internal@tbb@@QEAA@_K@Z 0000000180000000     task_group_context.obj
 0002:fffac000       $unwind$??0?$converter@_K@?$atomic_impl@_K@internal@tbb@@QEAA@_K@Z 0000000180000000     task_group_context.obj
 0004:fff74000       $pdata$??0?$converter@_K@?$atomic_impl@_K@internal@tbb@@QEAA@XZ 0000000180000000     task_group_context.obj
 0002:fffac000       $unwind$??0?$converter@_K@?$atomic_impl@_K@internal@tbb@@QEAA@XZ 0000000180000000     task_group_context.obj
 0004:fff74000       $pdata$??0?$converter@I@?$atomic_impl@I@internal@tbb@@QEAA@XZ 0000000180000000     task_group_context.obj
 0002:fffac000       $unwind$??0?$converter@I@?$atomic_impl@I@internal@tbb@@QEAA@XZ 0000000180000000     task_group_context.obj
 0004:fff74000       $pdata$??$__TBB_load_with_acquire@H@internal@tbb@@YAHAEDH@Z 0000000180000000     task_group_context.obj
 0002:fffac000       $unwind$??$__TBB_load_with_acquire@H@internal@tbb@@YAHAEDH@Z 0000000180000000     task_group_context.obj
 0004:fff74000       $pdata$??$__TBB_load_with_acquire@_J@internal@tbb@@YA_JAED_J@Z 0000000180000000     task_group_context.obj
 0002:fffac000       $unwind$??$__TBB_load_with_acquire@_J@internal@tbb@@YA_JAED_J@Z 0000000180000000     task_group_context.obj
 0004:fff74000       $pdata$??$__TBB_store_with_release@_J_J@internal@tbb@@YAXAEC_J_J@Z 0000000180000000     task_group_context.obj
 0002:fffac000       $unwind$??$__TBB_store_with_release@_J_J@internal@tbb@@YAXAEC_J_J@Z 0000000180000000     task_group_context.obj
 0004:fff74000       $pdata$?compare_and_swap@?$atomic_traits@$07$0A@@internal@tbb@@SA_JPECX_J1@Z 0000000180000000     spin_rw_mutex_v2.obj
 0002:fffac000       $unwind$?compare_and_swap@?$atomic_traits@$07$0A@@internal@tbb@@SA_JPECX_J1@Z 0000000180000000     spin_rw_mutex_v2.obj
 0004:fff74000       $pdata$??$__TBB_store_relaxed@W4kind_type@task_group_context@tbb@@W4123@@internal@tbb@@YAXAECW4kind_type@task_group_context@1@W4231@@Z 0000000180000000     task_group_context.obj
 0002:fffac000       $unwind$??$__TBB_store_relaxed@W4kind_type@task_group_context@tbb@@W4123@@internal@tbb@@YAXAECW4kind_type@task_group_context@1@W4231@@Z 0000000180000000     task_group_context.obj
 0004:fff74000       $pdata$??$__TBB_load_with_acquire@_K@internal@tbb@@YA_KAED_K@Z 0000000180000000     task_group_context.obj
 0002:fffac000       $unwind$??$__TBB_load_with_acquire@_K@internal@tbb@@YA_KAED_K@Z 0000000180000000     task_group_context.obj
 0004:fff74000       $pdata$??$store@$01@?$atomic_impl@_K@internal@tbb@@QEAAX_K@Z 0000000180000000     task_group_context.obj
 0002:fffac000       $unwind$??$store@$01@?$atomic_impl@_K@internal@tbb@@QEAAX_K@Z 0000000180000000     task_group_context.obj
 0004:fff74000       $pdata$??$load@$02@?$atomic_impl@_K@internal@tbb@@QEBA_KXZ 0000000180000000     task_group_context.obj
 0002:fffac000       $unwind$??$load@$02@?$atomic_impl@_K@internal@tbb@@QEBA_KXZ 0000000180000000     task_group_context.obj
 0004:fff74000       $pdata$?reset@atomic_backoff@internal@tbb@@QEAAXXZ 0000000180000000     spin_rw_mutex_v2.obj
 0002:fffac000       $unwind$?reset@atomic_backoff@internal@tbb@@QEAAXXZ 0000000180000000     spin_rw_mutex_v2.obj
 0004:fff74000       $pdata$?pause@atomic_backoff@internal@tbb@@QEAAXXZ 0000000180000000     spin_rw_mutex_v2.obj
 0002:fffac000       $unwind$?pause@atomic_backoff@internal@tbb@@QEAAXXZ 0000000180000000     spin_rw_mutex_v2.obj
 0004:fff74000       $pdata$??0atomic_backoff@internal@tbb@@QEAA@XZ 0000000180000000     spin_rw_mutex_v2.obj
 0002:fffac000       $unwind$??0atomic_backoff@internal@tbb@@QEAA@XZ 0000000180000000     spin_rw_mutex_v2.obj
 0004:fff74000       $pdata$??$store@$02@?$atomic_impl@_K@internal@tbb@@QEAAX_K@Z 0000000180000000     task_group_context.obj
 0002:fffac000       $unwind$??$store@$02@?$atomic_impl@_K@internal@tbb@@QEAAX_K@Z 0000000180000000     task_group_context.obj
 0004:fff74000       $pdata$??$__TBB_load_relaxed@W4kind_type@task_group_context@tbb@@@internal@tbb@@YA?AW4kind_type@task_group_context@1@AEDW4231@@Z 0000000180000000     task_group_context.obj
 0002:fffac000       $unwind$??$__TBB_load_relaxed@W4kind_type@task_group_context@tbb@@@internal@tbb@@YA?AW4kind_type@task_group_context@1@AEDW4231@@Z 0000000180000000     task_group_context.obj
 0004:fff74000       $pdata$?get@?$basic_tls@_K@internal@tbb@@QEAA_KXZ 0000000180000000     task_group_context.obj
 0002:fffac000       $unwind$?get@?$basic_tls@_K@internal@tbb@@QEAA_KXZ 0000000180000000     task_group_context.obj
 0004:fff74000       $pdata$?local_scheduler_weak@governor@internal@tbb@@SAPEAVgeneric_scheduler@23@XZ 0000000180000000     task_group_context.obj
 0002:fffac000       $unwind$?local_scheduler_weak@governor@internal@tbb@@SAPEAVgeneric_scheduler@23@XZ 0000000180000000     task_group_context.obj
 0004:fff74000       $pdata$?tls_scheduler_of@governor@internal@tbb@@SAPEAVgeneric_scheduler@23@_K@Z 0000000180000000     task_group_context.obj
 0002:fffac000       $unwind$?tls_scheduler_of@governor@internal@tbb@@SAPEAVgeneric_scheduler@23@_K@Z 0000000180000000     task_group_context.obj
 0004:fff74000       $pdata$??$suppress_unused_warning@E@internal@tbb@@YAXAEBE@Z 0000000180000000     task_group_context.obj
 0002:fffac000       $unwind$??$suppress_unused_warning@E@internal@tbb@@YAXAEBE@Z 0000000180000000     task_group_context.obj
 0002:fffac000       $unwind$??$punned_cast@PEAVbinary_semaphore@internal@tbb@@$$CBV?$aligned_space@Vbinary_semaphore@internal@tbb@@$00@3@@internal@tbb@@YAPEAVbinary_semaphore@01@PEBV?$aligned_space@Vbinary_semaphore@internal@tbb@@$00@1@@Z 0000000180000000     arena.obj
 0004:fff74000       $pdata$??$punned_cast@PEAVbinary_semaphore@internal@tbb@@$$CBV?$aligned_space@Vbinary_semaphore@internal@tbb@@$00@3@@internal@tbb@@YAPEAVbinary_semaphore@01@PEBV?$aligned_space@Vbinary_semaphore@internal@tbb@@$00@1@@Z 0000000180000000     arena.obj
 0002:fffac000       $ip2state$??1scoped_lock@spin_mutex@tbb@@QEAA@XZ 0000000180000000     task_group_context.obj
 0002:fffac000       $unwind$??$__TBB_load_with_acquire@C@internal@tbb@@YACAEDC@Z 0000000180000000     arena.obj
 0004:fff74000       $pdata$??$__TBB_load_with_acquire@C@internal@tbb@@YACAEDC@Z 0000000180000000     arena.obj
 0002:fffac000       $unwind$??0?$converter@_N@?$atomic_impl@_N@internal@tbb@@QEAA@XZ 0000000180000000     arena.obj
 0004:fff74000       $pdata$??0?$converter@_N@?$atomic_impl@_N@internal@tbb@@QEAA@XZ 0000000180000000     arena.obj
 0002:fffac000       $unwind$??0?$converter@_N@?$atomic_impl@_N@internal@tbb@@QEAA@_N@Z 0000000180000000     arena.obj
 0004:fff74000       $pdata$??0?$converter@_N@?$atomic_impl@_N@internal@tbb@@QEAA@_N@Z 0000000180000000     arena.obj
 0002:fffac000       $cppxdata$??1scoped_lock@spin_mutex@tbb@@QEAA@XZ 0000000180000000     task_group_context.obj
 0004:fff74000       $pdata$??1scoped_lock@spin_mutex@tbb@@QEAA@XZ 0000000180000000     task_group_context.obj
 0002:fffac000       $unwind$??1scoped_lock@spin_mutex@tbb@@QEAA@XZ 0000000180000000     task_group_context.obj
 0004:fff74000       $pdata$??0scoped_lock@spin_mutex@tbb@@QEAA@AEAV12@@Z 0000000180000000     task_group_context.obj
 0002:fffac000       $unwind$??0scoped_lock@spin_mutex@tbb@@QEAA@AEAV12@@Z 0000000180000000     task_group_context.obj
 0002:fffac000       $unwind$??$punned_cast@PEAVscoped_lock@spin_mutex@tbb@@$$CBV?$aligned_space@Vscoped_lock@spin_mutex@tbb@@$00@3@@internal@tbb@@YAPEAVscoped_lock@spin_mutex@1@PEBV?$aligned_space@Vscoped_lock@spin_mutex@tbb@@$00@1@@Z 0000000180000000     arena.obj
 0004:fff74000       $pdata$??$punned_cast@PEAVscoped_lock@spin_mutex@tbb@@$$CBV?$aligned_space@Vscoped_lock@spin_mutex@tbb@@$00@3@@internal@tbb@@YAPEAVscoped_lock@spin_mutex@1@PEBV?$aligned_space@Vscoped_lock@spin_mutex@tbb@@$00@1@@Z 0000000180000000     arena.obj
 0002:fffac000       $unwind$??$__TBB_store_with_release@_J_J@internal@tbb@@YAXAEC_J_J@Z 0000000180000000     arena.obj
 0004:fff74000       $pdata$??$__TBB_store_with_release@_J_J@internal@tbb@@YAXAEC_J_J@Z 0000000180000000     arena.obj
 0002:fffac000       $unwind$??$__TBB_store_with_release@CC@internal@tbb@@YAXAECCC@Z 0000000180000000     arena.obj
 0004:fff74000       $pdata$??$__TBB_store_with_release@CC@internal@tbb@@YAXAECCC@Z 0000000180000000     arena.obj
 0002:fffac000       $unwind$??$__TBB_store_with_release@HH@internal@tbb@@YAXAECHH@Z 0000000180000000     arena.obj
 0004:fff74000       $pdata$??$__TBB_store_with_release@HH@internal@tbb@@YAXAECHH@Z 0000000180000000     arena.obj
 0002:fffac000       $unwind$??$__TBB_load_with_acquire@H@internal@tbb@@YAHAEDH@Z 0000000180000000     arena.obj
 0004:fff74000       $pdata$??0no_copy@internal@tbb@@QEAA@XZ 0000000180000000     spin_rw_mutex_v2.obj
 0002:fffac000       $unwind$??0no_copy@internal@tbb@@QEAA@XZ 0000000180000000     spin_rw_mutex_v2.obj
 0004:fff74000       $pdata$??$__TBB_load_with_acquire@H@internal@tbb@@YAHAEDH@Z 0000000180000000     arena.obj
 0002:fffac000       $unwind$??0?$converter@I@?$atomic_impl@I@internal@tbb@@QEAA@XZ 0000000180000000     arena.obj
 0004:fff74000       $pdata$??0?$converter@I@?$atomic_impl@I@internal@tbb@@QEAA@XZ 0000000180000000     arena.obj
 0002:fffac000       $unwind$??0?$converter@I@?$atomic_impl@I@internal@tbb@@QEAA@I@Z 0000000180000000     arena.obj
 0004:fff74000       $pdata$??0?$converter@I@?$atomic_impl@I@internal@tbb@@QEAA@I@Z 0000000180000000     arena.obj
 0002:fffac000       $unwind$??$to_bits@I@?$atomic_impl@I@internal@tbb@@SAHI@Z 0000000180000000     arena.obj
 0004:fff74000       $pdata$??$to_bits@I@?$atomic_impl@I@internal@tbb@@SAHI@Z 0000000180000000     arena.obj
 0002:fffac000       $unwind$??$to_bits_ref@$$CDI@?$atomic_impl@I@internal@tbb@@SAAEAHAEDI@Z 0000000180000000     arena.obj
 0004:fff74000       $pdata$??$to_bits_ref@$$CDI@?$atomic_impl@I@internal@tbb@@SAAEAHAEDI@Z 0000000180000000     arena.obj
 0002:fffac000       ??$to_value@I@?$atomic_impl@I@internal@tbb@@SAIH@Z$rtcName$0 0000000180000000     arena.obj
 0002:fffac000       $unwind$??$to_value@I@?$atomic_impl@I@internal@tbb@@SAIH@Z 0000000180000000     arena.obj
 0004:fff74000       $pdata$??$to_value@I@?$atomic_impl@I@internal@tbb@@SAIH@Z 0000000180000000     arena.obj
 0002:fffac000       $unwind$??0?$converter@_K@?$atomic_impl@_K@internal@tbb@@QEAA@XZ 0000000180000000     arena.obj
 0004:fff74000       $pdata$??0?$converter@_K@?$atomic_impl@_K@internal@tbb@@QEAA@XZ 0000000180000000     arena.obj
 0002:fffac000       $unwind$??0?$converter@_K@?$atomic_impl@_K@internal@tbb@@QEAA@_K@Z 0000000180000000     arena.obj
 0004:fff74000       $pdata$??0?$converter@_K@?$atomic_impl@_K@internal@tbb@@QEAA@_K@Z 0000000180000000     arena.obj
 0002:fffac000       $unwind$??$to_bits_ref@_K@?$atomic_impl@_K@internal@tbb@@SAAEA_JAEA_K@Z 0000000180000000     arena.obj
 0004:fff74000       $pdata$??$to_bits_ref@_K@?$atomic_impl@_K@internal@tbb@@SAAEA_JAEA_K@Z 0000000180000000     arena.obj
 0002:fffac000       $unwind$??$to_bits@_K@?$atomic_impl@_K@internal@tbb@@SA_J_K@Z 0000000180000000     arena.obj
 0004:fff74000       $pdata$??$to_bits@_K@?$atomic_impl@_K@internal@tbb@@SA_J_K@Z 0000000180000000     arena.obj
 0002:fffac000       $unwind$??$to_bits_ref@$$CD_K@?$atomic_impl@_K@internal@tbb@@SAAEA_JAED_K@Z 0000000180000000     arena.obj
 0004:fff74000       $pdata$??$to_bits_ref@$$CD_K@?$atomic_impl@_K@internal@tbb@@SAAEA_JAED_K@Z 0000000180000000     arena.obj
 0002:fffac000       ??$to_value@_K@?$atomic_impl@_K@internal@tbb@@SA_K_J@Z$rtcName$0 0000000180000000     arena.obj
 0002:fffac000       $unwind$??$to_value@_K@?$atomic_impl@_K@internal@tbb@@SA_K_J@Z 0000000180000000     arena.obj
 0004:fff74000       $pdata$??$to_value@_K@?$atomic_impl@_K@internal@tbb@@SA_K_J@Z 0000000180000000     arena.obj
 0002:fffac000       $unwind$??$compare_and_swap@$0A@@?$atomic_impl@_K@internal@tbb@@QEAA_K_K0@Z 0000000180000000     arena.obj
 0004:fff74000       $pdata$??$compare_and_swap@$0A@@?$atomic_impl@_K@internal@tbb@@QEAA_K_K0@Z 0000000180000000     arena.obj
 0002:fffac000       $unwind$??0?$converter@_J@?$atomic_impl@_J@internal@tbb@@QEAA@XZ 0000000180000000     arena.obj
 0004:fff74000       $pdata$??0?$converter@_J@?$atomic_impl@_J@internal@tbb@@QEAA@XZ 0000000180000000     arena.obj
 0004:fff74000       $pdata$?prefix@task@tbb@@QEBAAEAVtask_prefix@internal@2@PEAUversion_tag_v3@42@@Z 0000000180000000     task_group_context.obj
 0002:fffac000       $unwind$?prefix@task@tbb@@QEBAAEAVtask_prefix@internal@2@PEAUversion_tag_v3@42@@Z 0000000180000000     task_group_context.obj
 0002:fffac000       $unwind$??$to_bits_ref@$$CD_J@?$atomic_impl@_J@internal@tbb@@SAAEA_JAED_J@Z 0000000180000000     arena.obj
 0004:fff74000       $pdata$??$to_bits_ref@$$CD_J@?$atomic_impl@_J@internal@tbb@@SAAEA_JAED_J@Z 0000000180000000     arena.obj
 0002:fffac000       ??$to_value@_J@?$atomic_impl@_J@internal@tbb@@SA_J_J@Z$rtcName$0 0000000180000000     arena.obj
 0002:fffac000       $unwind$??$to_value@_J@?$atomic_impl@_J@internal@tbb@@SA_J_J@Z 0000000180000000     arena.obj
 0004:fff74000       $pdata$??$to_value@_J@?$atomic_impl@_J@internal@tbb@@SA_J_J@Z 0000000180000000     arena.obj
 0004:fff74000       $pdata$?state@task@tbb@@QEBA?AW4state_type@12@XZ 0000000180000000     task_group_context.obj
 0002:fffac000       $unwind$?state@task@tbb@@QEBA?AW4state_type@12@XZ 0000000180000000     task_group_context.obj
 0002:fffac000       $unwind$??$fetch_and_add@$0A@@?$atomic_impl_with_arithmetic@IID@internal@tbb@@QEAAII@Z 0000000180000000     arena.obj
 0004:fff74000       $pdata$??$fetch_and_add@$0A@@?$atomic_impl_with_arithmetic@IID@internal@tbb@@QEAAII@Z 0000000180000000     arena.obj
 0002:fffac000       $unwind$??$fetch_and_add@$0A@@?$atomic_impl_with_arithmetic@_K_KD@internal@tbb@@QEAA_K_K@Z 0000000180000000     arena.obj
 0004:fff74000       $pdata$??$fetch_and_add@$0A@@?$atomic_impl_with_arithmetic@_K_KD@internal@tbb@@QEAA_K_K@Z 0000000180000000     arena.obj
 0004:fff74000       $pdata$??B?$atomic_impl@I@internal@tbb@@QEDAIXZ 0000000180000000     task_group_context.obj
 0002:fffac000       $unwind$??B?$atomic_impl@I@internal@tbb@@QEDAIXZ 0000000180000000     task_group_context.obj
 0004:fff74000       $pdata$??B?$atomic_impl@_K@internal@tbb@@QEDA_KXZ 0000000180000000     task_group_context.obj
 0002:fffac000       $unwind$??B?$atomic_impl@_K@internal@tbb@@QEDA_KXZ 0000000180000000     task_group_context.obj
 0004:fff74000       $pdata$?compare_and_swap@?$atomic_impl@_K@internal@tbb@@QEAA_K_K0@Z 0000000180000000     task_group_context.obj
 0002:fffac000       $unwind$?compare_and_swap@?$atomic_impl@_K@internal@tbb@@QEAA_K_K0@Z 0000000180000000     task_group_context.obj
 0004:fff74000       $pdata$?store_with_release@?$machine_load_store@_K$07@internal@tbb@@SAXAEC_K_K@Z 0000000180000000     task_group_context.obj
 0002:fffac000       $unwind$?store_with_release@?$machine_load_store@_K$07@internal@tbb@@SAXAEC_K_K@Z 0000000180000000     task_group_context.obj
 0004:fff74000       $pdata$?load_with_acquire@?$machine_load_store@_K$07@internal@tbb@@SA_KAED_K@Z 0000000180000000     task_group_context.obj
 0004:fff74000       $pdata$?fetch_and_add@?$atomic_traits@$07$0A@@internal@tbb@@SA_JPECX_J@Z 0000000180000000     concurrent_queue_v2.obj
 0002:fffac000       $unwind$?fetch_and_add@?$atomic_traits@$07$0A@@internal@tbb@@SA_JPECX_J@Z 0000000180000000     concurrent_queue_v2.obj
 0004:fff74000       $pdata$?compare_and_swap@?$atomic_traits@$07$0A@@internal@tbb@@SA_JPECX_J1@Z 0000000180000000     concurrent_queue_v2.obj
 0002:fffac000       $unwind$?compare_and_swap@?$atomic_traits@$07$0A@@internal@tbb@@SA_JPECX_J1@Z 0000000180000000     concurrent_queue_v2.obj
 0004:fff74000       $pdata$??0?$ptr_converter@PED_K@?$atomic_impl@_K@internal@tbb@@QEAA@PED_K@Z 0000000180000000     concurrent_queue_v2.obj
 0002:fffac000       $unwind$??0?$ptr_converter@PED_K@?$atomic_impl@_K@internal@tbb@@QEAA@PED_K@Z 0000000180000000     concurrent_queue_v2.obj
 0004:fff74000       $pdata$??0?$ptr_converter@PEA_K@?$atomic_impl@_K@internal@tbb@@QEAA@PEA_K@Z 0000000180000000     concurrent_queue_v2.obj
 0002:fffac000       $unwind$??0?$ptr_converter@PEA_K@?$atomic_impl@_K@internal@tbb@@QEAA@PEA_K@Z 0000000180000000     concurrent_queue_v2.obj
 0004:fff74000       $pdata$?store_with_release@?$machine_load_store@_J$07@internal@tbb@@SAXAEC_J_J@Z 0000000180000000     concurrent_queue_v2.obj
 0002:fffac000       $unwind$?store_with_release@?$machine_load_store@_J$07@internal@tbb@@SAXAEC_J_J@Z 0000000180000000     concurrent_queue_v2.obj
 0004:fff74000       $pdata$?load_with_acquire@?$machine_load_store@_J$07@internal@tbb@@SA_JAED_J@Z 0000000180000000     concurrent_queue_v2.obj
