 tbbmalloc_debug

 Timestamp is 5c996cc1 (Mon Mar 25 20:05:21 2019)

 Preferred load address is 0000000180000000

 Start         Length     Name                   Class
 0001:00000000 00000080H .text$di                CODE
 0001:00000080 000198a0H .text$mn                CODE
 0001:00019920 00000020H .text$mn$00             CODE
 0001:00019940 0000033dH .text$x                 CODE
 0002:00000000 00000210H .idata$5                DATA
 0002:00000210 00000010H .00cfg                  DATA
 0002:00000220 00000008H .CRT$XCA                DATA
 0002:00000228 00000020H .CRT$XCU                DATA
 0002:00000248 00000008H .CRT$XCZ                DATA
 0002:00000250 00000008H .CRT$XIA                DATA
 0002:00000258 00000008H .CRT$XIZ                DATA
 0002:00000260 00000008H .CRT$XPA                DATA
 0002:00000268 00000008H .CRT$XPZ                DATA
 0002:00000270 00000008H .CRT$XTA                DATA
 0002:00000278 00000008H .CRT$XTZ                DATA
 0002:00000280 00000000H .gfids$y                DATA
 0002:00000280 00006ed0H .rdata                  DATA
 0002:00007150 000002f0H .rdata$zzzdbg           DATA
 0002:00007440 00000008H .rtc$IAA                DATA
 0002:00007448 00000008H .rtc$IZZ                DATA
 0002:00007450 00000008H .rtc$TAA                DATA
 0002:00007458 00000008H .rtc$TZZ                DATA
 0002:00007460 00001aa0H .xdata                  DATA
 0002:00008f00 00000500H .edata                  DATA
 0002:00009400 0000003cH .idata$2                DATA
 0002:0000943c 00000014H .idata$3                DATA
 0002:00009450 00000210H .idata$4                DATA
 0002:00009660 000004beH .idata$6                DATA
 0003:00000000 000020f0H .data                   DATA
 0003:000020f0 00022db0H .bss                    DATA
 0004:00000000 00002058H .pdata                  DATA
 0005:00000000 000000a0H .rsrc$01                DATA
 0005:000000a0 00000548H .rsrc$02                DATA

  Address         Publics by Value              Rva+Base               Lib:Object

 0000:00000000       __guard_longjmp_count      0000000000000000     <absolute>
 0000:00000000       __enclave_config           0000000000000000     <absolute>
 0000:00000000       __guard_longjmp_table      0000000000000000     <absolute>
 0000:00000000       __dynamic_value_reloc_table 0000000000000000     <absolute>
 0000:00000000       ___safe_se_handler_table   0000000000000000     <absolute>
 0000:00000000       __guard_iat_count          0000000000000000     <absolute>
 0000:00000000       __volatile_metadata        0000000000000000     <absolute>
 0000:00000000       __hybrid_code_map          0000000000000000     <absolute>
 0000:00000000       __guard_fids_count         0000000000000000     <absolute>
 0000:00000000       __hybrid_code_map_count    0000000000000000     <absolute>
 0000:00000000       __guard_iat_table          0000000000000000     <absolute>
 0000:00000000       ___safe_se_handler_count   0000000000000000     <absolute>
 0000:00000000       __hybrid_auxiliary_iat     0000000000000000     <absolute>
 0000:00000000       __guard_fids_table         0000000000000000     <absolute>
 0000:00000100       __guard_flags              0000000000000100     <absolute>
 0000:00000000       __ImageBase                0000000180000000     <linker-defined>
 0001:00000080       __TBB_machine_fetchadd1    0000000180001080     atomic_support.obj
 0001:00000088       __TBB_machine_fetchstore1  0000000180001088     atomic_support.obj
 0001:00000090       __TBB_machine_cmpswp1      0000000180001090     atomic_support.obj
 0001:00000098       __TBB_machine_fetchadd2    0000000180001098     atomic_support.obj
 0001:000000a8       __TBB_machine_fetchstore2  00000001800010a8     atomic_support.obj
 0001:000000b0       __TBB_machine_cmpswp2      00000001800010b0     atomic_support.obj
 0001:000000c0       __TBB_machine_pause        00000001800010c0     atomic_support.obj
 0001:00000240       ?getAll@CoalRequestQ@internal@rml@@QEAAPEAVFreeBlock@23@XZ 0000000180001240 f   backend.obj
 0001:000002a0       ?putBlock@CoalRequestQ@internal@rml@@QEAAXPEAVFreeBlock@23@@Z 00000001800012a0 f   backend.obj
 0001:00000340       ?add@MemRegionList@internal@rml@@QEAAXPEAUMemRegion@23@@Z 0000000180001340 f   backend.obj
 0001:000003d0       ?remove@MemRegionList@internal@rml@@QEAAXPEAUMemRegion@23@@Z 00000001800013d0 f   backend.obj
 0001:00000470       ?removeBlock@Bin@Backend@internal@rml@@QEAAXPEAVFreeBlock@34@@Z 0000000180001470 f   backend.obj
 0001:00000560       ?getFromBin@IndexedBins@Backend@internal@rml@@AEAAPEAVFreeBlock@34@HPEAVBackendSync@34@_K_N22PEAH@Z 0000000180001560 f   backend.obj
 0001:00000960       ?findBlock@IndexedBins@Backend@internal@rml@@QEAAPEAVFreeBlock@34@HPEAVBackendSync@34@_K_N2PEAH@Z 0000000180001960 f   backend.obj
 0001:00000a10       ?tryReleaseRegions@IndexedBins@Backend@internal@rml@@QEAA_NHPEAV234@@Z 0000000180001a10 f   backend.obj
 0001:00000b30       ?lockRemoveBlock@IndexedBins@Backend@internal@rml@@QEAAXHPEAVFreeBlock@34@@Z 0000000180001b30 f   backend.obj
 0001:00000be0       ?addBlock@IndexedBins@Backend@internal@rml@@QEAAXHPEAVFreeBlock@34@_K_N@Z 0000000180001be0 f   backend.obj
 0001:00000d50       ?tryAddBlock@IndexedBins@Backend@internal@rml@@QEAA_NHPEAVFreeBlock@34@_N@Z 0000000180001d50 f   backend.obj
 0001:00000f40       ?verify@IndexedBins@Backend@internal@rml@@QEAAXXZ 0000000180001f40 f   backend.obj
 0001:00001090       ?reset@IndexedBins@Backend@internal@rml@@QEAAXXZ 0000000180002090 f   backend.obj
 0001:000010f0       ?registerAlloc@UsedAddressRange@Backend@internal@rml@@QEAAX_K0@Z 00000001800020f0 f   backend.obj
 0001:00001210       ?registerFree@UsedAddressRange@Backend@internal@rml@@QEAAX_K0@Z 0000000180002210 f   backend.obj
 0001:00001310       ?addNewRegion@Backend@internal@rml@@AEAAPEAVFreeBlock@23@_KW4MemRegionType@23@_N@Z 0000000180002310 f   backend.obj
 0001:000014f0       ?findBlockInRegion@Backend@internal@rml@@AEAAPEAVFreeBlock@23@PEAUMemRegion@23@_K@Z 00000001800024f0 f   backend.obj
 0001:00001610       ?startUseBlock@Backend@internal@rml@@AEAAXPEAUMemRegion@23@PEAVFreeBlock@23@_N@Z 0000000180002610 f   backend.obj
 0001:000017e0       ?releaseRegion@Backend@internal@rml@@AEAAXPEAUMemRegion@23@@Z 00000001800027e0 f   backend.obj
 0001:00001830       ?releaseMemInCaches@Backend@internal@rml@@AEAAPEAVFreeBlock@23@_JPEAHH@Z 0000000180002830 f   backend.obj
 0001:000018b0       ?requestBootstrapMem@Backend@internal@rml@@AEAAXXZ 00000001800028b0 f   backend.obj
 0001:00001980       ?askMemFromOS@Backend@internal@rml@@AEAAPEAVFreeBlock@23@_K_JPEAHHPEA_N@Z 0000000180002980 f   backend.obj
 0001:00001bb0       ?genericGetBlock@Backend@internal@rml@@AEAAPEAVFreeBlock@23@H_K_N@Z 0000000180002bb0 f   backend.obj
 0001:00002040       ?genericPutBlock@Backend@internal@rml@@AEAAXPEAVFreeBlock@23@_K@Z 0000000180003040 f   backend.obj
 0001:000020a0       ?splitUnalignedBlock@Backend@internal@rml@@AEAAPEAVFreeBlock@23@PEAV423@H_K_N@Z 00000001800030a0 f   backend.obj
 0001:00002260       ?splitAlignedBlock@Backend@internal@rml@@AEAAPEAVFreeBlock@23@PEAV423@H_K_N@Z 0000000180003260 f   backend.obj
 0001:000023f0       ?doCoalesc@Backend@internal@rml@@AEAAPEAVFreeBlock@23@PEAV423@PEAPEAUMemRegion@23@@Z 00000001800033f0 f   backend.obj
 0001:00002810       ?coalescAndPutList@Backend@internal@rml@@AEAA_NPEAVFreeBlock@23@_N1@Z 0000000180003810 f   backend.obj
 0001:00002b20       ?coalescAndPut@Backend@internal@rml@@AEAAXPEAVFreeBlock@23@_K@Z 0000000180003b20 f   backend.obj
 0001:00002b70       ?removeBlockFromBin@Backend@internal@rml@@AEAAXPEAVFreeBlock@23@@Z 0000000180003b70 f   backend.obj
 0001:00002bf0       ?allocRawMem@Backend@internal@rml@@AEAAPEAXAEA_K@Z 0000000180003bf0 f   backend.obj
 0001:00002ec0       ?freeRawMem@Backend@internal@rml@@AEAA_NPEAX_K@Z 0000000180003ec0 f   backend.obj
 0001:00003040       ?putLargeBlock@Backend@internal@rml@@AEAAXPEAULargeMemoryBlock@23@@Z 0000000180004040 f   backend.obj
 0001:000030a0       ?releaseCachesToLimit@Backend@internal@rml@@AEAAXXZ 00000001800040a0 f   backend.obj
 0001:00003200       ?scanCoalescQ@Backend@internal@rml@@QEAA_N_N@Z 0000000180004200 f   backend.obj
 0001:00003270       ?verify@Backend@internal@rml@@QEAAXXZ 0000000180004270 f   backend.obj
 0001:000032c0       ?init@Backend@internal@rml@@QEAAXPEAUExtMemoryPool@23@@Z 00000001800042c0 f   backend.obj
 0001:00003330       ?reset@Backend@internal@rml@@QEAAXXZ 0000000180004330 f   backend.obj
 0001:00003440       ?destroy@Backend@internal@rml@@QEAA_NXZ 0000000180004440 f   backend.obj
 0001:00003510       ?clean@Backend@internal@rml@@QEAA_NXZ 0000000180004510 f   backend.obj
 0001:00003620       ?getBackRefSpace@Backend@internal@rml@@QEAAPEAX_KPEA_N@Z 0000000180004620 f   backend.obj
 0001:000036a0       ?putBackRefSpace@Backend@internal@rml@@QEAAXPEAX_K_N@Z 00000001800046a0 f   backend.obj
 0001:000036e0       ?getLargeBlock@Backend@internal@rml@@QEAAPEAULargeMemoryBlock@23@_K@Z 00000001800046e0 f   backend.obj
 0001:00003760       ?returnLargeObject@Backend@internal@rml@@QEAAXPEAULargeMemoryBlock@23@@Z 0000000180004760 f   backend.obj
 0001:000037a0       ?getMaxBinnedSize@Backend@internal@rml@@QEBA_KXZ 00000001800047a0 f   backend.obj
 0001:00003820       ?add@AllLargeBlocksList@internal@rml@@QEAAXPEAULargeMemoryBlock@23@@Z 0000000180004820 f   backend.obj
 0001:000038a0       ?remove@AllLargeBlocksList@internal@rml@@QEAAXPEAULargeMemoryBlock@23@@Z 00000001800048a0 f   backend.obj
 0001:00003940       ?ErrnoPreservingMalloc@internal@rml@@YAPEAX_K@Z 0000000180004940 f   backend.obj
 0001:00003990       ?MapMemory@internal@rml@@YAPEAX_KW4PageType@12@@Z 0000000180004990 f   backend.obj
 0001:000039d0       ?UnmapMemory@internal@rml@@YAHPEAX_K@Z 00000001800049d0 f   backend.obj
 0001:00003a20       ?getRawMemory@internal@rml@@YAPEAX_KW4PageType@12@@Z 0000000180004a20 f   backend.obj
 0001:00003a50       ?freeRawMemory@internal@rml@@YAHPEAX_K@Z 0000000180004a50 f   backend.obj
 0001:00003ba0       ??$AtomicUpdate@_KVMaxRequestComparator@Backend@internal@rml@@@internal@rml@@YAXAEA_K_KAEBVMaxRequestComparator@Backend@01@@Z 0000000180004ba0 f i backend.obj
 0001:00003c20       ??$__TBB_load_with_acquire@_J@internal@tbb@@YA_JAED_J@Z 0000000180004c20 f i backend.obj
 0001:00003c40       ??$__TBB_store_with_release@EH@internal@tbb@@YAXAECEH@Z 0000000180004c40 f i backend.obj
 0001:00003c70       ??$__TBB_store_with_release@_J_J@internal@tbb@@YAXAEC_J_J@Z 0000000180004c70 f i backend.obj
 0001:00003ca0       ??$is_aligned@D@internal@tbb@@YA_NPEAD_K@Z 0000000180004ca0 f i backend.obj
 0001:00003ce0       ??$is_aligned@ULastFreeBlock@internal@rml@@@internal@tbb@@YA_NPEAULastFreeBlock@0rml@@_K@Z 0000000180004ce0 f i backend.obj
 0001:00003d20       ??$is_aligned@VFreeBlock@internal@rml@@@internal@tbb@@YA_NPEAVFreeBlock@0rml@@_K@Z 0000000180004d20 f i backend.obj
 0001:00003d60       ??$spin_wait_while_eq@_J_J@internal@tbb@@YAXAED_J_J@Z 0000000180004d60 f i backend.obj
 0001:00003da0       ??$suppress_unused_warning@PEAVFreeBlock@internal@rml@@@internal@rml@@YAXAEBQEAVFreeBlock@01@@Z 0000000180004da0 f i backend.obj
 0001:00003db0       ??$suppress_unused_warning@_J@internal@rml@@YAXAEB_J@Z 0000000180004db0 f i backend.obj
 0001:00003dc0       ??0AtomicBackoff@@QEAA@XZ  0000000180004dc0 f i backend.obj
 0001:00003de0       ??0MaxRequestComparator@Backend@internal@rml@@QEAA@PEBV123@@Z 0000000180004de0 f i backend.obj
 0001:00003e00       ??0atomic_backoff@internal@tbb@@QEAA@XZ 0000000180004e00 f i backend.obj
 0001:00003e30       ??0no_copy@internal@tbb@@QEAA@XZ 0000000180004e30 f i backend.obj
 0001:00003e40       ??0scoped_lock@MallocMutex@@QEAA@AEAV1@@Z 0000000180004e40 f i backend.obj
 0001:00003e90       ??0scoped_lock@MallocMutex@@QEAA@AEAV1@_NPEA_N@Z 0000000180004e90 f i backend.obj
 0001:00003f20       ??1scoped_lock@MallocMutex@@QEAA@XZ 0000000180004f20 f i backend.obj
 0001:00003f60       ??RMaxRequestComparator@Backend@internal@rml@@QEBA_N_K0@Z 0000000180004f60 f i backend.obj
 0001:00003fb0       ?AtomicAdd@@YA_KAEC_J_J@Z  0000000180004fb0 f i backend.obj
 0001:00003fe0       ?AtomicAnd@@YAXPECX_K@Z    0000000180004fe0 f i backend.obj
 0001:00004010       ?AtomicCompareExchange@@YA_JAEC_J_J1@Z 0000000180005010 f i backend.obj
 0001:00004040       ?AtomicIncrement@@YA_JAEC_J@Z 0000000180005040 f i backend.obj
 0001:00004060       ?AtomicOr@@YAXPECX_K@Z     0000000180005060 f i backend.obj
 0001:00004090       ?BitScanRev@@YA_J_K@Z      0000000180005090 f i backend.obj
 0001:000040d0       ?FencedLoad@@YA_JAED_J@Z   00000001800050d0 f i backend.obj
 0001:000040f0       ?FencedStore@@YAXAEC_J_J@Z 00000001800050f0 f i backend.obj
 0001:00004120       ?SpinWaitWhileEq@@YAXAED_J_J@Z 0000000180005120 f i backend.obj
 0001:00004150       ?__TBB_LockByte@@YAEAEAE@Z 0000000180005150 f i backend.obj
 0001:00004190       ?__TBB_TryLockByte@@YA_NAEAE@Z 0000000180005190 f i backend.obj
 0001:000041d0       ?binsModified@BackendSync@internal@rml@@QEAAXXZ 00000001800051d0 f i backend.obj
 0001:000041f0       ?blockConsumed@BackendSync@internal@rml@@QEAAXXZ 00000001800051f0 f i backend.obj
 0001:00004210       ?blockReleased@BackendSync@internal@rml@@QEAAXXZ 0000000180005210 f i backend.obj
 0001:00004280       ?blockWasProcessed@CoalRequestQ@internal@rml@@QEAAXXZ 0000000180005280 f i backend.obj
 0001:000042e0       ?blocksInCoalescing@Backend@internal@rml@@QEBA_JXZ 00000001800052e0 f i backend.obj
 0001:00004300       ?blocksInFly@CoalRequestQ@internal@rml@@QEBA_JXZ 0000000180005300 f i backend.obj
 0001:00004320       ?empty@Bin@Backend@internal@rml@@QEBA_NXZ 0000000180005320 f i backend.obj
 0001:00004350       ?get@AllocControlledMode@internal@rml@@QEBA_JXZ 0000000180005350 f i backend.obj
 0001:00004390       ?getGranularity@HugePagesStatus@internal@rml@@QEBA_KXZ 0000000180005390 f i backend.obj
 0001:000043f0       ?getMinNonemptyBin@IndexedBins@Backend@internal@rml@@QEBAHI@Z 00000001800053f0 f i backend.obj
 0001:00004440       ?getMinTrue@?$BitMaskBasic@$0CAA@@internal@rml@@IEBAHI@Z 0000000180005440 f i backend.obj
 0001:00004540       ?getMinTrue@?$BitMaskMin@$0CAA@@internal@rml@@QEBAHI@Z 0000000180005540 f i backend.obj
 0001:00004560       ?getMinUsedBin@AdvRegionsBins@Backend@internal@rml@@QEBAHH@Z 0000000180005560 f i backend.obj
 0001:00004590       ?getNumOfMods@BackendSync@internal@rml@@QEBA_JXZ 0000000180005590 f i backend.obj
 0001:000045b0       ?inUserPool@Backend@internal@rml@@QEBA_NXZ 00000001800055b0 f i backend.obj
 0001:000045d0       ?init@BackendSync@internal@rml@@QEAAXPEAVBackend@23@@Z 00000001800055d0 f i backend.obj
 0001:000045f0       ?init@CoalRequestQ@internal@rml@@QEAAXPEAVBackendSync@23@@Z 00000001800055f0 f i backend.obj
 0001:00004610       ?init@UsedAddressRange@Backend@internal@rml@@QEAAXXZ 0000000180005610 f i backend.obj
 0001:00004630       ?initHeader@FreeBlock@internal@rml@@QEAAXXZ 0000000180005630 f i backend.obj
 0001:00004660       ?initLocked@GuardedSize@internal@rml@@QEAAXXZ 0000000180005660 f i backend.obj
 0001:00004680       ?leftNeig@FreeBlock@internal@rml@@QEBAPEAV123@_K@Z 0000000180005680 f i backend.obj
 0001:000046d0       ?load_with_acquire@?$machine_load_store@_J$07@internal@tbb@@SA_JAED_J@Z 00000001800056d0 f i backend.obj
 0001:000046f0       ?makeCoalscing@GuardedSize@internal@rml@@QEAAXXZ 00000001800056f0 f i backend.obj
 0001:00004740       ?markBlocks@FreeBlock@internal@rml@@SAXPEAV123@H_K@Z 0000000180005740 f i backend.obj
 0001:000047a0       ?markCoalescing@FreeBlock@internal@rml@@QEAAX_K@Z 00000001800057a0 f i backend.obj
 0001:00004800       ?markUsed@FreeBlock@internal@rml@@QEAAXXZ 0000000180005800 f i backend.obj
 0001:00004850       ?pause@AtomicBackoff@@QEAAXXZ 0000000180005850 f i backend.obj
 0001:00004870       ?pause@atomic_backoff@internal@tbb@@QEAAXXZ 0000000180005870 f i backend.obj
 0001:000048b0       ?ready@AllocControlledMode@internal@rml@@QEBA_NXZ 00000001800058b0 f i backend.obj
 0001:000048c0       ?regionsAreReleaseable@ExtMemoryPool@internal@rml@@QEBA_NXZ 00000001800058c0 f i backend.obj
 0001:00004910       ?registerBin@AdvRegionsBins@Backend@internal@rml@@QEAAXH@Z 0000000180005910 f i backend.obj
 0001:00004940       ?reset@?$BitMaskBasic@$0CAA@@internal@rml@@QEAAXXZ 0000000180005940 f i backend.obj
 0001:00004980       ?reset@AdvRegionsBins@Backend@internal@rml@@QEAAXXZ 0000000180005980 f i backend.obj
 0001:000049a0       ?reset@Bin@Backend@internal@rml@@QEAAXXZ 00000001800059a0 f i backend.obj
 0001:000049c0       ?rightNeig@FreeBlock@internal@rml@@QEBAPEAV123@_K@Z 00000001800059c0 f i backend.obj
 0001:00004a10       ?set@?$BitMaskBasic@$0CAA@@internal@rml@@IEAAX_K_N@Z 0000000180005a10 f i backend.obj
 0001:00004b00       ?set@?$BitMaskMin@$0CAA@@internal@rml@@QEAAX_K_N@Z 0000000180005b00 f i backend.obj
 0001:00004b30       ?setLeftFree@FreeBlock@internal@rml@@QEAAX_K@Z 0000000180005b30 f i backend.obj
 0001:00004b60       ?setMeFree@FreeBlock@internal@rml@@QEAAX_K@Z 0000000180005b60 f i backend.obj
 0001:00004b90       ?signal@MemExtendingSema@internal@rml@@QEAAXXZ 0000000180005b90 f i backend.obj
 0001:00004bc0       ?sizeToBin@Backend@internal@rml@@CAH_K@Z 0000000180005bc0 f i backend.obj
 0001:00004c40       ?store_with_release@?$machine_load_store@E$00@internal@tbb@@SAXAECEE@Z 0000000180005c40 f i backend.obj
 0001:00004c60       ?store_with_release@?$machine_load_store@_J$07@internal@tbb@@SAXAEC_J_J@Z 0000000180005c60 f i backend.obj
 0001:00004c80       ?toAlignedBin@Backend@internal@rml@@CA_NPEAVFreeBlock@23@_K@Z 0000000180005c80 f i backend.obj
 0001:00004ce0       ?tryLock@GuardedSize@internal@rml@@QEAA_KW4State@123@@Z 0000000180005ce0 f i backend.obj
 0001:00004d70       ?tryLockBlock@FreeBlock@internal@rml@@QEAA_KXZ 0000000180005d70 f i backend.obj
 0001:00004e10       ?trySetLeftUsed@FreeBlock@internal@rml@@QEAA_KW4State@GuardedSize@23@@Z 0000000180005e10 f i backend.obj
 0001:00004e40       ?trySetMeUsed@FreeBlock@internal@rml@@QEAA_KW4State@GuardedSize@23@@Z 0000000180005e40 f i backend.obj
 0001:00004e60       ?unlock@GuardedSize@internal@rml@@QEAAX_K@Z 0000000180005e60 f i backend.obj
 0001:00004ee0       ?userPool@ExtMemoryPool@internal@rml@@QEBA_NXZ 0000000180005ee0 f i backend.obj
 0001:00004f10       ?wait@MemExtendingSema@internal@rml@@QEAA_NXZ 0000000180005f10 f i backend.obj
 0001:00004f90       ?waitTillBlockReleased@BackendSync@internal@rml@@QEAA_N_J@Z 0000000180005f90 f i backend.obj
 0001:000051e0       ?sizeToIdx@LargeObjectCache@internal@rml@@CAH_K@Z 00000001800061e0 f   large_objects.obj
 0001:00005260       ?put@LargeObjectCache@internal@rml@@QEAAXPEAULargeMemoryBlock@23@@Z 0000000180006260 f   large_objects.obj
 0001:00005310       ?putList@LargeObjectCache@internal@rml@@QEAAXPEAULargeMemoryBlock@23@@Z 0000000180006310 f   large_objects.obj
 0001:000054c0       ?get@LargeObjectCache@internal@rml@@QEAAPEAULargeMemoryBlock@23@_K@Z 00000001800064c0 f   large_objects.obj
 0001:000055b0       ?updateCacheState@LargeObjectCache@internal@rml@@QEAAXW4DecreaseOrIncrease@23@_K@Z 00000001800065b0 f   large_objects.obj
 0001:00005640       ?doCleanup@LargeObjectCache@internal@rml@@QEAA_N_K_N@Z 0000000180006640 f   large_objects.obj
 0001:000056e0       ?decreasingCleanup@LargeObjectCache@internal@rml@@QEAA_NXZ 00000001800066e0 f   large_objects.obj
 0001:00005720       ?regularCleanup@LargeObjectCache@internal@rml@@QEAA_NXZ 0000000180006720 f   large_objects.obj
 0001:00005760       ?cleanAll@LargeObjectCache@internal@rml@@QEAA_NXZ 0000000180006760 f   large_objects.obj
 0001:000057c0       ?registerRealloc@LargeObjectCache@internal@rml@@QEAAX_K0@Z 00000001800067c0 f   large_objects.obj
 0001:00005840       ?softCachesCleanup@ExtMemoryPool@internal@rml@@QEAA_NXZ 0000000180006840 f   large_objects.obj
 0001:00005870       ?hardCachesCleanup@ExtMemoryPool@internal@rml@@QEAA_NXZ 0000000180006870 f   large_objects.obj
 0001:00005920       ?mallocLargeObject@ExtMemoryPool@internal@rml@@QEAAPEAULargeMemoryBlock@23@PEAVMemoryPool@23@_K@Z 0000000180006920 f   large_objects.obj
 0001:000059f0       ?freeLargeObject@ExtMemoryPool@internal@rml@@QEAAXPEAULargeMemoryBlock@23@@Z 00000001800069f0 f   large_objects.obj
 0001:00005a30       ?freeLargeObjectList@ExtMemoryPool@internal@rml@@QEAAXPEAULargeMemoryBlock@23@@Z 0000000180006a30 f   large_objects.obj
 0001:00005a60       ??$?0UOpCleanAll@internal@rml@@@CacheBinOperation@internal@rml@@QEAA@AEAUOpCleanAll@12@W4CacheBinOperationStatus@12@@Z 0000000180006a60 f i large_objects.obj
 0001:00005ac0       ??$?0UOpCleanToThreshold@internal@rml@@@CacheBinOperation@internal@rml@@QEAA@AEAUOpCleanToThreshold@12@W4CacheBinOperationStatus@12@@Z 0000000180006ac0 f i large_objects.obj
 0001:00005b20       ??$?0UOpGet@internal@rml@@@CacheBinOperation@internal@rml@@QEAA@AEAUOpGet@12@W4CacheBinOperationStatus@12@@Z 0000000180006b20 f i large_objects.obj
 0001:00005b80       ??$?0UOpPutList@internal@rml@@@CacheBinOperation@internal@rml@@QEAA@AEAUOpPutList@12@W4CacheBinOperationStatus@12@@Z 0000000180006b80 f i large_objects.obj
 0001:00005be0       ??$?0UOpUpdateUsedSize@internal@rml@@@CacheBinOperation@internal@rml@@QEAA@AEAUOpUpdateUsedSize@12@W4CacheBinOperationStatus@12@@Z 0000000180006be0 f i large_objects.obj
 0001:00005c40       ??$compare_and_swap@$0A@@?$atomic_impl@PEAUCacheBinOperation@internal@rml@@@internal@tbb@@QEAAPEAUCacheBinOperation@1rml@@PEAU314@0@Z 0000000180006c40 f i large_objects.obj
 0001:00005c90       ??$execute@V?$CacheBinFunctor@U?$LargeObjectCacheProps@$0CAAA@$0IAAAAA@$0CAAA@$01$01$0BA@@internal@rml@@@internal@rml@@@?$aggregator_generic@UCacheBinOperation@internal@rml@@@internal@interface6@tbb@@QEAAXPEAUCacheBinOperation@1rml@@AEAV?$CacheBinFunctor@U?$LargeObjectCacheProps@$0CAAA@$0IAAAAA@$0CAAA@$01$01$0BA@@internal@rml@@@15@_N@Z 0000000180006c90 f i large_objects.obj
 0001:00005dc0       ??$execute@V?$CacheBinFunctor@U?$LargeObjectCacheProps@$0IAAAAA@$0IBAAAAA@$0IAAAA@$00$00$03@internal@rml@@@internal@rml@@@?$aggregator_generic@UCacheBinOperation@internal@rml@@@internal@interface6@tbb@@QEAAXPEAUCacheBinOperation@1rml@@AEAV?$CacheBinFunctor@U?$LargeObjectCacheProps@$0IAAAAA@$0IBAAAAA@$0IAAAA@$00$00$03@internal@rml@@@15@_N@Z 0000000180006dc0 f i large_objects.obj
 0001:00005ef0       ??$fetch_and_store@$0A@@?$atomic_impl@PEAUCacheBinOperation@internal@rml@@@internal@tbb@@QEAAPEAUCacheBinOperation@1rml@@PEAU314@@Z 0000000180006ef0 f i large_objects.obj
 0001:00005f30       ??$itt_load_word_with_acquire@_K@internal@tbb@@YA_KAEA_K@Z 0000000180006f30 f i large_objects.obj
 0001:00005f70       ??$itt_store_word_with_release@_K@internal@tbb@@YAXAEA_K_K@Z 0000000180006f70 f i large_objects.obj
 0001:00005fb0       ??$opCast@UOpCleanAll@internal@rml@@@internal@rml@@YAAEAUOpCleanAll@01@AEAUCacheBinOperation@01@@Z 0000000180006fb0 f i large_objects.obj
 0001:00005fc0       ??$opCast@UOpCleanToThreshold@internal@rml@@@internal@rml@@YAAEAUOpCleanToThreshold@01@AEAUCacheBinOperation@01@@Z 0000000180006fc0 f i large_objects.obj
 0001:00005fd0       ??$opCast@UOpGet@internal@rml@@@internal@rml@@YAAEAUOpGet@01@AEAUCacheBinOperation@01@@Z 0000000180006fd0 f i large_objects.obj
 0001:00005fe0       ??$opCast@UOpPutList@internal@rml@@@internal@rml@@YAAEAUOpPutList@01@AEAUCacheBinOperation@01@@Z 0000000180006fe0 f i large_objects.obj
 0001:00005ff0       ??$opCast@UOpUpdateUsedSize@internal@rml@@@internal@rml@@YAAEAUOpUpdateUsedSize@01@AEAUCacheBinOperation@01@@Z 0000000180006ff0 f i large_objects.obj
 0001:00006000       ??$spin_wait_until_eq@_K_K@internal@tbb@@YAXAED_K_K@Z 0000000180007000 f i large_objects.obj
 0001:00006040       ??$spin_wait_while_eq@_K_K@internal@tbb@@YAXAED_K_K@Z 0000000180007040 f i large_objects.obj
 0001:00006080       ??$start_handle_operations@V?$CacheBinFunctor@U?$LargeObjectCacheProps@$0CAAA@$0IAAAAA@$0CAAA@$01$01$0BA@@internal@rml@@@internal@rml@@@?$aggregator_generic@UCacheBinOperation@internal@rml@@@internal@interface6@tbb@@AEAAXAEAV?$CacheBinFunctor@U?$LargeObjectCacheProps@$0CAAA@$0IAAAAA@$0CAAA@$01$01$0BA@@internal@rml@@@1rml@@@Z 0000000180007080 f i large_objects.obj
 0001:00006130       ??$start_handle_operations@V?$CacheBinFunctor@U?$LargeObjectCacheProps@$0IAAAAA@$0IBAAAAA@$0IAAAA@$00$00$03@internal@rml@@@internal@rml@@@?$aggregator_generic@UCacheBinOperation@internal@rml@@@internal@interface6@tbb@@AEAAXAEAV?$CacheBinFunctor@U?$LargeObjectCacheProps@$0IAAAAA@$0IBAAAAA@$0IAAAA@$00$00$03@internal@rml@@@1rml@@@Z 0000000180007130 f i large_objects.obj
 0001:000061e0       ??$to_bits@PEAUCacheBinOperation@internal@rml@@@?$atomic_impl@PEAUCacheBinOperation@internal@rml@@@internal@tbb@@CA_JPEAUCacheBinOperation@1rml@@@Z 00000001800071e0 f i large_objects.obj
 0001:00006200       ??$to_bits_ref@SEAUCacheBinOperation@internal@rml@@@?$atomic_impl@PEAUCacheBinOperation@internal@rml@@@internal@tbb@@CAAEA_JAEDSEAUCacheBinOperation@1rml@@@Z 0000000180007200 f i large_objects.obj
 0001:00006220       ??$to_value@PEAUCacheBinOperation@internal@rml@@@?$atomic_impl@PEAUCacheBinOperation@internal@rml@@@internal@tbb@@CAPEAUCacheBinOperation@1rml@@_J@Z 0000000180007220 f i large_objects.obj
 0001:00006250       ??0?$CacheBinFunctor@U?$LargeObjectCacheProps@$0CAAA@$0IAAAAA@$0CAAA@$01$01$0BA@@internal@rml@@@internal@rml@@QEAA@PEAVCacheBin@?$LargeObjectCacheImpl@U?$LargeObjectCacheProps@$0CAAA@$0IAAAAA@$0CAAA@$01$01$0BA@@internal@rml@@@12@PEAUExtMemoryPool@12@PEAV?$BitMaskMax@$0DPP@@12@H@Z 0000000180007250 f i large_objects.obj
 0001:000062c0       ??0?$CacheBinFunctor@U?$LargeObjectCacheProps@$0IAAAAA@$0IBAAAAA@$0IAAAA@$00$00$03@internal@rml@@@internal@rml@@QEAA@PEAVCacheBin@?$LargeObjectCacheImpl@U?$LargeObjectCacheProps@$0IAAAAA@$0IBAAAAA@$0IAAAA@$00$00$03@internal@rml@@@12@PEAUExtMemoryPool@12@PEAV?$BitMaskMax@$0PC@@12@H@Z 00000001800072c0 f i large_objects.obj
 0001:00006330       ??0?$aggregated_operation@UCacheBinOperation@internal@rml@@@internal@interface6@tbb@@QEAA@XZ 0000000180007330 f i large_objects.obj
 0001:00006360       ??0?$converter@PEAUCacheBinOperation@internal@rml@@@?$atomic_impl@PEAUCacheBinOperation@internal@rml@@@internal@tbb@@QEAA@PEAUCacheBinOperation@2rml@@@Z 0000000180007360 f i large_objects.obj
 0001:00006380       ??0?$converter@PEAUCacheBinOperation@internal@rml@@@?$atomic_impl@PEAUCacheBinOperation@internal@rml@@@internal@tbb@@QEAA@XZ 0000000180007380 f i large_objects.obj
 0001:00006390       ??0?$ptr_converter@PEDSEAUCacheBinOperation@internal@rml@@@?$atomic_impl@PEAUCacheBinOperation@internal@rml@@@internal@tbb@@QEAA@PEDSEAUCacheBinOperation@2rml@@@Z 0000000180007390 f i large_objects.obj
 0001:000063b0       ??0BinsSummary@?$LargeObjectCacheImpl@U?$LargeObjectCacheProps@$0CAAA@$0IAAAAA@$0CAAA@$01$01$0BA@@internal@rml@@@internal@rml@@QEAA@XZ 00000001800073b0 f i large_objects.obj
 0001:000063e0       ??0BinsSummary@?$LargeObjectCacheImpl@U?$LargeObjectCacheProps@$0IAAAAA@$0IBAAAAA@$0IAAAA@$00$00$03@internal@rml@@@internal@rml@@QEAA@XZ 00000001800073e0 f i large_objects.obj
 0001:00006410       ??0OperationPreprocessor@?$CacheBinFunctor@U?$LargeObjectCacheProps@$0CAAA@$0IAAAAA@$0CAAA@$01$01$0BA@@internal@rml@@@internal@rml@@QEAA@PEAVCacheBin@?$LargeObjectCacheImpl@U?$LargeObjectCacheProps@$0CAAA@$0IAAAAA@$0CAAA@$01$01$0BA@@internal@rml@@@23@@Z 0000000180007410 f i large_objects.obj
 0001:000064a0       ??0OperationPreprocessor@?$CacheBinFunctor@U?$LargeObjectCacheProps@$0IAAAAA@$0IBAAAAA@$0IAAAA@$00$00$03@internal@rml@@@internal@rml@@QEAA@PEAVCacheBin@?$LargeObjectCacheImpl@U?$LargeObjectCacheProps@$0IAAAAA@$0IBAAAAA@$0IAAAA@$00$00$03@internal@rml@@@23@@Z 00000001800074a0 f i large_objects.obj
 0001:00006530       ??2@YAPEAX_KPEAX@Z         0000000180007530 f i large_objects.obj
 0001:00006540       ??B?$atomic_impl@PEAUCacheBinOperation@internal@rml@@@internal@tbb@@QEDAPEAUCacheBinOperation@1rml@@XZ 0000000180007540 f i large_objects.obj
 0001:00006570       ??R?$CacheBinFunctor@U?$LargeObjectCacheProps@$0CAAA@$0IAAAAA@$0CAAA@$01$01$0BA@@internal@rml@@@internal@rml@@QEAAXPEAUCacheBinOperation@12@@Z 0000000180007570 f i large_objects.obj
 0001:00006a80       ??R?$CacheBinFunctor@U?$LargeObjectCacheProps@$0IAAAAA@$0IBAAAAA@$0IAAAA@$00$00$03@internal@rml@@@internal@rml@@QEAAXPEAUCacheBinOperation@12@@Z 0000000180007a80 f i large_objects.obj
 0001:00006f90       ??ROperationPreprocessor@?$CacheBinFunctor@U?$LargeObjectCacheProps@$0CAAA@$0IAAAAA@$0CAAA@$01$01$0BA@@internal@rml@@@internal@rml@@QEAAXPEAUCacheBinOperation@23@@Z 0000000180007f90 f i large_objects.obj
 0001:00007390       ??ROperationPreprocessor@?$CacheBinFunctor@U?$LargeObjectCacheProps@$0IAAAAA@$0IBAAAAA@$0IAAAA@$00$00$03@internal@rml@@@internal@rml@@QEAAXPEAUCacheBinOperation@23@@Z 0000000180008390 f i large_objects.obj
 0001:00007790       ?ExecuteOperation@CacheBin@?$LargeObjectCacheImpl@U?$LargeObjectCacheProps@$0CAAA@$0IAAAAA@$0CAAA@$01$01$0BA@@internal@rml@@@internal@rml@@AEAAXPEAUCacheBinOperation@34@PEAUExtMemoryPool@34@PEAV?$BitMaskMax@$0DPP@@34@H_N@Z 0000000180008790 f i large_objects.obj
 0001:00007870       ?ExecuteOperation@CacheBin@?$LargeObjectCacheImpl@U?$LargeObjectCacheProps@$0IAAAAA@$0IBAAAAA@$0IAAAA@$00$00$03@internal@rml@@@internal@rml@@AEAAXPEAUCacheBinOperation@34@PEAUExtMemoryPool@34@PEAV?$BitMaskMax@$0PC@@34@H_N@Z 0000000180008870 f i large_objects.obj
 0001:00007950       ?__TBB_store_with_release@internal@tbb@@YAXAEC_K_K@Z 0000000180008950 f i large_objects.obj
 0001:00007980       ?addOpToOpList@OperationPreprocessor@?$CacheBinFunctor@U?$LargeObjectCacheProps@$0CAAA@$0IAAAAA@$0CAAA@$01$01$0BA@@internal@rml@@@internal@rml@@AEBAXPEAUCacheBinOperation@34@PEAPEAU534@@Z 0000000180008980 f i large_objects.obj
 0001:000079b0       ?addOpToOpList@OperationPreprocessor@?$CacheBinFunctor@U?$LargeObjectCacheProps@$0IAAAAA@$0IBAAAAA@$0IAAAA@$00$00$03@internal@rml@@@internal@rml@@AEBAXPEAUCacheBinOperation@34@PEAPEAU534@@Z 00000001800089b0 f i large_objects.obj
 0001:000079e0       ?addToPutList@OperationPreprocessor@?$CacheBinFunctor@U?$LargeObjectCacheProps@$0CAAA@$0IAAAAA@$0CAAA@$01$01$0BA@@internal@rml@@@internal@rml@@AEAAXPEAULargeMemoryBlock@34@0H@Z 00000001800089e0 f i large_objects.obj
 0001:00007ab0       ?addToPutList@OperationPreprocessor@?$CacheBinFunctor@U?$LargeObjectCacheProps@$0IAAAAA@$0IBAAAAA@$0IAAAA@$00$00$03@internal@rml@@@internal@rml@@AEAAXPEAULargeMemoryBlock@34@0H@Z 0000000180008ab0 f i large_objects.obj
 0001:00007b80       ?call_itt_notify@internal@tbb@@YAXW4notify_type@12@PEAX@Z 0000000180008b80 f i large_objects.obj
 0001:00007c20       ?cleanAll@?$LargeObjectCacheImpl@U?$LargeObjectCacheProps@$0CAAA@$0IAAAAA@$0CAAA@$01$01$0BA@@internal@rml@@@internal@rml@@QEAA_NPEAUExtMemoryPool@23@@Z 0000000180008c20 f i large_objects.obj
 0001:00007cb0       ?cleanAll@?$LargeObjectCacheImpl@U?$LargeObjectCacheProps@$0IAAAAA@$0IBAAAAA@$0IAAAA@$00$00$03@internal@rml@@@internal@rml@@QEAA_NPEAUExtMemoryPool@23@@Z 0000000180008cb0 f i large_objects.obj
 0001:00007d40       ?cleanAll@CacheBin@?$LargeObjectCacheImpl@U?$LargeObjectCacheProps@$0CAAA@$0IAAAAA@$0CAAA@$01$01$0BA@@internal@rml@@@internal@rml@@QEAAPEAULargeMemoryBlock@34@PEAV?$BitMaskMax@$0DPP@@34@H@Z 0000000180008d40 f i large_objects.obj
 0001:00007dd0       ?cleanAll@CacheBin@?$LargeObjectCacheImpl@U?$LargeObjectCacheProps@$0IAAAAA@$0IBAAAAA@$0IAAAA@$00$00$03@internal@rml@@@internal@rml@@QEAAPEAULargeMemoryBlock@34@PEAV?$BitMaskMax@$0PC@@34@H@Z 0000000180008dd0 f i large_objects.obj
 0001:00007e60       ?cleanToThreshold@CacheBin@?$LargeObjectCacheImpl@U?$LargeObjectCacheProps@$0CAAA@$0IAAAAA@$0CAAA@$01$01$0BA@@internal@rml@@@internal@rml@@QEAAPEAULargeMemoryBlock@34@_KPEAV?$BitMaskMax@$0DPP@@34@H@Z 0000000180008e60 f i large_objects.obj
 0001:00008050       ?cleanToThreshold@CacheBin@?$LargeObjectCacheImpl@U?$LargeObjectCacheProps@$0CAAA@$0IAAAAA@$0CAAA@$01$01$0BA@@internal@rml@@@internal@rml@@QEAA_NPEAUExtMemoryPool@34@PEAV?$BitMaskMax@$0DPP@@34@_KH@Z 0000000180009050 f i large_objects.obj
 0001:00008180       ?cleanToThreshold@CacheBin@?$LargeObjectCacheImpl@U?$LargeObjectCacheProps@$0IAAAAA@$0IBAAAAA@$0IAAAA@$00$00$03@internal@rml@@@internal@rml@@QEAAPEAULargeMemoryBlock@34@_KPEAV?$BitMaskMax@$0PC@@34@H@Z 0000000180009180 f i large_objects.obj
 0001:00008370       ?cleanToThreshold@CacheBin@?$LargeObjectCacheImpl@U?$LargeObjectCacheProps@$0IAAAAA@$0IBAAAAA@$0IAAAA@$00$00$03@internal@rml@@@internal@rml@@QEAA_NPEAUExtMemoryPool@34@PEAV?$BitMaskMax@$0PC@@34@_KH@Z 0000000180009370 f i large_objects.obj
 0001:000084a0       ?commitOperation@OperationPreprocessor@?$CacheBinFunctor@U?$LargeObjectCacheProps@$0CAAA@$0IAAAAA@$0CAAA@$01$01$0BA@@internal@rml@@@internal@rml@@AEBAXPEAUCacheBinOperation@34@@Z 00000001800094a0 f i large_objects.obj
 0001:000084d0       ?commitOperation@OperationPreprocessor@?$CacheBinFunctor@U?$LargeObjectCacheProps@$0IAAAAA@$0IBAAAAA@$0IAAAA@$00$00$03@internal@rml@@@internal@rml@@AEBAXPEAUCacheBinOperation@34@@Z 00000001800094d0 f i large_objects.obj
 0001:00008500       ?compare_and_swap@?$atomic_impl@PEAUCacheBinOperation@internal@rml@@@internal@tbb@@QEAAPEAUCacheBinOperation@2rml@@PEAU425@0@Z 0000000180009500 f i large_objects.obj
 0001:00008530       ?compare_and_swap@?$atomic_traits@$07$0A@@internal@tbb@@SA_JPECX_J1@Z 0000000180009530 f i large_objects.obj
 0001:00008560       ?decreaseThreshold@CacheBin@?$LargeObjectCacheImpl@U?$LargeObjectCacheProps@$0CAAA@$0IAAAAA@$0CAAA@$01$01$0BA@@internal@rml@@@internal@rml@@QEAAXXZ 0000000180009560 f i large_objects.obj
 0001:000085a0       ?decreaseThreshold@CacheBin@?$LargeObjectCacheImpl@U?$LargeObjectCacheProps@$0IAAAAA@$0IBAAAAA@$0IAAAA@$00$00$03@internal@rml@@@internal@rml@@QEAAXXZ 00000001800095a0 f i large_objects.obj
 0001:000085e0       ?fetch_and_store@?$atomic_impl@PEAUCacheBinOperation@internal@rml@@@internal@tbb@@QEAAPEAUCacheBinOperation@2rml@@PEAU425@@Z 00000001800095e0 f i large_objects.obj
 0001:00008610       ?fetch_and_store@?$atomic_traits@$07$0A@@internal@tbb@@SA_JPECX_J@Z 0000000180009610 f i large_objects.obj
 0001:00008640       ?forgetOutdatedState@CacheBin@?$LargeObjectCacheImpl@U?$LargeObjectCacheProps@$0CAAA@$0IAAAAA@$0CAAA@$01$01$0BA@@internal@rml@@@internal@rml@@QEAAX_K@Z 0000000180009640 f i large_objects.obj
 0001:00008720       ?forgetOutdatedState@CacheBin@?$LargeObjectCacheImpl@U?$LargeObjectCacheProps@$0IAAAAA@$0IBAAAAA@$0IAAAA@$00$00$03@internal@rml@@@internal@rml@@QEAAX_K@Z 0000000180009720 f i large_objects.obj
 0001:00008800       ?get@?$LargeObjectCacheImpl@U?$LargeObjectCacheProps@$0CAAA@$0IAAAAA@$0CAAA@$01$01$0BA@@internal@rml@@@internal@rml@@QEAAPEAULargeMemoryBlock@23@PEAUExtMemoryPool@23@_K@Z 0000000180009800 f i large_objects.obj
 0001:000088d0       ?get@?$LargeObjectCacheImpl@U?$LargeObjectCacheProps@$0IAAAAA@$0IBAAAAA@$0IAAAA@$00$00$03@internal@rml@@@internal@rml@@QEAAPEAULargeMemoryBlock@23@PEAUExtMemoryPool@23@_K@Z 00000001800098d0 f i large_objects.obj
 0001:000089a0       ?get@CacheBin@?$LargeObjectCacheImpl@U?$LargeObjectCacheProps@$0CAAA@$0IAAAAA@$0CAAA@$01$01$0BA@@internal@rml@@@internal@rml@@QEAAPEAULargeMemoryBlock@34@PEAUExtMemoryPool@34@_KPEAV?$BitMaskMax@$0DPP@@34@H@Z 00000001800099a0 f i large_objects.obj
 0001:00008a40       ?get@CacheBin@?$LargeObjectCacheImpl@U?$LargeObjectCacheProps@$0CAAA@$0IAAAAA@$0CAAA@$01$01$0BA@@internal@rml@@@internal@rml@@QEAAPEAULargeMemoryBlock@34@XZ 0000000180009a40 f i large_objects.obj
 0001:00008ab0       ?get@CacheBin@?$LargeObjectCacheImpl@U?$LargeObjectCacheProps@$0IAAAAA@$0IBAAAAA@$0IAAAA@$00$00$03@internal@rml@@@internal@rml@@QEAAPEAULargeMemoryBlock@34@PEAUExtMemoryPool@34@_KPEAV?$BitMaskMax@$0PC@@34@H@Z 0000000180009ab0 f i large_objects.obj
 0001:00008b50       ?get@CacheBin@?$LargeObjectCacheImpl@U?$LargeObjectCacheProps@$0IAAAAA@$0IBAAAAA@$0IAAAA@$00$00$03@internal@rml@@@internal@rml@@QEAAPEAULargeMemoryBlock@34@XZ 0000000180009b50 f i large_objects.obj
 0001:00008bc0       ?getCurrTime@?$CacheBinFunctor@U?$LargeObjectCacheProps@$0CAAA@$0IAAAAA@$0CAAA@$01$01$0BA@@internal@rml@@@internal@rml@@QEBA_KXZ 0000000180009bc0 f i large_objects.obj
 0001:00008bd0       ?getCurrTime@?$CacheBinFunctor@U?$LargeObjectCacheProps@$0IAAAAA@$0IBAAAAA@$0IAAAA@$00$00$03@internal@rml@@@internal@rml@@QEBA_KXZ 0000000180009bd0 f i large_objects.obj
 0001:00008be0       ?getCurrTimeRange@LargeObjectCache@internal@rml@@QEAA_K_K@Z 0000000180009be0 f i large_objects.obj
 0001:00008c10       ?getFromPutList@OperationPreprocessor@?$CacheBinFunctor@U?$LargeObjectCacheProps@$0CAAA@$0IAAAAA@$0CAAA@$01$01$0BA@@internal@rml@@@internal@rml@@AEAA_NPEAUCacheBinOperation@34@_K@Z 0000000180009c10 f i large_objects.obj
 0001:00008d00       ?getFromPutList@OperationPreprocessor@?$CacheBinFunctor@U?$LargeObjectCacheProps@$0IAAAAA@$0IBAAAAA@$0IAAAA@$00$00$03@internal@rml@@@internal@rml@@AEAA_NPEAUCacheBinOperation@34@_K@Z 0000000180009d00 f i large_objects.obj
 0001:00008df0       ?getMaxTrue@?$BitMaskMax@$0DPP@@internal@rml@@QEBAHI@Z 0000000180009df0 f i large_objects.obj
 0001:00008e40       ?getMaxTrue@?$BitMaskMax@$0PC@@internal@rml@@QEBAHI@Z 0000000180009e40 f i large_objects.obj
 0001:00008e90       ?getMinTrue@?$BitMaskBasic@$0DPP@@internal@rml@@IEBAHI@Z 0000000180009e90 f i large_objects.obj
 0001:00008f90       ?getMinTrue@?$BitMaskBasic@$0PC@@internal@rml@@IEBAHI@Z 0000000180009f90 f i large_objects.obj
 0001:00009090       ?getNumBins@?$LargeObjectCacheImpl@U?$LargeObjectCacheProps@$0CAAA@$0IAAAAA@$0CAAA@$01$01$0BA@@internal@rml@@@internal@rml@@SAHXZ 000000018000a090 f i large_objects.obj
 0001:000090a0       ?getTimeRange@OperationPreprocessor@?$CacheBinFunctor@U?$LargeObjectCacheProps@$0CAAA@$0IAAAAA@$0CAAA@$01$01$0BA@@internal@rml@@@internal@rml@@QEBA_KXZ 000000018000a0a0 f i large_objects.obj
 0001:000090c0       ?getTimeRange@OperationPreprocessor@?$CacheBinFunctor@U?$LargeObjectCacheProps@$0IAAAAA@$0IBAAAAA@$0IAAAA@$00$00$03@internal@rml@@@internal@rml@@QEBA_KXZ 000000018000a0c0 f i large_objects.obj
 0001:000090e0       ?getToRelease@?$CacheBinFunctor@U?$LargeObjectCacheProps@$0CAAA@$0IAAAAA@$0CAAA@$01$01$0BA@@internal@rml@@@internal@rml@@QEBAPEAULargeMemoryBlock@23@XZ 000000018000a0e0 f i large_objects.obj
 0001:000090f0       ?getToRelease@?$CacheBinFunctor@U?$LargeObjectCacheProps@$0IAAAAA@$0IBAAAAA@$0IAAAA@$00$00$03@internal@rml@@@internal@rml@@QEBAPEAULargeMemoryBlock@23@XZ 000000018000a0f0 f i large_objects.obj
 0001:00009100       ?isCleanupNeeded@?$CacheBinFunctor@U?$LargeObjectCacheProps@$0CAAA@$0IAAAAA@$0CAAA@$01$01$0BA@@internal@rml@@@internal@rml@@QEBA_NXZ 000000018000a100 f i large_objects.obj
 0001:00009110       ?isCleanupNeeded@?$CacheBinFunctor@U?$LargeObjectCacheProps@$0IAAAAA@$0IBAAAAA@$0IAAAA@$00$00$03@internal@rml@@@internal@rml@@QEBA_NXZ 000000018000a110 f i large_objects.obj
 0001:00009120       ?isCleanupNeededOnRange@LargeObjectCache@internal@rml@@QEAA_N_K0@Z 000000018000a120 f i large_objects.obj
 0001:000091a0       ?isInvalid@BackRefIdx@internal@rml@@QEBA_NXZ 000000018000a1a0 f i large_objects.obj
 0001:000091d0       ?isLOCTooLarge@BinsSummary@?$LargeObjectCacheImpl@U?$LargeObjectCacheProps@$0CAAA@$0IAAAAA@$0CAAA@$01$01$0BA@@internal@rml@@@internal@rml@@QEBA_NXZ 000000018000a1d0 f i large_objects.obj
 0001:00009210       ?isLOCTooLarge@BinsSummary@?$LargeObjectCacheImpl@U?$LargeObjectCacheProps@$0IAAAAA@$0IBAAAAA@$0IAAAA@$00$00$03@internal@rml@@@internal@rml@@QEBA_NXZ 000000018000a210 f i large_objects.obj
 0001:00009250       ?lessThanWithOverflow@internal@rml@@YA_N_J0@Z 000000018000a250 f i large_objects.obj
 0001:000092d0       ?putList@?$LargeObjectCacheImpl@U?$LargeObjectCacheProps@$0CAAA@$0IAAAAA@$0CAAA@$01$01$0BA@@internal@rml@@@internal@rml@@QEAAXPEAUExtMemoryPool@23@PEAULargeMemoryBlock@23@@Z 000000018000a2d0 f i large_objects.obj
 0001:00009360       ?putList@?$LargeObjectCacheImpl@U?$LargeObjectCacheProps@$0IAAAAA@$0IBAAAAA@$0IAAAA@$00$00$03@internal@rml@@@internal@rml@@QEAAXPEAUExtMemoryPool@23@PEAULargeMemoryBlock@23@@Z 000000018000a360 f i large_objects.obj
 0001:000093f0       ?putList@CacheBin@?$LargeObjectCacheImpl@U?$LargeObjectCacheProps@$0CAAA@$0IAAAAA@$0CAAA@$01$01$0BA@@internal@rml@@@internal@rml@@QEAAPEAULargeMemoryBlock@34@PEAU534@0PEAV?$BitMaskMax@$0DPP@@34@HH@Z 000000018000a3f0 f i large_objects.obj
 0001:00009640       ?putList@CacheBin@?$LargeObjectCacheImpl@U?$LargeObjectCacheProps@$0CAAA@$0IAAAAA@$0CAAA@$01$01$0BA@@internal@rml@@@internal@rml@@QEAAXPEAUExtMemoryPool@34@PEAULargeMemoryBlock@34@PEAV?$BitMaskMax@$0DPP@@34@H@Z 000000018000a640 f i large_objects.obj
 0001:00009700       ?putList@CacheBin@?$LargeObjectCacheImpl@U?$LargeObjectCacheProps@$0IAAAAA@$0IBAAAAA@$0IAAAA@$00$00$03@internal@rml@@@internal@rml@@QEAAPEAULargeMemoryBlock@34@PEAU534@0PEAV?$BitMaskMax@$0PC@@34@HH@Z 000000018000a700 f i large_objects.obj
 0001:00009950       ?putList@CacheBin@?$LargeObjectCacheImpl@U?$LargeObjectCacheProps@$0IAAAAA@$0IBAAAAA@$0IAAAA@$00$00$03@internal@rml@@@internal@rml@@QEAAXPEAUExtMemoryPool@34@PEAULargeMemoryBlock@34@PEAV?$BitMaskMax@$0PC@@34@H@Z 000000018000a950 f i large_objects.obj
 0001:00009a10       ?regularCleanup@?$LargeObjectCacheImpl@U?$LargeObjectCacheProps@$0CAAA@$0IAAAAA@$0CAAA@$01$01$0BA@@internal@rml@@@internal@rml@@QEAA_NPEAUExtMemoryPool@23@_K_N@Z 000000018000aa10 f i large_objects.obj
 0001:00009ba0       ?regularCleanup@?$LargeObjectCacheImpl@U?$LargeObjectCacheProps@$0IAAAAA@$0IBAAAAA@$0IAAAA@$00$00$03@internal@rml@@@internal@rml@@QEAA_NPEAUExtMemoryPool@23@_K_N@Z 000000018000aba0 f i large_objects.obj
 0001:00009d20       ?releaseAllToBackend@CacheBin@?$LargeObjectCacheImpl@U?$LargeObjectCacheProps@$0CAAA@$0IAAAAA@$0CAAA@$01$01$0BA@@internal@rml@@@internal@rml@@QEAA_NPEAUExtMemoryPool@34@PEAV?$BitMaskMax@$0DPP@@34@H@Z 000000018000ad20 f i large_objects.obj
 0001:00009e50       ?releaseAllToBackend@CacheBin@?$LargeObjectCacheImpl@U?$LargeObjectCacheProps@$0IAAAAA@$0IBAAAAA@$0IAAAA@$00$00$03@internal@rml@@@internal@rml@@QEAA_NPEAUExtMemoryPool@34@PEAV?$BitMaskMax@$0PC@@34@H@Z 000000018000ae50 f i large_objects.obj
 0001:00009f80       ?reset@BinsSummary@?$LargeObjectCacheImpl@U?$LargeObjectCacheProps@$0CAAA@$0IAAAAA@$0CAAA@$01$01$0BA@@internal@rml@@@internal@rml@@QEAAXXZ 000000018000af80 f i large_objects.obj
 0001:00009fa0       ?reset@BinsSummary@?$LargeObjectCacheImpl@U?$LargeObjectCacheProps@$0IAAAAA@$0IBAAAAA@$0IAAAA@$00$00$03@internal@rml@@@internal@rml@@QEAAXXZ 000000018000afa0 f i large_objects.obj
 0001:00009fc0       ?set@?$BitMaskBasic@$0DPP@@internal@rml@@IEAAX_K_N@Z 000000018000afc0 f i large_objects.obj
 0001:0000a0b0       ?set@?$BitMaskBasic@$0PC@@internal@rml@@IEAAX_K_N@Z 000000018000b0b0 f i large_objects.obj
 0001:0000a1a0       ?set@?$BitMaskMax@$0DPP@@internal@rml@@QEAAX_K_N@Z 000000018000b1a0 f i large_objects.obj
 0001:0000a1e0       ?set@?$BitMaskMax@$0PC@@internal@rml@@QEAAX_K_N@Z 000000018000b1e0 f i large_objects.obj
 0001:0000a220       ?setLastGet@CacheBin@?$LargeObjectCacheImpl@U?$LargeObjectCacheProps@$0CAAA@$0IAAAAA@$0CAAA@$01$01$0BA@@internal@rml@@@internal@rml@@QEAAX_K@Z 000000018000b220 f i large_objects.obj
 0001:0000a240       ?setLastGet@CacheBin@?$LargeObjectCacheImpl@U?$LargeObjectCacheProps@$0IAAAAA@$0IBAAAAA@$0IAAAA@$00$00$03@internal@rml@@@internal@rml@@QEAAX_K@Z 000000018000b240 f i large_objects.obj
 0001:0000a260       ?sizeToIdx@?$LargeObjectCacheImpl@U?$LargeObjectCacheProps@$0CAAA@$0IAAAAA@$0CAAA@$01$01$0BA@@internal@rml@@@internal@rml@@SAH_K@Z 000000018000b260 f i large_objects.obj
 0001:0000a2c0       ?sizeToIdx@?$LargeObjectCacheImpl@U?$LargeObjectCacheProps@$0IAAAAA@$0IBAAAAA@$0IAAAA@$00$00$03@internal@rml@@@internal@rml@@SAH_K@Z 000000018000b2c0 f i large_objects.obj
 0001:0000a320       ?store_with_release@?$machine_load_store@_K$07@internal@tbb@@SAXAEC_K_K@Z 000000018000b320 f i large_objects.obj
 0001:0000a340       ?update@BinsSummary@?$LargeObjectCacheImpl@U?$LargeObjectCacheProps@$0CAAA@$0IAAAAA@$0CAAA@$01$01$0BA@@internal@rml@@@internal@rml@@QEAAX_K0@Z 000000018000b340 f i large_objects.obj
 0001:0000a380       ?update@BinsSummary@?$LargeObjectCacheImpl@U?$LargeObjectCacheProps@$0IAAAAA@$0IBAAAAA@$0IAAAA@$00$00$03@internal@rml@@@internal@rml@@QEAAX_K0@Z 000000018000b380 f i large_objects.obj
 0001:0000a3c0       ?updateAgeThreshold@CacheBin@?$LargeObjectCacheImpl@U?$LargeObjectCacheProps@$0CAAA@$0IAAAAA@$0CAAA@$01$01$0BA@@internal@rml@@@internal@rml@@QEAAX_K@Z 000000018000b3c0 f i large_objects.obj
 0001:0000a400       ?updateAgeThreshold@CacheBin@?$LargeObjectCacheImpl@U?$LargeObjectCacheProps@$0IAAAAA@$0IBAAAAA@$0IAAAA@$00$00$03@internal@rml@@@internal@rml@@QEAAX_K@Z 000000018000b400 f i large_objects.obj
 0001:0000a440       ?updateBinsSummary@CacheBin@?$LargeObjectCacheImpl@U?$LargeObjectCacheProps@$0CAAA@$0IAAAAA@$0CAAA@$01$01$0BA@@internal@rml@@@internal@rml@@QEBAXPEAVBinsSummary@234@@Z 000000018000b440 f i large_objects.obj
 0001:0000a470       ?updateBinsSummary@CacheBin@?$LargeObjectCacheImpl@U?$LargeObjectCacheProps@$0IAAAAA@$0IBAAAAA@$0IAAAA@$00$00$03@internal@rml@@@internal@rml@@QEBAXPEAVBinsSummary@234@@Z 000000018000b470 f i large_objects.obj
 0001:0000a4a0       ?updateCacheState@?$LargeObjectCacheImpl@U?$LargeObjectCacheProps@$0CAAA@$0IAAAAA@$0CAAA@$01$01$0BA@@internal@rml@@@internal@rml@@QEAAXPEAUExtMemoryPool@23@W4DecreaseOrIncrease@23@_K@Z 000000018000b4a0 f i large_objects.obj
 0001:0000a550       ?updateCacheState@?$LargeObjectCacheImpl@U?$LargeObjectCacheProps@$0IAAAAA@$0IBAAAAA@$0IAAAA@$00$00$03@internal@rml@@@internal@rml@@QEAAXPEAUExtMemoryPool@23@W4DecreaseOrIncrease@23@_K@Z 000000018000b550 f i large_objects.obj
 0001:0000a600       ?updateCachedSize@CacheBin@?$LargeObjectCacheImpl@U?$LargeObjectCacheProps@$0CAAA@$0IAAAAA@$0CAAA@$01$01$0BA@@internal@rml@@@internal@rml@@QEAAX_K@Z 000000018000b600 f i large_objects.obj
 0001:0000a630       ?updateCachedSize@CacheBin@?$LargeObjectCacheImpl@U?$LargeObjectCacheProps@$0IAAAAA@$0IBAAAAA@$0IAAAA@$00$00$03@internal@rml@@@internal@rml@@QEAAX_K@Z 000000018000b630 f i large_objects.obj
 0001:0000a660       ?updateMeanHitRange@CacheBin@?$LargeObjectCacheImpl@U?$LargeObjectCacheProps@$0CAAA@$0IAAAAA@$0CAAA@$01$01$0BA@@internal@rml@@@internal@rml@@QEAAX_J@Z 000000018000b660 f i large_objects.obj
 0001:0000a6e0       ?updateMeanHitRange@CacheBin@?$LargeObjectCacheImpl@U?$LargeObjectCacheProps@$0IAAAAA@$0IBAAAAA@$0IAAAA@$00$00$03@internal@rml@@@internal@rml@@QEAAX_J@Z 000000018000b6e0 f i large_objects.obj
 0001:0000a760       ?updateUsedSize@CacheBin@?$LargeObjectCacheImpl@U?$LargeObjectCacheProps@$0CAAA@$0IAAAAA@$0CAAA@$01$01$0BA@@internal@rml@@@internal@rml@@QEAAXPEAUExtMemoryPool@34@_KPEAV?$BitMaskMax@$0DPP@@34@H@Z 000000018000b760 f i large_objects.obj
 0001:0000a7d0       ?updateUsedSize@CacheBin@?$LargeObjectCacheImpl@U?$LargeObjectCacheProps@$0CAAA@$0IAAAAA@$0CAAA@$01$01$0BA@@internal@rml@@@internal@rml@@QEAAX_KPEAV?$BitMaskMax@$0DPP@@34@H@Z 000000018000b7d0 f i large_objects.obj
 0001:0000a860       ?updateUsedSize@CacheBin@?$LargeObjectCacheImpl@U?$LargeObjectCacheProps@$0IAAAAA@$0IBAAAAA@$0IAAAA@$00$00$03@internal@rml@@@internal@rml@@QEAAXPEAUExtMemoryPool@34@_KPEAV?$BitMaskMax@$0PC@@34@H@Z 000000018000b860 f i large_objects.obj
 0001:0000a8d0       ?updateUsedSize@CacheBin@?$LargeObjectCacheImpl@U?$LargeObjectCacheProps@$0IAAAAA@$0IBAAAAA@$0IAAAA@$00$00$03@internal@rml@@@internal@rml@@QEAAX_KPEAV?$BitMaskMax@$0PC@@34@H@Z 000000018000b8d0 f i large_objects.obj
 0001:0000a9d0       ?newBackRef@BackRefIdx@internal@rml@@SA?AV123@_N@Z 000000018000b9d0 f   backref.obj
 0001:0000aca0       ?initBackRefMaster@internal@rml@@YA_NPEAVBackend@12@@Z 000000018000bca0 f   backref.obj
 0001:0000add0       ?destroyBackRefMaster@internal@rml@@YAXPEAVBackend@12@@Z 000000018000bdd0 f   backref.obj
 0001:0000ae60       ?removeBackRef@internal@rml@@YAXVBackRefIdx@12@@Z 000000018000be60 f   backref.obj
 0001:0000b080       ?setBackRef@internal@rml@@YAXVBackRefIdx@12@PEAX@Z 000000018000c080 f   backref.obj
 0001:0000b120       ?getBackRef@internal@rml@@YAPEAXVBackRefIdx@12@@Z 000000018000c120 f   backref.obj
 0001:0000b1c0       ?findFreeBlock@BackRefMaster@internal@rml@@QEAAPEAUBackRefBlock@23@XZ 000000018000c1c0 f   backref.obj
 0001:0000b2d0       ?addToForUseList@BackRefMaster@internal@rml@@QEAAXPEAUBackRefBlock@23@@Z 000000018000c2d0 f   backref.obj
 0001:0000b310       ?initEmptyBackRefBlock@BackRefMaster@internal@rml@@QEAAXPEAUBackRefBlock@23@@Z 000000018000c310 f   backref.obj
 0001:0000b3c0       ?requestNewSpace@BackRefMaster@internal@rml@@QEAA_NXZ 000000018000c3c0 f   backref.obj
 0001:0000b620       ??0BackRefBlock@internal@rml@@QEAA@PEBU012@_J@Z 000000018000c620 f i backref.obj
 0001:0000b700       ??0BackRefIdx@internal@rml@@QEAA@XZ 000000018000c700 f i backref.obj
 0001:0000b750       ??0MallocMutex@@QEAA@XZ    000000018000c750 f i backref.obj
 0001:0000b770       ?getMaster@BackRefIdx@internal@rml@@QEBAIXZ 000000018000c770 f i backref.obj
 0001:0000b780       ?getOffset@BackRefIdx@internal@rml@@QEBAGXZ 000000018000c780 f i backref.obj
 0001:0000b7a0       ?zeroSet@BackRefBlock@internal@rml@@QEAAXXZ 000000018000c7a0 f i backref.obj
 0001:0000b7d0       ?set_assertion_handler@internal@rml@@YAP6AXPEBDH00@ZP6AX0H00@Z@Z 000000018000c7d0 f   tbbmalloc.obj
 0001:0000b800       ?assertion_failure@internal@rml@@YAXPEBDH00@Z 000000018000c800 f   tbbmalloc.obj
 0001:0000b920       ?init_tbbmalloc@internal@rml@@YAXXZ 000000018000c920 f   tbbmalloc.obj
 0001:0000b9a0       DllMain                    000000018000c9a0 f   tbbmalloc.obj
 0001:0000b9f0       __local_stdio_printf_options 000000018000c9f0 f i tbbmalloc.obj
 0001:0000ba00       _vfprintf_l                000000018000ca00 f i tbbmalloc.obj
 0001:0000ba50       fprintf                    000000018000ca50 f i tbbmalloc.obj
 0001:0000baa0       __itt_set_error_handler    000000018000caa0 f   itt_notify.obj
 0001:0000bad0       __itt_fini_ittlib          000000018000cad0 f   itt_notify.obj
 0001:0000fe40       __itt_init_ittlib          0000000180010e40 f   itt_notify.obj
 0001:00010240       ?__TBB_load_ittnotify@internal@tbb@@YAHXZ 0000000180011240 f   itt_notify.obj
 0001:00010260       ?__itt_interlocked_increment@@YAJPECJ@Z 0000000180011260 f i itt_notify.obj
 0001:000103c0       scalable_malloc            00000001800113c0 f   frontend.obj
 0001:00010400       scalable_calloc            0000000180011400 f   frontend.obj
 0001:000104c0       scalable_free              00000001800114c0 f   frontend.obj
 0001:000104e0       scalable_realloc           00000001800114e0 f   frontend.obj
 0001:00010570       scalable_aligned_malloc    0000000180011570 f   frontend.obj
 0001:000105f0       scalable_aligned_realloc   00000001800115f0 f   frontend.obj
 0001:000106b0       scalable_posix_memalign    00000001800116b0 f   frontend.obj
 0001:00010730       scalable_msize             0000000180011730 f   frontend.obj
 0001:000107a0       __TBB_malloc_safer_free    00000001800117a0 f   frontend.obj
 0001:00010870       __TBB_malloc_safer_realloc 0000000180011870 f   frontend.obj
 0001:000109e0       __TBB_malloc_safer_aligned_realloc 00000001800119e0 f   frontend.obj
 0001:00010ba0       __TBB_malloc_safer_msize   0000000180011ba0 f   frontend.obj
 0001:00010c20       __TBB_malloc_safer_aligned_msize 0000000180011c20 f   frontend.obj
 0001:00010cb0       scalable_aligned_free      0000000180011cb0 f   frontend.obj
 0001:00010cd0       scalable_allocation_mode   0000000180011cd0 f   frontend.obj
 0001:00010d20       scalable_allocation_command 0000000180011d20 f   frontend.obj
 0001:00010e00       ?pool_create_v1@rml@@YA?AW4MemPoolError@1@_JPEBUMemPoolPolicy@1@PEAPEAVMemoryPool@1@@Z 0000000180011e00 f   frontend.obj
 0001:00010f50       ?pool_destroy@rml@@YA_NPEAVMemoryPool@1@@Z 0000000180011f50 f   frontend.obj
 0001:00010f90       ?pool_malloc@rml@@YAPEAXPEAVMemoryPool@1@_K@Z 0000000180011f90 f   frontend.obj
 0001:00010fc0       ?pool_realloc@rml@@YAPEAXPEAVMemoryPool@1@PEAX_K@Z 0000000180011fc0 f   frontend.obj
 0001:00011030       ?pool_aligned_malloc@rml@@YAPEAXPEAVMemoryPool@1@_K1@Z 0000000180012030 f   frontend.obj
 0001:00011080       ?pool_aligned_realloc@rml@@YAPEAXPEAVMemoryPool@1@PEAX_K2@Z 0000000180012080 f   frontend.obj
 0001:00011130       ?pool_reset@rml@@YA_NPEAVMemoryPool@1@@Z 0000000180012130 f   frontend.obj
 0001:00011160       ?pool_free@rml@@YA_NPEAVMemoryPool@1@PEAX@Z 0000000180012160 f   frontend.obj
 0001:00011190       ?pool_identify@rml@@YAPEAVMemoryPool@1@PEAX@Z 0000000180012190 f   frontend.obj
 0001:00011230       ?pool_msize@rml@@YA_KPEAVMemoryPool@1@PEAX@Z 0000000180012230 f   frontend.obj
 0001:000112a0       __TBB_mallocProcessShutdownNotification 00000001800122a0 f   frontend.obj
 0001:000112f0       __TBB_mallocThreadShutdownNotification 00000001800122f0 f   frontend.obj
 0001:00011320       ?init@TLSKey@internal@rml@@QEAA_NXZ 0000000180012320 f   frontend.obj
 0001:00011360       ?destroy@TLSKey@internal@rml@@QEAA_NXZ 0000000180012360 f   frontend.obj
 0001:000113f0       ?createTLS@TLSKey@internal@rml@@QEAAPEAVTLSData@23@PEAVMemoryPool@23@PEAVBackend@23@@Z 00000001800123f0 f   frontend.obj
 0001:000114f0       ?registerThread@AllLocalCaches@internal@rml@@QEAAXPEAUTLSRemote@23@@Z 00000001800124f0 f   frontend.obj
 0001:000115e0       ?unregisterThread@AllLocalCaches@internal@rml@@QEAAXPEAUTLSRemote@23@@Z 00000001800125e0 f   frontend.obj
 0001:000116f0       ?cleanup@AllLocalCaches@internal@rml@@QEAA_NPEAUExtMemoryPool@23@_N@Z 00000001800126f0 f   frontend.obj
 0001:000117a0       ?markUnused@AllLocalCaches@internal@rml@@QEAAXXZ 00000001800127a0 f   frontend.obj
 0001:00011830       ?get@OrphanedBlocks@internal@rml@@QEAAPEAVBlock@23@PEAVTLSData@23@I@Z 0000000180012830 f   frontend.obj
 0001:000118d0       ?put@OrphanedBlocks@internal@rml@@QEAAX_JPEAVBlock@23@@Z 00000001800128d0 f   frontend.obj
 0001:00011960       ?reset@OrphanedBlocks@internal@rml@@QEAAXXZ 0000000180012960 f   frontend.obj
 0001:000119c0       ?cleanup@OrphanedBlocks@internal@rml@@QEAA_NPEAVBackend@23@@Z 00000001800129c0 f   frontend.obj
 0001:00011b80       ?initReadEnv@AllocControlledMode@internal@rml@@QEAAXPEBD_J@Z 0000000180012b80 f   frontend.obj
 0001:00011c00       ?init@ExtMemoryPool@internal@rml@@QEAA_N_JP6APEAX0AEA_K@ZP6AH0PEAX_K@Z4_N6@Z 0000000180012c00 f   frontend.obj
 0001:00011d10       ?initTLS@ExtMemoryPool@internal@rml@@QEAA_NXZ 0000000180012d10 f   frontend.obj
 0001:00011d40       ?releaseAllLocalCaches@ExtMemoryPool@internal@rml@@QEAA_NXZ 0000000180012d40 f   frontend.obj
 0001:00011dd0       ?isMallocInitializedExt@internal@rml@@YA_NXZ 0000000180012dd0 f   frontend.obj
 0001:00011ed0       ?allocate@BootStrapBlocks@internal@rml@@QEAAPEAXPEAVMemoryPool@23@_K@Z 0000000180012ed0 f   frontend.obj
 0001:00012080       ?free@BootStrapBlocks@internal@rml@@QEAAXPEAX@Z 0000000180013080 f   frontend.obj
 0001:00012100       ?reset@BootStrapBlocks@internal@rml@@QEAAXXZ 0000000180013100 f   frontend.obj
 0001:00012140       ?initDefaultPool@MemoryPool@internal@rml@@SAXXZ 0000000180013140 f   frontend.obj
 0001:00012160       ?init@MemoryPool@internal@rml@@QEAA_N_JPEBUMemPoolPolicy@3@@Z 0000000180013160 f   frontend.obj
 0001:00012290       ?reset@MemoryPool@internal@rml@@QEAA_NXZ 0000000180013290 f   frontend.obj
 0001:00012370       ?destroy@MemoryPool@internal@rml@@QEAA_NXZ 0000000180013370 f   frontend.obj
 0001:00012480       ?onThreadShutdown@MemoryPool@internal@rml@@QEAAXPEAVTLSData@23@@Z 0000000180013480 f   frontend.obj
 0001:000124e0       ?getEmptyBlock@MemoryPool@internal@rml@@QEAAPEAVBlock@23@_K@Z 00000001800134e0 f   frontend.obj
 0001:00012870       ?returnEmptyBlock@MemoryPool@internal@rml@@QEAAXPEAVBlock@23@_N@Z 0000000180013870 f   frontend.obj
 0001:00012910       ?getFromLLOCache@MemoryPool@internal@rml@@QEAAPEAXPEAVTLSData@23@_K1@Z 0000000180013910 f   frontend.obj
 0001:00012c80       ?putToLLOCache@MemoryPool@internal@rml@@QEAAXPEAVTLSData@23@PEAX@Z 0000000180013c80 f   frontend.obj
 0001:00012d20       ?freePublicObject@Block@internal@rml@@QEAAXPEAUFreeObject@23@@Z 0000000180013d20 f   frontend.obj
 0001:00012e40       ?reset@Block@internal@rml@@QEAAXXZ 0000000180013e40 f   frontend.obj
 0001:00012f00       ?privatizePublicFreeList@Block@internal@rml@@QEAAX_N@Z 0000000180013f00 f   frontend.obj
 0001:00013140       ?restoreBumpPtr@Block@internal@rml@@QEAAXXZ 0000000180014140 f   frontend.obj
 0001:000131e0       ?privatizeOrphaned@Block@internal@rml@@QEAAXPEAVTLSData@23@I@Z 00000001800141e0 f   frontend.obj
 0001:00013310       ?shareOrphaned@Block@internal@rml@@QEAAX_JI@Z 0000000180014310 f   frontend.obj
 0001:00013450       ?initEmptyBlock@Block@internal@rml@@QEAAXPEAVTLSData@23@_K@Z 0000000180014450 f   frontend.obj
 0001:00013510       ?findObjectSize@Block@internal@rml@@QEBA_KPEAX@Z 0000000180014510 f   frontend.obj
 0001:000135a0       ?cleanBlockHeader@Block@internal@rml@@IEAAXXZ 00000001800145a0 f   frontend.obj
 0001:00013640       ?getPublicFreeListBlock@Bin@internal@rml@@QEAAPEAVBlock@23@XZ 0000000180014640 f   frontend.obj
 0001:00013800       ?moveBlockToFront@Bin@internal@rml@@QEAAXPEAVBlock@23@@Z 0000000180014800 f   frontend.obj
 0001:00013850       ?processLessUsedBlock@Bin@internal@rml@@QEAAXPEAVMemoryPool@23@PEAVBlock@23@@Z 0000000180014850 f   frontend.obj
 0001:000138b0       ?outofTLSBin@Bin@internal@rml@@QEAAXPEAVBlock@23@@Z 00000001800148b0 f   frontend.obj
 0001:00013a80       ?verifyTLSBin@Bin@internal@rml@@QEBAX_K@Z 0000000180014a80 f   frontend.obj
 0001:00013b20       ?pushTLSBin@Bin@internal@rml@@QEAAXPEAVBlock@23@@Z 0000000180014b20 f   frontend.obj
 0001:00013cb0       ?getBlock@FreeBlockPool@internal@rml@@QEAA?AVResOfGet@123@XZ 0000000180014cb0 f   frontend.obj
 0001:00013d50       ?returnBlock@FreeBlockPool@internal@rml@@QEAAXPEAVBlock@23@@Z 0000000180014d50 f   frontend.obj
 0001:00013ed0       ?externalCleanup@FreeBlockPool@internal@rml@@QEAA_NXZ 0000000180014ed0 f   frontend.obj
 0001:00013f70       ?release@TLSData@internal@rml@@QEAAXPEAVMemoryPool@23@@Z 0000000180014f70 f   frontend.obj
 0001:00014120       ?cleanUnusedActiveBlocks@TLSData@internal@rml@@QEAA_NPEAVBackend@23@_N@Z 0000000180015120 f   frontend.obj
 0001:00014670       ??$getSmallObjectIndex@$0A@@internal@rml@@YAII@Z 0000000180015670 f   frontend.obj
 0001:00014ac0       MallocInitializeITT        0000000180015ac0 f   frontend.obj
 0001:000155c0       ?pool_create@rml@@YAPEAVMemoryPool@1@_JPEBUMemPoolPolicy@1@@Z 00000001800165c0 f   frontend.obj
 0001:00015620       ?doThreadShutdownNotification@@YAXPEAVTLSData@internal@rml@@_N@Z 0000000180016620 f   frontend.obj
 0001:00015720       ??$isLargeObject@$00@internal@rml@@YA_NPEAX@Z 0000000180016720 f i frontend.obj
 0001:00015800       ??$isLargeObject@$0A@@internal@rml@@YA_NPEAX@Z 0000000180016800 f i frontend.obj
 0001:000158e0       ??$is_aligned@$$CBX@internal@tbb@@YA_NPEBX_K@Z 00000001800168e0 f i frontend.obj
 0001:00015920       ??$is_aligned@UFreeObject@internal@rml@@@internal@tbb@@YA_NPEAUFreeObject@0rml@@_K@Z 0000000180016920 f i frontend.obj
 0001:00015960       ??$is_aligned@VBlockI@internal@rml@@@internal@tbb@@YA_NPEAVBlockI@0rml@@_K@Z 0000000180016960 f i frontend.obj
 0001:000159a0       ??$is_aligned@VMemoryPool@internal@rml@@@internal@tbb@@YA_NPEAVMemoryPool@0rml@@_K@Z 00000001800169a0 f i frontend.obj
 0001:000159e0       ??$is_aligned@X@internal@tbb@@YA_NPEAX_K@Z 00000001800169e0 f i frontend.obj
 0001:00015a20       ??$is_power_of_two@_K@internal@tbb@@YA_N_K@Z 0000000180016a20 f i frontend.obj
 0001:00015a70       ??$is_power_of_two_at_least@_K_K@internal@tbb@@YA_N_K0@Z 0000000180016a70 f i frontend.obj
 0001:00015af0       ??$releaseAll@$00@AllLargeBlocksList@internal@rml@@QEAAXPEAVBackend@12@@Z 0000000180016af0 f i frontend.obj
 0001:00015b90       ??$releaseAll@$0A@@AllLargeBlocksList@internal@rml@@QEAAXPEAVBackend@12@@Z 0000000180016b90 f i frontend.obj
 0001:00015c30       ??$suppress_unused_warning@PEAVTLSData@internal@rml@@@internal@rml@@YAXAEBQEAVTLSData@01@@Z 0000000180016c30 f i frontend.obj
 0001:00015c40       ??0Bin@internal@rml@@QEAA@XZ 0000000180016c40 f i frontend.obj
 0001:00015c70       ??0FreeBlockPool@internal@rml@@QEAA@PEAVBackend@12@@Z 0000000180016c70 f i frontend.obj
 0001:00015c90       ??0HugePagesStatus@internal@rml@@QEAA@XZ 0000000180016c90 f i frontend.obj
 0001:00015cc0       ??0LifoList@internal@rml@@QEAA@XZ 0000000180016cc0 f i frontend.obj
 0001:00015d10       ??0MemPoolPolicy@rml@@QEAA@P6APEAX_JAEA_K@ZP6AH0PEAX_K@Z4_N6@Z 0000000180016d10 f i frontend.obj
 0001:00015dc0       ??0RecursiveMallocCallProtector@internal@rml@@QEAA@XZ 0000000180016dc0 f i frontend.obj
 0001:00015dd0       ??0ResOfGet@FreeBlockPool@internal@rml@@QEAA@PEAVBlock@23@_N@Z 0000000180016dd0 f i frontend.obj
 0001:00015e00       ??0TLSData@internal@rml@@QEAA@PEAVMemoryPool@12@PEAVBackend@12@@Z 0000000180016e00 f i frontend.obj
 0001:00015e70       ??0ThreadId@internal@rml@@QEAA@XZ 0000000180016e70 f i frontend.obj
 0001:00015e90       ??1RecursiveMallocCallProtector@internal@rml@@QEAA@XZ 0000000180016e90 f i frontend.obj
 0001:00015ea0       ??_H@YAXPEAX_K1P6APEAX0@Z@Z 0000000180016ea0 f i frontend.obj
 0001:00015f00       ?AtomicFetchStore@@YA_KPECX_K@Z 0000000180016f00 f i frontend.obj
 0001:00015f30       ?activeBlockUnused@Bin@internal@rml@@QEBA_NXZ 0000000180016f30 f i frontend.obj
 0001:00015f70       ?alignToBin@LargeObjectCache@internal@rml@@SA_K_K@Z 0000000180016f70 f i frontend.obj
 0001:00015fc0       ?allocate@Block@internal@rml@@QEAAPEAUFreeObject@23@XZ 0000000180016fc0 f i frontend.obj
 0001:000160a0       ?allocateFromBumpPtr@Block@internal@rml@@AEAAPEAUFreeObject@23@XZ 00000001800170a0 f i frontend.obj
 0001:00016170       ?allocateFromFreeList@Block@internal@rml@@QEAAPEAUFreeObject@23@XZ 0000000180017170 f i frontend.obj
 0001:00016240       ?checkFreePrecond@Block@internal@rml@@QEBAXPEBX@Z 0000000180017240 f i frontend.obj
 0001:00016450       ?clearTLS@MemoryPool@internal@rml@@QEAAXXZ 0000000180017450 f i frontend.obj
 0001:00016480       ?delayRegionsReleasing@ExtMemoryPool@internal@rml@@QEAAX_N@Z 0000000180017480 f i frontend.obj
 0001:000164a0       ?destroy@ExtMemoryPool@internal@rml@@QEAA_NXZ 00000001800174a0 f i frontend.obj
 0001:00016590       ?doPrintStatus@HugePagesStatus@internal@rml@@CAX_NPEBD@Z 0000000180017590 f i frontend.obj
 0001:00016620       ?do_yield@@YAXXZ           0000000180017620 f i frontend.obj
 0001:00016630       ?empty@Block@internal@rml@@QEBA_NXZ 0000000180017630 f i frontend.obj
 0001:00016680       ?emptyEnoughToUse@Block@internal@rml@@QEAA_NXZ 0000000180017680 f i frontend.obj
 0001:00016720       ?externalCleanup@?$LocalLOCImpl@$07$0CA@@internal@rml@@QEAA_NPEAUExtMemoryPool@23@@Z 0000000180017720 f i frontend.obj
 0001:00016770       ?externalCleanup@TLSData@internal@rml@@QEAA_NPEAUExtMemoryPool@23@_N@Z 0000000180017770 f i frontend.obj
 0001:000167e0       ?findAllocatedObject@Block@internal@rml@@AEBAPEAUFreeObject@23@PEBX@Z 00000001800177e0 f i frontend.obj
 0001:00016890       ?findObjectToFree@Block@internal@rml@@QEBAPEAUFreeObject@23@PEBX@Z 0000000180017890 f i frontend.obj
 0001:00016960       ?freeListNonNull@Block@internal@rml@@QEAA_NXZ 0000000180017960 f i frontend.obj
 0001:00016990       ?freeOwnObject@Block@internal@rml@@QEAAXPEAX@Z 0000000180017990 f i frontend.obj
 0001:00016b00       ?get@?$LocalLOCImpl@$07$0CA@@internal@rml@@QEAAPEAULargeMemoryBlock@23@_K@Z 0000000180017b00 f i frontend.obj
 0001:00016c60       ?getActiveBlock@Bin@internal@rml@@QEBAPEAVBlock@23@XZ 0000000180017c60 f i frontend.obj
 0001:00016c70       ?getAllocationBin@TLSData@internal@rml@@QEAAPEAVBin@23@_K@Z 0000000180017c70 f i frontend.obj
 0001:00016ca0       ?getBackRefIdx@Block@internal@rml@@QEBAPEBVBackRefIdx@23@XZ 0000000180017ca0 f i frontend.obj
 0001:00016cb0       ?getMemPool@Block@internal@rml@@QEBAPEAVMemoryPool@23@XZ 0000000180017cb0 f i frontend.obj
 0001:00016cc0       ?getSize@Block@internal@rml@@QEBAIXZ 0000000180017cc0 f i frontend.obj
 0001:00016d40       ?getSlabBlock@Backend@internal@rml@@QEAAPEAVBlockI@23@H@Z 0000000180017d40 f i frontend.obj
 0001:00016db0       ?getTLS@MemoryPool@internal@rml@@QEAAPEAVTLSData@23@_N@Z 0000000180017db0 f i frontend.obj
 0001:00016e20       ?getThreadMallocTLS@TLSKey@internal@rml@@QEBAPEAVTLSData@23@XZ 0000000180017e20 f i frontend.obj
 0001:00016e40       ?grab@LifoList@internal@rml@@QEAAPEAVBlock@23@XZ 0000000180017e40 f i frontend.obj
 0001:00016ea0       ?inRange@UsedAddressRange@Backend@internal@rml@@QEBA_NPEAX@Z 0000000180017ea0 f i frontend.obj
 0001:00016ef0       ?init@CacheBin@?$LargeObjectCacheImpl@U?$LargeObjectCacheProps@$0CAAA@$0IAAAAA@$0CAAA@$01$01$0BA@@internal@rml@@@internal@rml@@QEAAXXZ 0000000180017ef0 f i frontend.obj
 0001:00016f10       ?init@CacheBin@?$LargeObjectCacheImpl@U?$LargeObjectCacheProps@$0IAAAAA@$0IBAAAAA@$0IAAAA@$00$00$03@internal@rml@@@internal@rml@@QEAAXXZ 0000000180017f10 f i frontend.obj
 0001:00016f30       ?init@HugePagesStatus@internal@rml@@QEAAXXZ 0000000180017f30 f i frontend.obj
 0001:00016fe0       ?init@LargeObjectCache@internal@rml@@QEAAXPEAUExtMemoryPool@23@@Z 0000000180017fe0 f i frontend.obj
 0001:00017000       ?init@ShutdownSync@internal@rml@@QEAAXXZ 0000000180018000 f i frontend.obj
 0001:00017010       ?init@ThreadId@internal@rml@@SA_NXZ 0000000180018010 f i frontend.obj
 0001:00017020       ?isCurrentThreadId@ThreadId@internal@rml@@QEBA_NXZ 0000000180018020 f i frontend.obj
 0001:00017060       ?isLargeObject@BackRefIdx@internal@rml@@QEBA_NXZ 0000000180018060 f i frontend.obj
 0001:00017080       ?isMallocInitialized@internal@rml@@YA_NXZ 0000000180018080 f i frontend.obj
 0001:000170c0       ?isNotForUse@internal@rml@@YA_NPEAX@Z 00000001800180c0 f i frontend.obj
 0001:000170f0       ?isOwnedByCurrentThread@Block@internal@rml@@QEBA_NXZ 00000001800180f0 f i frontend.obj
 0001:00017140       ?isPoolValid@ExtMemoryPool@internal@rml@@QEBA_NXZ 0000000180018140 f i frontend.obj
 0001:00017170       ?isProperlyPlaced@Block@internal@rml@@AEBA_NPEBX@Z 0000000180018170 f i frontend.obj
 0001:000171c0       ?isSolidPtr@internal@rml@@YA_NPEAX@Z 00000001800181c0 f i frontend.obj
 0001:00017200       ?isStartupAllocObject@Block@internal@rml@@QEBA_NXZ 0000000180018200 f i frontend.obj
 0001:00017240       ?markOrphaned@Block@internal@rml@@AEAAXXZ 0000000180018240 f i frontend.obj
 0001:00017290       ?markOwned@Block@internal@rml@@AEAAXPEAVTLSData@23@@Z 0000000180018290 f i frontend.obj
 0001:000172f0       ?markUnused@TLSData@internal@rml@@QEAAXXZ 00000001800182f0 f i frontend.obj
 0001:00017310       ?markUsed@TLSData@internal@rml@@QEAAXXZ 0000000180018310 f i frontend.obj
 0001:00017330       ?parseSystemMemInfo@HugePagesStatus@internal@rml@@AEAAXXZ 0000000180018330 f i frontend.obj
 0001:000173b0       ?pop@LifoList@internal@rml@@QEAAPEAVBlock@23@XZ 00000001800183b0 f i frontend.obj
 0001:00017420       ?printStatus@HugePagesStatus@internal@rml@@QEAAXXZ 0000000180018420 f i frontend.obj
 0001:000174b0       ?processExit@ShutdownSync@internal@rml@@QEAAXXZ 00000001800184b0 f i frontend.obj
 0001:000174c0       ?ptrCanBeValid@Backend@internal@rml@@QEBA_NPEAX@Z 00000001800184c0 f i frontend.obj
 0001:000174f0       ?push@LifoList@internal@rml@@QEAAXPEAVBlock@23@@Z 00000001800184f0 f i frontend.obj
 0001:00017550       ?put@?$LocalLOCImpl@$07$0CA@@internal@rml@@QEAA_NPEAULargeMemoryBlock@23@PEAUExtMemoryPool@23@@Z 0000000180018550 f i frontend.obj
 0001:00017700       ?putSlabBlock@Backend@internal@rml@@QEAAXPEAVBlockI@23@@Z 0000000180018700 f i frontend.obj
 0001:00017730       ?reset@?$BitMaskBasic@$0DPP@@internal@rml@@QEAAXXZ 0000000180018730 f i frontend.obj
 0001:00017770       ?reset@?$BitMaskBasic@$0PC@@internal@rml@@QEAAXXZ 0000000180018770 f i frontend.obj
 0001:000177b0       ?reset@?$LargeObjectCacheImpl@U?$LargeObjectCacheProps@$0CAAA@$0IAAAAA@$0CAAA@$01$01$0BA@@internal@rml@@@internal@rml@@QEAAXXZ 00000001800187b0 f i frontend.obj
 0001:00017820       ?reset@?$LargeObjectCacheImpl@U?$LargeObjectCacheProps@$0IAAAAA@$0IBAAAAA@$0IAAAA@$00$00$03@internal@rml@@@internal@rml@@QEAAXXZ 0000000180018820 f i frontend.obj
 0001:00017890       ?reset@AllLocalCaches@internal@rml@@QEAAXXZ 0000000180018890 f i frontend.obj
 0001:000178b0       ?reset@ExtMemoryPool@internal@rml@@QEAA_NXZ 00000001800188b0 f i frontend.obj
 0001:00017920       ?reset@LargeObjectCache@internal@rml@@QEAAXXZ 0000000180018920 f i frontend.obj
 0001:00017950       ?resetActiveBlock@Bin@internal@rml@@QEAAXXZ 0000000180018950 f i frontend.obj
 0001:00017970       ?setActiveBlock@Bin@internal@rml@@QEAAXPEAVBlock@23@@Z 0000000180018970 f i frontend.obj
 0001:000179c0       ?setPreviousBlockActive@Bin@internal@rml@@QEAAPEAVBlock@23@XZ 00000001800189c0 f i frontend.obj
 0001:00017a50       ?setRecommendedMaxSize@Backend@internal@rml@@QEAAX_K@Z 0000000180018a50 f i frontend.obj
 0001:00017a80       ?setThreadMallocTLS@TLSKey@internal@rml@@QEAAXPEAVTLSData@23@@Z 0000000180018a80 f i frontend.obj
 0001:00017ac0       ?verifyInitState@Bin@internal@rml@@QEBAXXZ 0000000180018ac0 f i frontend.obj
 0001:00017b1f       SwitchToThread             0000000180018b1f f   kernel32:KERNEL32.dll
 0001:00017b25       VirtualAlloc               0000000180018b25 f   kernel32:KERNEL32.dll
 0001:00017b2b       VirtualFree                0000000180018b2b f   kernel32:KERNEL32.dll
 0001:00017b31       SetErrorMode               0000000180018b31 f   kernel32:KERNEL32.dll
 0001:00017b37       GetModuleHandleExA         0000000180018b37 f   kernel32:KERNEL32.dll
 0001:00017b3d       GetEnvironmentVariableA    0000000180018b3d f   kernel32:KERNEL32.dll
 0001:00017b43       GetLastError               0000000180018b43 f   kernel32:KERNEL32.dll
 0001:00017b49       InitializeCriticalSection  0000000180018b49 f   kernel32:KERNEL32.dll
 0001:00017b4f       EnterCriticalSection       0000000180018b4f f   kernel32:KERNEL32.dll
 0001:00017b55       LeaveCriticalSection       0000000180018b55 f   kernel32:KERNEL32.dll
 0001:00017b5b       GetCurrentThreadId         0000000180018b5b f   kernel32:KERNEL32.dll
 0001:00017b61       GetProcAddress             0000000180018b61 f   kernel32:KERNEL32.dll
 0001:00017b67       lstrcmpA                   0000000180018b67 f   kernel32:KERNEL32.dll
 0001:00017b6d       LoadLibraryA               0000000180018b6d f   kernel32:KERNEL32.dll
 0001:00017b73       TlsAlloc                   0000000180018b73 f   kernel32:KERNEL32.dll
 0001:00017b79       TlsGetValue                0000000180018b79 f   kernel32:KERNEL32.dll
 0001:00017b7f       TlsSetValue                0000000180018b7f f   kernel32:KERNEL32.dll
 0001:00017b85       TlsFree                    0000000180018b85 f   kernel32:KERNEL32.dll
 0001:00017b90       __raise_securityfailure    0000000180018b90 f   MSVCRTD:gs_report.obj
 0001:00017bd0       __report_gsfailure         0000000180018bd0 f   MSVCRTD:gs_report.obj
 0001:00017cb0       __report_rangecheckfailure 0000000180018cb0 f   MSVCRTD:gs_report.obj
 0001:00017cd0       __report_securityfailure   0000000180018cd0 f   MSVCRTD:gs_report.obj
 0001:00017d70       __report_securityfailureEx 0000000180018d70 f   MSVCRTD:gs_report.obj
 0001:00017fe0       __GSHandlerCheck           0000000180018fe0 f   MSVCRTD:gshandler.obj
 0001:00018020       __GSHandlerCheckCommon     0000000180019020 f   MSVCRTD:gshandler.obj
 0001:00018130       __security_check_cookie    0000000180019130 f   MSVCRTD:amdsecgs.obj
 0001:00018550       _CRT_INIT                  0000000180019550 f   MSVCRTD:dll_dllmain.obj
 0001:00018580       _DllMainCRTStartup         0000000180019580 f   MSVCRTD:dll_dllmain.obj
 0001:00018680       __security_init_cookie     0000000180019680 f   MSVCRTD:gs_support.obj
 0001:00018700       ?__scrt_initialize_type_info@@YAXXZ 0000000180019700 f   MSVCRTD:tncleanup.obj
 0001:00018720       ?__scrt_uninitialize_type_info@@YAXXZ 0000000180019720 f   MSVCRTD:tncleanup.obj
 0001:00018740       __local_stdio_scanf_options 0000000180019740 f i MSVCRTD:default_local_stdio_options.obj
 0001:00018750       __scrt_initialize_default_local_stdio_options 0000000180019750 f   MSVCRTD:default_local_stdio_options.obj
 0001:000187a0       ??$__crt_fast_decode_pointer@PEAP6AXXZ@@YAPEAP6AXXZQEAP6AXXZ@Z 00000001800197a0 f i MSVCRTD:utility.obj
 0001:000187e0       ??$__crt_fast_encode_pointer@PEAP6AXXZ@@YAPEAP6AXXZQEAP6AXXZ@Z 00000001800197e0 f i MSVCRTD:utility.obj
 0001:00018820       ?__crt_rotate_pointer_value@@YA_K_KH@Z 0000000180019820 f i MSVCRTD:utility.obj
 0001:00018840       ?configure_argv@__scrt_narrow_argv_policy@@SAHXZ 0000000180019840 f i MSVCRTD:utility.obj
 0001:00018930       ?initialize_environment@__scrt_narrow_environment_policy@@SAHXZ 0000000180019930 f i MSVCRTD:utility.obj
 0001:000189d0       NtCurrentTeb               00000001800199d0 f i MSVCRTD:utility.obj
 0001:000189e0       __scrt_acquire_startup_lock 00000001800199e0 f   MSVCRTD:utility.obj
 0001:00018a50       __scrt_dllmain_after_initialize_c 0000000180019a50 f   MSVCRTD:utility.obj
 0001:00018a80       __scrt_dllmain_before_initialize_c 0000000180019a80 f   MSVCRTD:utility.obj
 0001:00018aa0       __scrt_dllmain_crt_thread_attach 0000000180019aa0 f   MSVCRTD:utility.obj
 0001:00018ad0       __scrt_dllmain_crt_thread_detach 0000000180019ad0 f   MSVCRTD:utility.obj
 0001:00018af0       __scrt_dllmain_exception_filter 0000000180019af0 f   MSVCRTD:utility.obj
 0001:00018b50       __scrt_dllmain_uninitialize_c 0000000180019b50 f   MSVCRTD:utility.obj
 0001:00018b80       __scrt_dllmain_uninitialize_critical 0000000180019b80 f   MSVCRTD:utility.obj
 0001:00018ba0       __scrt_initialize_crt      0000000180019ba0 f   MSVCRTD:utility.obj
 0001:00018bf0       __scrt_initialize_onexit_tables 0000000180019bf0 f   MSVCRTD:utility.obj
 0001:00018d00       __scrt_is_nonwritable_in_current_image 0000000180019d00 f   MSVCRTD:utility.obj
 0001:00018d90       __scrt_release_startup_lock 0000000180019d90 f   MSVCRTD:utility.obj
 0001:00018dc0       __scrt_uninitialize_crt    0000000180019dc0 f   MSVCRTD:utility.obj
 0001:00018e00       _onexit                    0000000180019e00 f   MSVCRTD:utility.obj
 0001:00018e90       at_quick_exit              0000000180019e90 f   MSVCRTD:utility.obj
 0001:00018ee0       atexit                     0000000180019ee0 f   MSVCRTD:utility.obj
 0001:00018f20       __scrt_get_dyn_tls_init_callback 0000000180019f20 f   MSVCRTD:dyn_tls_init.obj
 0001:00018f30       __crt_debugger_hook        0000000180019f30 f   MSVCRTD:utility_desktop.obj
 0001:00018f40       __scrt_fastfail            0000000180019f40 f   MSVCRTD:utility_desktop.obj
 0001:000190e0       __scrt_get_show_window_mode 000000018001a0e0 f   MSVCRTD:utility_desktop.obj
 0001:00019140       __scrt_initialize_mta      000000018001a140 f   MSVCRTD:utility_desktop.obj
 0001:00019150       __scrt_initialize_winrt    000000018001a150 f   MSVCRTD:utility_desktop.obj
 0001:00019160       __scrt_is_managed_app      000000018001a160 f   MSVCRTD:utility_desktop.obj
 0001:00019210       __scrt_set_unhandled_exception_filter 000000018001a210 f   MSVCRTD:utility_desktop.obj
 0001:00019230       __scrt_stub_for_initialize_mta 000000018001a230 f   MSVCRTD:utility_desktop.obj
 0001:00019230       __scrt_exe_initialize_mta  000000018001a230 f   MSVCRTD:utility_desktop.obj
 0001:00019240       __scrt_unhandled_exception_filter 000000018001a240 f   MSVCRTD:utility_desktop.obj
 0001:000192c0       _RTC_Initialize            000000018001a2c0 f   MSVCRTD:initsect.obj
 0001:00019310       _RTC_Terminate             000000018001a310 f   MSVCRTD:initsect.obj
 0001:00019360       _guard_check_icall_nop     000000018001a360 f i MSVCRTD:guard_support.obj
 0001:00019370       ReadNoFence64              000000018001a370 f i MSVCRTD:guard_support.obj
 0001:00019390       ReadPointerNoFence         000000018001a390 f i MSVCRTD:guard_support.obj
 0001:000193b0       _guard_icall_checks_enforced 000000018001a3b0 f i MSVCRTD:guard_support.obj
 0001:000193f0       _guard_rf_checks_enforced  000000018001a3f0 f i MSVCRTD:guard_support.obj
 0001:00019400       __isa_available_init       000000018001a400 f   MSVCRTD:cpu_disp.obj
 0001:00019770       _get_startup_argv_mode     000000018001a770 f   MSVCRTD:argv_mode.obj
 0001:00019780       __scrt_is_ucrt_dll_in_use  000000018001a780 f   MSVCRTD:ucrt_detection.obj
 0001:000197b0       __CxxFrameHandler3         000000018001a7b0 f   vcruntimed:VCRUNTIME140D.dll
 0001:000197b6       memset                     000000018001a7b6 f   vcruntimed:VCRUNTIME140D.dll
 0001:000197bc       memcpy                     000000018001a7bc f   vcruntimed:VCRUNTIME140D.dll
 0001:000197c2       __C_specific_handler       000000018001a7c2 f   vcruntimed:VCRUNTIME140D.dll
 0001:000197c8       __std_type_info_destroy_list 000000018001a7c8 f   vcruntimed:VCRUNTIME140D.dll
 0001:000197ce       _errno                     000000018001a7ce f   ucrtd:ucrtbased.dll
 0001:000197d4       malloc                     000000018001a7d4 f   ucrtd:ucrtbased.dll
 0001:000197da       _CrtDbgReport              000000018001a7da f   ucrtd:ucrtbased.dll
 0001:000197e0       __acrt_iob_func            000000018001a7e0 f   ucrtd:ucrtbased.dll
 0001:000197e6       __stdio_common_vfprintf    000000018001a7e6 f   ucrtd:ucrtbased.dll
 0001:000197ec       _wcsdup                    000000018001a7ec f   ucrtd:ucrtbased.dll
 0001:000197f2       wcscmp                     000000018001a7f2 f   ucrtd:ucrtbased.dll
 0001:000197f8       strncpy_s                  000000018001a7f8 f   ucrtd:ucrtbased.dll
 0001:000197fe       _strdup                    000000018001a7fe f   ucrtd:ucrtbased.dll
 0001:00019804       getenv                     000000018001a804 f   ucrtd:ucrtbased.dll
 0001:0001980a       fputs                      000000018001a80a f   ucrtd:ucrtbased.dll
 0001:00019810       strcmp                     000000018001a810 f   ucrtd:ucrtbased.dll
 0001:00019816       strspn                     000000018001a816 f   ucrtd:ucrtbased.dll
 0001:0001981c       _initterm                  000000018001a81c f   ucrtd:ucrtbased.dll
 0001:00019822       _initterm_e                000000018001a822 f   ucrtd:ucrtbased.dll
 0001:00019828       _seh_filter_dll            000000018001a828 f   ucrtd:ucrtbased.dll
 0001:0001982e       _configure_narrow_argv     000000018001a82e f   ucrtd:ucrtbased.dll
 0001:00019834       _initialize_narrow_environment 000000018001a834 f   ucrtd:ucrtbased.dll
 0001:0001983a       _initialize_onexit_table   000000018001a83a f   ucrtd:ucrtbased.dll
 0001:00019840       _register_onexit_function  000000018001a840 f   ucrtd:ucrtbased.dll
 0001:00019846       _execute_onexit_table      000000018001a846 f   ucrtd:ucrtbased.dll
 0001:0001984c       _crt_atexit                000000018001a84c f   ucrtd:ucrtbased.dll
 0001:00019852       _crt_at_quick_exit         000000018001a852 f   ucrtd:ucrtbased.dll
 0001:00019858       _cexit                     000000018001a858 f   ucrtd:ucrtbased.dll
 0001:0001985e       terminate                  000000018001a85e f   ucrtd:ucrtbased.dll
 0001:00019864       RtlCaptureContext          000000018001a864 f   kernel32:KERNEL32.dll
 0001:0001986a       RtlLookupFunctionEntry     000000018001a86a f   kernel32:KERNEL32.dll
 0001:00019870       RtlVirtualUnwind           000000018001a870 f   kernel32:KERNEL32.dll
 0001:00019876       UnhandledExceptionFilter   000000018001a876 f   kernel32:KERNEL32.dll
 0001:0001987c       SetUnhandledExceptionFilter 000000018001a87c f   kernel32:KERNEL32.dll
 0001:00019882       GetCurrentProcess          000000018001a882 f   kernel32:KERNEL32.dll
 0001:00019888       TerminateProcess           000000018001a888 f   kernel32:KERNEL32.dll
 0001:0001988e       IsProcessorFeaturePresent  000000018001a88e f   kernel32:KERNEL32.dll
 0001:00019894       QueryPerformanceCounter    000000018001a894 f   kernel32:KERNEL32.dll
 0001:0001989a       GetCurrentProcessId        000000018001a89a f   kernel32:KERNEL32.dll
 0001:000198a0       GetSystemTimeAsFileTime    000000018001a8a0 f   kernel32:KERNEL32.dll
 0001:000198a6       InitializeSListHead        000000018001a8a6 f   kernel32:KERNEL32.dll
 0001:000198ac       IsDebuggerPresent          000000018001a8ac f   kernel32:KERNEL32.dll
 0001:000198b2       GetStartupInfoW            000000018001a8b2 f   kernel32:KERNEL32.dll
 0001:000198b8       GetModuleHandleW           000000018001a8b8 f   kernel32:KERNEL32.dll
 0001:000198c0       __scrt_stub_for_acrt_initialize 000000018001a8c0 f   MSVCRTD:ucrt_stubs.obj
 0001:000198c0       __acrt_initialize          000000018001a8c0 f   MSVCRTD:ucrt_stubs.obj
 0001:000198c0       __vcrt_initialize          000000018001a8c0 f   MSVCRTD:ucrt_stubs.obj
 0001:000198d0       __vcrt_thread_attach       000000018001a8d0 f   MSVCRTD:ucrt_stubs.obj
 0001:000198d0       __acrt_thread_attach       000000018001a8d0 f   MSVCRTD:ucrt_stubs.obj
 0001:000198d0       __scrt_stub_for_acrt_thread_attach 000000018001a8d0 f   MSVCRTD:ucrt_stubs.obj
 0001:000198e0       __acrt_thread_detach       000000018001a8e0 f   MSVCRTD:ucrt_stubs.obj
 0001:000198e0       __scrt_stub_for_acrt_thread_detach 000000018001a8e0 f   MSVCRTD:ucrt_stubs.obj
 0001:000198e0       __vcrt_thread_detach       000000018001a8e0 f   MSVCRTD:ucrt_stubs.obj
 0001:000198f0       __acrt_uninitialize        000000018001a8f0 f   MSVCRTD:ucrt_stubs.obj
 0001:000198f0       __scrt_stub_for_acrt_uninitialize 000000018001a8f0 f   MSVCRTD:ucrt_stubs.obj
 0001:000198f0       __vcrt_uninitialize        000000018001a8f0 f   MSVCRTD:ucrt_stubs.obj
 0001:00019900       __acrt_uninitialize_critical 000000018001a900 f   MSVCRTD:ucrt_stubs.obj
 0001:00019900       __vcrt_uninitialize_critical 000000018001a900 f   MSVCRTD:ucrt_stubs.obj
 0001:00019900       __scrt_stub_for_acrt_uninitialize_critical 000000018001a900 f   MSVCRTD:ucrt_stubs.obj
 0001:00019910       _is_c_termination_complete 000000018001a910 f   MSVCRTD:ucrt_stubs.obj
 0001:00019910       __scrt_stub_for_is_c_termination_complete 000000018001a910 f   MSVCRTD:ucrt_stubs.obj
 0001:00019930       _guard_dispatch_icall_nop  000000018001a930 f   MSVCRTD:guard_dispatch.obj
 0002:00000000       __imp_SwitchToThread       000000018001b000     kernel32:KERNEL32.dll
 0002:00000008       __imp_VirtualAlloc         000000018001b008     kernel32:KERNEL32.dll
 0002:00000010       __imp_VirtualFree          000000018001b010     kernel32:KERNEL32.dll
 0002:00000018       __imp_SetErrorMode         000000018001b018     kernel32:KERNEL32.dll
 0002:00000020       __imp_GetModuleHandleExA   000000018001b020     kernel32:KERNEL32.dll
 0002:00000028       __imp_GetEnvironmentVariableA 000000018001b028     kernel32:KERNEL32.dll
 0002:00000030       __imp_GetLastError         000000018001b030     kernel32:KERNEL32.dll
 0002:00000038       __imp_InitializeCriticalSection 000000018001b038     kernel32:KERNEL32.dll
 0002:00000040       __imp_EnterCriticalSection 000000018001b040     kernel32:KERNEL32.dll
 0002:00000048       __imp_LeaveCriticalSection 000000018001b048     kernel32:KERNEL32.dll
 0002:00000050       __imp_GetCurrentThreadId   000000018001b050     kernel32:KERNEL32.dll
 0002:00000058       __imp_GetProcAddress       000000018001b058     kernel32:KERNEL32.dll
 0002:00000060       __imp_lstrcmpA             000000018001b060     kernel32:KERNEL32.dll
 0002:00000068       __imp_LoadLibraryA         000000018001b068     kernel32:KERNEL32.dll
 0002:00000070       __imp_TlsAlloc             000000018001b070     kernel32:KERNEL32.dll
 0002:00000078       __imp_TlsGetValue          000000018001b078     kernel32:KERNEL32.dll
 0002:00000080       __imp_TlsSetValue          000000018001b080     kernel32:KERNEL32.dll
 0002:00000088       __imp_TlsFree              000000018001b088     kernel32:KERNEL32.dll
 0002:00000090       __imp_GetStartupInfoW      000000018001b090     kernel32:KERNEL32.dll
 0002:00000098       __imp_IsDebuggerPresent    000000018001b098     kernel32:KERNEL32.dll
 0002:000000a0       __imp_InitializeSListHead  000000018001b0a0     kernel32:KERNEL32.dll
 0002:000000a8       __imp_GetSystemTimeAsFileTime 000000018001b0a8     kernel32:KERNEL32.dll
 0002:000000b0       __imp_GetCurrentProcessId  000000018001b0b0     kernel32:KERNEL32.dll
 0002:000000b8       __imp_QueryPerformanceCounter 000000018001b0b8     kernel32:KERNEL32.dll
 0002:000000c0       __imp_IsProcessorFeaturePresent 000000018001b0c0     kernel32:KERNEL32.dll
 0002:000000c8       __imp_TerminateProcess     000000018001b0c8     kernel32:KERNEL32.dll
 0002:000000d0       __imp_GetCurrentProcess    000000018001b0d0     kernel32:KERNEL32.dll
 0002:000000d8       __imp_SetUnhandledExceptionFilter 000000018001b0d8     kernel32:KERNEL32.dll
 0002:000000e0       __imp_UnhandledExceptionFilter 000000018001b0e0     kernel32:KERNEL32.dll
 0002:000000e8       __imp_RtlVirtualUnwind     000000018001b0e8     kernel32:KERNEL32.dll
 0002:000000f0       __imp_RtlLookupFunctionEntry 000000018001b0f0     kernel32:KERNEL32.dll
 0002:000000f8       __imp_RtlCaptureContext    000000018001b0f8     kernel32:KERNEL32.dll
 0002:00000100       __imp_GetModuleHandleW     000000018001b100     kernel32:KERNEL32.dll
 0002:00000108       \177KERNEL32_NULL_THUNK_DATA 000000018001b108     kernel32:KERNEL32.dll
 0002:00000110       __imp___C_specific_handler 000000018001b110     vcruntimed:VCRUNTIME140D.dll
 0002:00000118       __imp___std_type_info_destroy_list 000000018001b118     vcruntimed:VCRUNTIME140D.dll
 0002:00000120       __imp_memcpy               000000018001b120     vcruntimed:VCRUNTIME140D.dll
 0002:00000128       __imp___CxxFrameHandler3   000000018001b128     vcruntimed:VCRUNTIME140D.dll
 0002:00000130       __imp_memset               000000018001b130     vcruntimed:VCRUNTIME140D.dll
 0002:00000138       \177VCRUNTIME140D_NULL_THUNK_DATA 000000018001b138     vcruntimed:VCRUNTIME140D.dll
 0002:00000140       __imp__seh_filter_dll      000000018001b140     ucrtd:ucrtbased.dll
 0002:00000148       __imp__configure_narrow_argv 000000018001b148     ucrtd:ucrtbased.dll
 0002:00000150       __imp__initialize_narrow_environment 000000018001b150     ucrtd:ucrtbased.dll
 0002:00000158       __imp__initialize_onexit_table 000000018001b158     ucrtd:ucrtbased.dll
 0002:00000160       __imp__register_onexit_function 000000018001b160     ucrtd:ucrtbased.dll
 0002:00000168       __imp__execute_onexit_table 000000018001b168     ucrtd:ucrtbased.dll
 0002:00000170       __imp__crt_atexit          000000018001b170     ucrtd:ucrtbased.dll
 0002:00000178       __imp__crt_at_quick_exit   000000018001b178     ucrtd:ucrtbased.dll
 0002:00000180       __imp__initterm            000000018001b180     ucrtd:ucrtbased.dll
 0002:00000188       __imp_terminate            000000018001b188     ucrtd:ucrtbased.dll
 0002:00000190       __imp_strspn               000000018001b190     ucrtd:ucrtbased.dll
 0002:00000198       __imp_wcscmp               000000018001b198     ucrtd:ucrtbased.dll
 0002:000001a0       __imp__wcsdup              000000018001b1a0     ucrtd:ucrtbased.dll
 0002:000001a8       __imp___stdio_common_vfprintf 000000018001b1a8     ucrtd:ucrtbased.dll
 0002:000001b0       __imp___acrt_iob_func      000000018001b1b0     ucrtd:ucrtbased.dll
 0002:000001b8       __imp__CrtDbgReport        000000018001b1b8     ucrtd:ucrtbased.dll
 0002:000001c0       __imp_malloc               000000018001b1c0     ucrtd:ucrtbased.dll
 0002:000001c8       __imp__errno               000000018001b1c8     ucrtd:ucrtbased.dll
 0002:000001d0       __imp__initterm_e          000000018001b1d0     ucrtd:ucrtbased.dll
 0002:000001d8       __imp_strcmp               000000018001b1d8     ucrtd:ucrtbased.dll
 0002:000001e0       __imp_fputs                000000018001b1e0     ucrtd:ucrtbased.dll
 0002:000001e8       __imp_getenv               000000018001b1e8     ucrtd:ucrtbased.dll
 0002:000001f0       __imp__cexit               000000018001b1f0     ucrtd:ucrtbased.dll
 0002:000001f8       __imp_strncpy_s            000000018001b1f8     ucrtd:ucrtbased.dll
 0002:00000200       __imp__strdup              000000018001b200     ucrtd:ucrtbased.dll
 0002:00000208       \177ucrtbased_NULL_THUNK_DATA 000000018001b208     ucrtd:ucrtbased.dll
 0002:00000210       __guard_check_icall_fptr   000000018001b210     MSVCRTD:guard_support.obj
 0002:00000218       __guard_dispatch_icall_fptr 000000018001b218     MSVCRTD:guard_support.obj
 0002:00000220       __xc_a                     000000018001b220     MSVCRTD:initializers.obj
 0002:00000248       __xc_z                     000000018001b248     MSVCRTD:initializers.obj
 0002:00000250       __xi_a                     000000018001b250     MSVCRTD:initializers.obj
 0002:00000258       __xi_z                     000000018001b258     MSVCRTD:initializers.obj
 0002:00000260       __xp_a                     000000018001b260     MSVCRTD:initializers.obj
 0002:00000268       __xp_z                     000000018001b268     MSVCRTD:initializers.obj
 0002:00000270       __xt_a                     000000018001b270     MSVCRTD:initializers.obj
 0002:00000278       __xt_z                     000000018001b278     MSVCRTD:initializers.obj
 0002:00000800       ?minBlockSize@FreeBlock@internal@rml@@2_KB 000000018001b800     backend.obj
 0002:000015b8       ??_C@_08DFOLODHC@prev?5?$DO?50@ 000000018001c5b8     backend.obj
 0002:000015d0       ??_C@_0FC@CGDKJOCF@c?3?2users?2nick?5clark?2documents?2c@ 000000018001c5d0     backend.obj
 0002:00001628       ??_C@_0O@JHJJFLBL@Invalid?5size?4@ 000000018001c628     backend.obj
 0002:00001638       ??_C@_0P@FNEMDPOD@bin?5?$DM?5HUGE_BIN@ 000000018001c638     backend.obj
 0002:00001648       ??_C@_07GFMKPKGE@setDone@  000000018001c648     backend.obj
 0002:00001650       ??_C@_0BA@CEEKGGGA@value?5?$DN?$DN?5LOCKED@ 000000018001c650     backend.obj
 0002:00001660       ??_C@_0EJ@FBEOBKHL@c?3?2users?2nick?5clark?2documents?2c@ 000000018001c660     backend.obj
 0002:000016b0       ??_C@_0BI@JHINDDMB@state?5?$DM?$DN?5MAX_LOCKED_VAL@ 000000018001c6b0     backend.obj
 0002:000016c8       ??_C@_0BH@FEHBFHGE@The?5lock?5is?5not?5locked@ 000000018001c6c8     backend.obj
 0002:000016e0       ??_C@_0BI@IIODFHOM@value?5?$DM?$DN?5MAX_LOCKED_VAL@ 000000018001c6e0     backend.obj
 0002:000016f8       ??_C@_0BG@IPJCHDNC@size?5?$DO?5MAX_LOCKED_VAL@ 000000018001c6f8     backend.obj
 0002:00001710       ??_C@_02IDNJGBJI@sz@       000000018001c710     backend.obj
 0002:00001718       ??_C@_09JFDLILFE@rSz?5?$DN?$DN?5sz@ 000000018001c718     backend.obj
 0002:00001728       ??_C@_0DB@DENAPAEI@myBinsInFlyBlocks?$DO?$DN0?5?$CG?$CG?5myCoale@ 000000018001c728     backend.obj
 0002:00001760       ??_C@_07PNELNLMG@idx?$DMNUM@ 000000018001c760     backend.obj
 0002:00002730       ??_C@_0DA@LNKDFIDI@Props?3?3MinSize?5?$DM?$DN?5size?5?$CG?$CG?5size?5@ 000000018001d730     large_objects.obj
 0002:00002760       ??_C@_0L@BJPAOBBH@op?9?$DOstatus@ 000000018001d760     large_objects.obj
 0002:00002770       ??_C@_0FH@IPHMAE@c?3?2users?2nick?5clark?2documents?2c@ 000000018001d770     large_objects.obj
 0002:000027d0       ??_C@_0EL@OIOHNBGB@Waiting?5for?5an?5operation?5object@ 000000018001d7d0     large_objects.obj
 0002:00002820       ??_C@_0P@KNAHMLAB@long_life_time@ 000000018001d820     large_objects.obj
 0002:00002848       ?dataSz@BackRefMaster@internal@rml@@2HB 000000018001d848     backref.obj
 0002:00002f70       ??_C@_0DG@NCBOLGFA@index?5in?5BackRefMaster?5must?5fit@ 000000018001df70     backref.obj
 0002:00002fa8       ??_C@_0CJ@CGECLCOC@?$CB?$CInum?5?$DO?$DO?58?$CKsizeof?$CIBackRefIdx?3?3m@ 000000018001dfa8     backref.obj
 0002:00002fe0       ??_C@_0EJ@GIPPNHLI@c?3?2users?2nick?5clark?2documents?2c@ 000000018001dfe0     backref.obj
 0002:0000496c       ?minLargeObjectSize@internal@rml@@3IB 000000018001f96c     frontend.obj
 0002:00004aec       ?emptyEnoughRatio@Block@internal@rml@@0MB 000000018001faec     frontend.obj
 0002:00006a88       ??_C@_0BH@OCMIDAAL@isAligned?$CIb?0?5slabSize?$CJ@ 0000000180021a88     frontend.obj
 0002:00006aa0       ??_C@_0BH@JJMOKBLI@TBBmalloc?3?5huge?5pages?7@ 0000000180021aa0     frontend.obj
 0002:00006ab8       ??_C@_04LKOGMCLF@not?5@    0000000180021ab8     frontend.obj
 0002:00006ac0       ??_C@_01EEMJAFIK@?6@       0000000180021ac0     frontend.obj
 0002:00006ac8       ??_C@_0DK@GHNCGLON@Huge?5page?5size?5can?8t?5be?5set?5twi@ 0000000180021ac8     frontend.obj
 0002:00006b08       ??_C@_09DOFBAPOD@?$CBpageSize@ 0000000180021b08     frontend.obj
 0002:00006b18       ??_C@_0BK@BDLDLJON@TBB_MALLOC_USE_HUGE_PAGES@ 0000000180021b18     frontend.obj
 0002:00006b38       ??_C@_09GLAMPMBA@requested@ 0000000180021b38     frontend.obj
 0002:00006b48       ??_C@_09LAIKOIHJ@available@ 0000000180021b48     frontend.obj
 0002:00006b58       ??_C@_0DA@HHNIKPPH@Possible?5double?5pool_destroy?5or@ 0000000180021b58     frontend.obj
 0002:00006b88       ??_C@_0O@PNNNHMEO@isPoolValid?$CI?$CJ@ 0000000180021b88     frontend.obj
 0002:00006b98       ??_C@_0BE@HPINMMI@Invalid?5object?5size@ 0000000180021b98     frontend.obj
 0002:00006bb0       ??_C@_0DI@MEAHKCFO@isStartupAllocObject?$CI?$CJ?5?$HM?$HM?5objec@ 0000000180021bb0     frontend.obj
 0002:00006bf0       ??_C@_0EK@LBBIMLOI@c?3?2users?2nick?5clark?2documents?2c@ 0000000180021bf0     frontend.obj
 0002:00006c40       ??_C@_0CJ@EFFABGAB@Possible?5double?5free?5or?5heap?5co@ 0000000180021c40     frontend.obj
 0002:00006c70       ??_C@_0CB@FAOOOAD@Try?5to?5free?5invalid?5small?5objec@ 0000000180021c70     frontend.obj
 0002:00006c98       ??_C@_0CC@KLCKGGEJ@isAligned?$CIobject?0?5sizeof?$CIsize_t@ 0000000180021c98     frontend.obj
 0002:00006cc0       ??_C@_0BB@ELCJNGHM@allocatedCount?$DO0@ 0000000180021cc0     frontend.obj
 0002:00006cd8       ??_C@_0DF@JFKPEDIE@?$CIuintptr_t?$CJobject?5?9?5?$CIuintptr_t?$CJ@ 0000000180021cd8     frontend.obj
 0002:00006d10       ??_C@_0BA@FLDNDMHL@object?$DM?$DNbumpPtr@ 0000000180021d10     frontend.obj
 0002:00006d20       ??_C@_0BF@GAEOFIFB@isAligned?$CIobject?0?58?$CJ@ 0000000180021d20     frontend.obj
 0002:00006d40       ??_C@_0FG@GDBFPIHD@allocatedCount?5?$DM?$DN?5?$CIslabSize?9siz@ 0000000180021d40     frontend.obj
 0002:00006d98       ??_C@_0BD@GEKNIFCN@toFree?5?$CB?$DN?5freeList@ 0000000180021d98     frontend.obj
 0002:00006db0       ??_C@_0BJ@NEDKPDEN@toFree?5?$CB?$DN?5publicFreeList@ 0000000180021db0     frontend.obj
 0002:00006dd0       ??_C@_07PDJODHAC@?$CBtlsPtr@ 0000000180021dd0     frontend.obj
 0002:00006dd8       ??_C@_06DOAMFFNN@tlsPtr@   0000000180021dd8     frontend.obj
 0002:00006de0       ??_C@_0P@IIHMHAOK@activeBlk?5?$DN?$DN?50@ 0000000180021de0     frontend.obj
 0002:00006df0       ??_C@_0N@PFGPMDGO@mailbox?5?$DN?$DN?50@ 0000000180021df0     frontend.obj
 0002:00006e00       ??_C@_0DF@PCPJJDPA@allocatedCount?5?$DM?5?$CIslabSize?9size@ 0000000180021e00     frontend.obj
 0002:00006e38       ??_C@_07DPEONPKP@?$CBisFull@ 0000000180021e38     frontend.obj
 0002:00006e40       ??_C@_0CA@BPLEIKP@block?9?$DOisOwnedByCurrentThread?$CI?$CJ@ 0000000180021e40     frontend.obj
 0002:00006e60       ??_C@_09LPKNFIF@activeBlk@ 0000000180021e60     frontend.obj
 0002:00006e70       ??_C@_0BC@OHJHBNAN@temp?9?$DOisFull?5?$DN?$DN?50@ 0000000180021e70     frontend.obj
 0002:00006e88       ??_C@_0CJ@FLAGMCDL@isAligned?$CIobjectToFree?0fittingA@ 0000000180021e88     frontend.obj
 0002:00006eb8       ??_C@_0BP@PABEPNHM@isProperlyPlaced?$CIobjectToFree?$CJ@ 0000000180021eb8     frontend.obj
 0002:00006ed8       ??_C@_06KJFADLGN@result@   0000000180021ed8     frontend.obj
 0002:00006ee0       ??_C@_0BJ@NJGLCJMK@isOwnedByCurrentThread?$CI?$CJ@ 0000000180021ee0     frontend.obj
 0002:00006f00       ??_C@_09DKJIALDF@?$CBfreeList@ 0000000180021f00     frontend.obj
 0002:00006f10       ??_C@_08GIKGANOK@?$CBbumpPtr@ 0000000180021f10     frontend.obj
 0002:00006f20       ??_C@_0BP@JKLIOCPF@offset?$DM?$DNslabSize?9sizeof?$CIBlock?$CJ@ 0000000180021f20     frontend.obj
 0002:00006f40       ??_C@_0CB@NEAGOMBI@Divisor?5should?5be?5a?5power?5of?5tw@ 0000000180021f40     frontend.obj
 0002:00006f68       ??_C@_0BI@DFCMLHIN@is_power_of_two?$CIpower2?$CJ@ 0000000180021f68     frontend.obj
 0002:00006f80       ??_C@_0EI@CANMPLMB@c?3?2users?2nick?5clark?2documents?2c@ 0000000180021f80     frontend.obj
 0002:00006fc8       __real@463e8000            0000000180021fc8     frontend.obj
 0002:00006fe0       _pRawDllMain               0000000180021fe0     MSVCRTD:dll_dllmain.obj
 0002:00006fe0       _pDefaultRawDllMain        0000000180021fe0     MSVCRTD:dll_dllmain.obj
 0002:00007050       _load_config_used          0000000180022050     MSVCRTD:loadcfg.obj
 0002:00007440       __rtc_iaa                  0000000180022440     MSVCRTD:initsect.obj
 0002:00007448       __rtc_izz                  0000000180022448     MSVCRTD:initsect.obj
 0002:00007450       __rtc_taa                  0000000180022450     MSVCRTD:initsect.obj
 0002:00007458       __rtc_tzz                  0000000180022458     MSVCRTD:initsect.obj
 0002:00009400       __IMPORT_DESCRIPTOR_KERNEL32 0000000180024400     kernel32:KERNEL32.dll
 0002:00009414       __IMPORT_DESCRIPTOR_VCRUNTIME140D 0000000180024414     vcruntimed:VCRUNTIME140D.dll
 0002:00009428       __IMPORT_DESCRIPTOR_ucrtbased 0000000180024428     ucrtd:ucrtbased.dll
 0002:0000943c       __NULL_IMPORT_DESCRIPTOR   000000018002443c     kernel32:KERNEL32.dll
 0003:00000000       ?SyncType_GlobalLock@tbb@@3PEB_WEB 0000000180025000     itt_notify.obj
 0003:00000008       ?SyncType_Scheduler@tbb@@3PEB_WEB 0000000180025008     itt_notify.obj
 0003:00000010       ?SyncObj_SchedulerInitialization@tbb@@3PEB_WEB 0000000180025010     itt_notify.obj
 0003:00000018       ?SyncObj_SchedulersList@tbb@@3PEB_WEB 0000000180025018     itt_notify.obj
 0003:00000020       ?SyncObj_WorkerLifeCycleMgmt@tbb@@3PEB_WEB 0000000180025020     itt_notify.obj
 0003:00000028       ?SyncObj_TaskStealingLoop@tbb@@3PEB_WEB 0000000180025028     itt_notify.obj
 0003:00000030       ?SyncObj_WorkerTaskPool@tbb@@3PEB_WEB 0000000180025030     itt_notify.obj
 0003:00000038       ?SyncObj_MasterTaskPool@tbb@@3PEB_WEB 0000000180025038     itt_notify.obj
 0003:00000040       ?SyncObj_TaskPoolSpinning@tbb@@3PEB_WEB 0000000180025040     itt_notify.obj
 0003:00000048       ?SyncObj_Mailbox@tbb@@3PEB_WEB 0000000180025048     itt_notify.obj
 0003:00000050       ?SyncObj_TaskReturnList@tbb@@3PEB_WEB 0000000180025050     itt_notify.obj
 0003:00000058       ?SyncObj_TaskStream@tbb@@3PEB_WEB 0000000180025058     itt_notify.obj
 0003:00000060       ?SyncObj_ContextsList@tbb@@3PEB_WEB 0000000180025060     itt_notify.obj
 0003:00000068       __itt_detach_ptr__3_0      0000000180025068     itt_notify.obj
 0003:00000070       __itt_sync_createA_ptr__3_0 0000000180025070     itt_notify.obj
 0003:00000078       __itt_sync_createW_ptr__3_0 0000000180025078     itt_notify.obj
 0003:00000080       __itt_sync_renameA_ptr__3_0 0000000180025080     itt_notify.obj
 0003:00000088       __itt_sync_renameW_ptr__3_0 0000000180025088     itt_notify.obj
 0003:00000090       __itt_sync_destroy_ptr__3_0 0000000180025090     itt_notify.obj
 0003:00000098       __itt_sync_prepare_ptr__3_0 0000000180025098     itt_notify.obj
 0003:000000a0       __itt_sync_cancel_ptr__3_0 00000001800250a0     itt_notify.obj
 0003:000000a8       __itt_sync_acquired_ptr__3_0 00000001800250a8     itt_notify.obj
 0003:000000b0       __itt_sync_releasing_ptr__3_0 00000001800250b0     itt_notify.obj
 0003:000000b8       __itt_suppress_push_ptr__3_0 00000001800250b8     itt_notify.obj
 0003:000000c0       __itt_suppress_pop_ptr__3_0 00000001800250c0     itt_notify.obj
 0003:000000c8       __itt_suppress_mark_range_ptr__3_0 00000001800250c8     itt_notify.obj
 0003:000000d0       __itt_suppress_clear_range_ptr__3_0 00000001800250d0     itt_notify.obj
 0003:000000d8       __itt_fsync_prepare_ptr__3_0 00000001800250d8     itt_notify.obj
 0003:000000e0       __itt_fsync_cancel_ptr__3_0 00000001800250e0     itt_notify.obj
 0003:000000e8       __itt_fsync_acquired_ptr__3_0 00000001800250e8     itt_notify.obj
 0003:000000f0       __itt_fsync_releasing_ptr__3_0 00000001800250f0     itt_notify.obj
 0003:000000f8       __itt_model_site_begin_ptr__3_0 00000001800250f8     itt_notify.obj
 0003:00000100       __itt_model_site_end_ptr__3_0 0000000180025100     itt_notify.obj
 0003:00000108       __itt_model_task_begin_ptr__3_0 0000000180025108     itt_notify.obj
 0003:00000110       __itt_model_task_end_ptr__3_0 0000000180025110     itt_notify.obj
 0003:00000118       __itt_model_lock_acquire_ptr__3_0 0000000180025118     itt_notify.obj
 0003:00000120       __itt_model_lock_release_ptr__3_0 0000000180025120     itt_notify.obj
 0003:00000128       __itt_model_record_allocation_ptr__3_0 0000000180025128     itt_notify.obj
 0003:00000130       __itt_model_record_deallocation_ptr__3_0 0000000180025130     itt_notify.obj
 0003:00000138       __itt_model_induction_uses_ptr__3_0 0000000180025138     itt_notify.obj
 0003:00000140       __itt_model_reduction_uses_ptr__3_0 0000000180025140     itt_notify.obj
 0003:00000148       __itt_model_observe_uses_ptr__3_0 0000000180025148     itt_notify.obj
 0003:00000150       __itt_model_clear_uses_ptr__3_0 0000000180025150     itt_notify.obj
 0003:00000158       __itt_model_site_beginW_ptr__3_0 0000000180025158     itt_notify.obj
 0003:00000160       __itt_model_task_beginW_ptr__3_0 0000000180025160     itt_notify.obj
 0003:00000168       __itt_model_iteration_taskW_ptr__3_0 0000000180025168     itt_notify.obj
 0003:00000170       __itt_model_site_beginA_ptr__3_0 0000000180025170     itt_notify.obj
 0003:00000178       __itt_model_site_beginAL_ptr__3_0 0000000180025178     itt_notify.obj
 0003:00000180       __itt_model_task_beginA_ptr__3_0 0000000180025180     itt_notify.obj
 0003:00000188       __itt_model_task_beginAL_ptr__3_0 0000000180025188     itt_notify.obj
 0003:00000190       __itt_model_iteration_taskA_ptr__3_0 0000000180025190     itt_notify.obj
 0003:00000198       __itt_model_iteration_taskAL_ptr__3_0 0000000180025198     itt_notify.obj
 0003:000001a0       __itt_model_site_end_2_ptr__3_0 00000001800251a0     itt_notify.obj
 0003:000001a8       __itt_model_task_end_2_ptr__3_0 00000001800251a8     itt_notify.obj
 0003:000001b0       __itt_model_lock_acquire_2_ptr__3_0 00000001800251b0     itt_notify.obj
 0003:000001b8       __itt_model_lock_release_2_ptr__3_0 00000001800251b8     itt_notify.obj
 0003:000001c0       __itt_model_aggregate_task_ptr__3_0 00000001800251c0     itt_notify.obj
 0003:000001c8       __itt_model_disable_push_ptr__3_0 00000001800251c8     itt_notify.obj
 0003:000001d0       __itt_model_disable_pop_ptr__3_0 00000001800251d0     itt_notify.obj
 0003:000001d8       __itt_heap_function_createA_ptr__3_0 00000001800251d8     itt_notify.obj
 0003:000001e0       __itt_heap_function_createW_ptr__3_0 00000001800251e0     itt_notify.obj
 0003:000001e8       __itt_heap_allocate_begin_ptr__3_0 00000001800251e8     itt_notify.obj
 0003:000001f0       __itt_heap_allocate_end_ptr__3_0 00000001800251f0     itt_notify.obj
 0003:000001f8       __itt_heap_free_begin_ptr__3_0 00000001800251f8     itt_notify.obj
 0003:00000200       __itt_heap_free_end_ptr__3_0 0000000180025200     itt_notify.obj
 0003:00000208       __itt_heap_reallocate_begin_ptr__3_0 0000000180025208     itt_notify.obj
 0003:00000210       __itt_heap_reallocate_end_ptr__3_0 0000000180025210     itt_notify.obj
 0003:00000218       __itt_heap_internal_access_begin_ptr__3_0 0000000180025218     itt_notify.obj
 0003:00000220       __itt_heap_internal_access_end_ptr__3_0 0000000180025220     itt_notify.obj
 0003:00000228       __itt_heap_record_memory_growth_begin_ptr__3_0 0000000180025228     itt_notify.obj
 0003:00000230       __itt_heap_record_memory_growth_end_ptr__3_0 0000000180025230     itt_notify.obj
 0003:00000238       __itt_heap_reset_detection_ptr__3_0 0000000180025238     itt_notify.obj
 0003:00000240       __itt_heap_record_ptr__3_0 0000000180025240     itt_notify.obj
 0003:00000248       __itt_id_create_ptr__3_0   0000000180025248     itt_notify.obj
 0003:00000250       __itt_id_destroy_ptr__3_0  0000000180025250     itt_notify.obj
 0003:00000258       __itt_get_timestamp_ptr__3_0 0000000180025258     itt_notify.obj
 0003:00000260       __itt_region_begin_ptr__3_0 0000000180025260     itt_notify.obj
 0003:00000268       __itt_region_end_ptr__3_0  0000000180025268     itt_notify.obj
 0003:00000270       __itt_frame_begin_v3_ptr__3_0 0000000180025270     itt_notify.obj
 0003:00000278       __itt_frame_end_v3_ptr__3_0 0000000180025278     itt_notify.obj
 0003:00000280       __itt_frame_submit_v3_ptr__3_0 0000000180025280     itt_notify.obj
 0003:00000288       __itt_task_group_ptr__3_0  0000000180025288     itt_notify.obj
 0003:00000290       __itt_task_begin_ptr__3_0  0000000180025290     itt_notify.obj
 0003:00000298       __itt_task_begin_fn_ptr__3_0 0000000180025298     itt_notify.obj
 0003:000002a0       __itt_task_end_ptr__3_0    00000001800252a0     itt_notify.obj
 0003:000002a8       __itt_counter_inc_v3_ptr__3_0 00000001800252a8     itt_notify.obj
 0003:000002b0       __itt_counter_inc_delta_v3_ptr__3_0 00000001800252b0     itt_notify.obj
 0003:000002b8       __itt_marker_ptr__3_0      00000001800252b8     itt_notify.obj
 0003:000002c0       __itt_metadata_add_ptr__3_0 00000001800252c0     itt_notify.obj
 0003:000002c8       __itt_metadata_str_addA_ptr__3_0 00000001800252c8     itt_notify.obj
 0003:000002d0       __itt_metadata_str_addW_ptr__3_0 00000001800252d0     itt_notify.obj
 0003:000002d8       __itt_relation_add_to_current_ptr__3_0 00000001800252d8     itt_notify.obj
 0003:000002e0       __itt_relation_add_ptr__3_0 00000001800252e0     itt_notify.obj
 0003:000002e8       __itt_event_createA_ptr__3_0 00000001800252e8     itt_notify.obj
 0003:000002f0       __itt_event_createW_ptr__3_0 00000001800252f0     itt_notify.obj
 0003:000002f8       __itt_event_start_ptr__3_0 00000001800252f8     itt_notify.obj
 0003:00000300       __itt_event_end_ptr__3_0   0000000180025300     itt_notify.obj
 0003:00000308       __itt_sync_set_nameA_ptr__3_0 0000000180025308     itt_notify.obj
 0003:00000310       __itt_sync_set_nameW_ptr__3_0 0000000180025310     itt_notify.obj
 0003:00000318       __itt_notify_sync_nameA_ptr__3_0 0000000180025318     itt_notify.obj
 0003:00000320       __itt_notify_sync_nameW_ptr__3_0 0000000180025320     itt_notify.obj
 0003:00000328       __itt_notify_sync_prepare_ptr__3_0 0000000180025328     itt_notify.obj
 0003:00000330       __itt_notify_sync_cancel_ptr__3_0 0000000180025330     itt_notify.obj
 0003:00000338       __itt_notify_sync_acquired_ptr__3_0 0000000180025338     itt_notify.obj
 0003:00000340       __itt_notify_sync_releasing_ptr__3_0 0000000180025340     itt_notify.obj
 0003:00000348       __itt_memory_read_ptr__3_0 0000000180025348     itt_notify.obj
 0003:00000350       __itt_memory_write_ptr__3_0 0000000180025350     itt_notify.obj
 0003:00000358       __itt_memory_update_ptr__3_0 0000000180025358     itt_notify.obj
 0003:00000360       __itt_state_get_ptr__3_0   0000000180025360     itt_notify.obj
 0003:00000368       __itt_state_set_ptr__3_0   0000000180025368     itt_notify.obj
 0003:00000370       __itt_obj_mode_set_ptr__3_0 0000000180025370     itt_notify.obj
 0003:00000378       __itt_thr_mode_set_ptr__3_0 0000000180025378     itt_notify.obj
 0003:00000380       __itt_frame_createA_ptr__3_0 0000000180025380     itt_notify.obj
 0003:00000388       __itt_frame_createW_ptr__3_0 0000000180025388     itt_notify.obj
 0003:00000390       __itt_frame_begin_ptr__3_0 0000000180025390     itt_notify.obj
 0003:00000398       __itt_frame_end_ptr__3_0   0000000180025398     itt_notify.obj
 0003:000003a0       __itt_counter_createA_ptr__3_0 00000001800253a0     itt_notify.obj
 0003:000003a8       __itt_counter_createW_ptr__3_0 00000001800253a8     itt_notify.obj
 0003:000003b0       __itt_counter_destroy_ptr__3_0 00000001800253b0     itt_notify.obj
 0003:000003b8       __itt_counter_inc_ptr__3_0 00000001800253b8     itt_notify.obj
 0003:000003c0       __itt_counter_inc_delta_ptr__3_0 00000001800253c0     itt_notify.obj
 0003:000003c8       __itt_mark_createA_ptr__3_0 00000001800253c8     itt_notify.obj
 0003:000003d0       __itt_mark_createW_ptr__3_0 00000001800253d0     itt_notify.obj
 0003:000003d8       __itt_markA_ptr__3_0       00000001800253d8     itt_notify.obj
 0003:000003e0       __itt_markW_ptr__3_0       00000001800253e0     itt_notify.obj
 0003:000003e8       __itt_mark_off_ptr__3_0    00000001800253e8     itt_notify.obj
 0003:000003f0       __itt_mark_globalA_ptr__3_0 00000001800253f0     itt_notify.obj
 0003:000003f8       __itt_mark_globalW_ptr__3_0 00000001800253f8     itt_notify.obj
 0003:00000400       __itt_mark_global_off_ptr__3_0 0000000180025400     itt_notify.obj
 0003:00000408       __itt_stack_caller_create_ptr__3_0 0000000180025408     itt_notify.obj
 0003:00000410       __itt_stack_caller_destroy_ptr__3_0 0000000180025410     itt_notify.obj
 0003:00000418       __itt_stack_callee_enter_ptr__3_0 0000000180025418     itt_notify.obj
 0003:00000420       __itt_stack_callee_leave_ptr__3_0 0000000180025420     itt_notify.obj
 0003:00000428       __itt_clock_domain_create_ptr__3_0 0000000180025428     itt_notify.obj
 0003:00000430       __itt_clock_domain_reset_ptr__3_0 0000000180025430     itt_notify.obj
 0003:00000438       __itt_id_create_ex_ptr__3_0 0000000180025438     itt_notify.obj
 0003:00000440       __itt_id_destroy_ex_ptr__3_0 0000000180025440     itt_notify.obj
 0003:00000448       __itt_task_begin_ex_ptr__3_0 0000000180025448     itt_notify.obj
 0003:00000450       __itt_task_begin_fn_ex_ptr__3_0 0000000180025450     itt_notify.obj
 0003:00000458       __itt_task_end_ex_ptr__3_0 0000000180025458     itt_notify.obj
 0003:00000460       __itt_task_begin_overlapped_ptr__3_0 0000000180025460     itt_notify.obj
 0003:00000468       __itt_task_begin_overlapped_ex_ptr__3_0 0000000180025468     itt_notify.obj
 0003:00000470       __itt_task_end_overlapped_ptr__3_0 0000000180025470     itt_notify.obj
 0003:00000478       __itt_task_end_overlapped_ex_ptr__3_0 0000000180025478     itt_notify.obj
 0003:00000480       __itt_marker_ex_ptr__3_0   0000000180025480     itt_notify.obj
 0003:00000488       __itt_metadata_add_with_scope_ptr__3_0 0000000180025488     itt_notify.obj
 0003:00000490       __itt_metadata_str_add_with_scopeA_ptr__3_0 0000000180025490     itt_notify.obj
 0003:00000498       __itt_metadata_str_add_with_scopeW_ptr__3_0 0000000180025498     itt_notify.obj
 0003:000004a0       __itt_relation_add_to_current_ex_ptr__3_0 00000001800254a0     itt_notify.obj
 0003:000004a8       __itt_relation_add_ex_ptr__3_0 00000001800254a8     itt_notify.obj
 0003:000004b0       __itt_track_group_create_ptr__3_0 00000001800254b0     itt_notify.obj
 0003:000004b8       __itt_track_create_ptr__3_0 00000001800254b8     itt_notify.obj
 0003:000004c0       __itt_set_track_ptr__3_0   00000001800254c0     itt_notify.obj
 0003:000004c8       __itt_api_version_ptr__3_0 00000001800254c8     itt_notify.obj
 0003:000004d0       __itt_av_saveA_ptr__3_0    00000001800254d0     itt_notify.obj
 0003:000004d8       __itt_av_saveW_ptr__3_0    00000001800254d8     itt_notify.obj
 0003:000004e0       __itt_domain_createA_ptr__3_0 00000001800254e0     itt_notify.obj
 0003:000004e8       __itt_domain_createW_ptr__3_0 00000001800254e8     itt_notify.obj
 0003:000004f0       __itt_string_handle_createA_ptr__3_0 00000001800254f0     itt_notify.obj
 0003:000004f8       __itt_string_handle_createW_ptr__3_0 00000001800254f8     itt_notify.obj
 0003:00000500       __itt_pause_ptr__3_0       0000000180025500     itt_notify.obj
 0003:00000508       __itt_resume_ptr__3_0      0000000180025508     itt_notify.obj
 0003:00000510       __itt_thread_set_nameA_ptr__3_0 0000000180025510     itt_notify.obj
 0003:00000518       __itt_thread_set_nameW_ptr__3_0 0000000180025518     itt_notify.obj
 0003:00000520       __itt_thread_ignore_ptr__3_0 0000000180025520     itt_notify.obj
 0003:00000528       __itt_thr_name_setA_ptr__3_0 0000000180025528     itt_notify.obj
 0003:00000530       __itt_thr_name_setW_ptr__3_0 0000000180025530     itt_notify.obj
 0003:00000538       __itt_thr_ignore_ptr__3_0  0000000180025538     itt_notify.obj
 0003:00000540       __itt_enable_attach_ptr__3_0 0000000180025540     itt_notify.obj
 0003:00001de0       ?__itt__ittapi_global@@3U___itt_global@@A 0000000180026de0     itt_notify.obj
 0003:000020b0       __security_cookie_complement 00000001800270b0     MSVCRTD:gs_cookie.obj
 0003:000020b8       __security_cookie          00000001800270b8     MSVCRTD:gs_cookie.obj
 0003:000020c0       _fltused                   00000001800270c0     MSVCRTD:fltused.obj
 0003:000020c4       __scrt_native_dllmain_reason 00000001800270c4     MSVCRTD:utility.obj
 0003:000020c8       __isa_available            00000001800270c8     MSVCRTD:cpu_disp.obj
 0003:000020cc       __isa_enabled              00000001800270cc     MSVCRTD:cpu_disp.obj
 0003:000020d0       __memcpy_nt_iters          00000001800270d0     MSVCRTD:cpu_disp.obj
 0003:000020e0       __scrt_ucrt_dll_is_in_use  00000001800270e0     MSVCRTD:ucrt_stubs.obj
 0003:00002100       ?_OptionsStorage@?1??__local_stdio_printf_options@@9@4_KA 0000000180027100     tbbmalloc.obj
 0003:00024870       ?memPoolListLock@MemoryPool@internal@rml@@2VMallocMutex@@A 0000000180049870     frontend.obj
 0003:00024878       ?hugePages@internal@rml@@3VHugePagesStatus@12@A 0000000180049878     frontend.obj
 0003:00024e30       ?__type_info_root_node@@3U__type_info_node@@A 0000000180049e30     MSVCRTD:tncleanup.obj
 0003:00024e40       ?_OptionsStorage@?1??__local_stdio_scanf_options@@9@4_KA 0000000180049e40     MSVCRTD:default_local_stdio_options.obj
 0003:00024e48       __scrt_current_native_startup_state 0000000180049e48     MSVCRTD:utility.obj
 0003:00024e50       __scrt_native_startup_lock 0000000180049e50     MSVCRTD:utility.obj
 0003:00024e90       __scrt_debugger_hook_flag  0000000180049e90     MSVCRTD:utility_desktop.obj
 0003:00024e94       __favor                    0000000180049e94     MSVCRTD:cpu_disp.obj
 0003:00024e98       __dyn_tls_init_callback    0000000180049e98     <common>

 entry point at        0001:00018580

 Static symbols

 0004:fffb6000       $pdata$?inUserPool@Backend@internal@rml@@QEBA_NXZ 0000000180000000     frontend.obj
 0002:fffe5000       $unwind$?inUserPool@Backend@internal@rml@@QEBA_NXZ 0000000180000000     frontend.obj
 0004:fffb6000       $pdata$?isInvalid@BackRefIdx@internal@rml@@QEBA_NXZ 0000000180000000     frontend.obj
 0002:fffe5000       $unwind$?isInvalid@BackRefIdx@internal@rml@@QEBA_NXZ 0000000180000000     frontend.obj
 0002:fffe5000       $unwind$?get@AllocControlledMode@internal@rml@@QEBA_JXZ 0000000180000000     frontend.obj
 0004:fffb6000       $pdata$?get@AllocControlledMode@internal@rml@@QEBA_JXZ 0000000180000000     frontend.obj
 0004:fffb6000       $pdata$??$__TBB_store_with_release@_J_J@internal@tbb@@YAXAEC_J_J@Z 0000000180000000     frontend.obj
 0002:fffe5000       $unwind$??$__TBB_store_with_release@_J_J@internal@tbb@@YAXAEC_J_J@Z 0000000180000000     frontend.obj
 0004:fffb6000       $pdata$?FencedStore@@YAXAEC_J_J@Z 0000000180000000     frontend.obj
 0002:fffe5000       $unwind$?FencedStore@@YAXAEC_J_J@Z 0000000180000000     frontend.obj
 0002:fffe5000       $unwind$??0atomic_backoff@internal@tbb@@QEAA@XZ 0000000180000000     large_objects.obj
 0004:fffb6000       $pdata$??0atomic_backoff@internal@tbb@@QEAA@XZ 0000000180000000     large_objects.obj
 0002:fffe5000       $unwind$?pause@atomic_backoff@internal@tbb@@QEAAXXZ 0000000180000000     large_objects.obj
 0004:fffb6000       $pdata$?pause@atomic_backoff@internal@tbb@@QEAAXXZ 0000000180000000     large_objects.obj
 0002:fffe5000       $unwind$?AtomicIncrement@@YA_JAEC_J@Z 0000000180000000     large_objects.obj
 0004:fffb6000       $pdata$?AtomicIncrement@@YA_JAEC_J@Z 0000000180000000     large_objects.obj
 0002:fffe5000       $unwind$?AtomicAdd@@YA_KAEC_J_J@Z 0000000180000000     large_objects.obj
 0004:fffb6000       $pdata$?AtomicAdd@@YA_KAEC_J_J@Z 0000000180000000     large_objects.obj
 0002:fffe5000       $unwind$?AtomicOr@@YAXPECX_K@Z 0000000180000000     large_objects.obj
 0004:fffb6000       $pdata$?AtomicOr@@YAXPECX_K@Z 0000000180000000     large_objects.obj
 0002:fffe5000       $unwind$?AtomicAnd@@YAXPECX_K@Z 0000000180000000     large_objects.obj
 0004:fffb6000       $pdata$?AtomicAnd@@YAXPECX_K@Z 0000000180000000     large_objects.obj
 0002:fffe5000       $unwind$?FencedLoad@@YA_JAED_J@Z 0000000180000000     large_objects.obj
 0004:fffb6000       $pdata$?FencedLoad@@YA_JAED_J@Z 0000000180000000     large_objects.obj
 0002:fffe5000       $unwind$??$__TBB_load_with_acquire@_J@internal@tbb@@YA_JAED_J@Z 0000000180000000     large_objects.obj
 0004:fffb6000       $pdata$??$__TBB_load_with_acquire@_J@internal@tbb@@YA_JAED_J@Z 0000000180000000     large_objects.obj
 0002:fffe5000       $unwind$?FencedStore@@YAXAEC_J_J@Z 0000000180000000     large_objects.obj
 0004:fffb6000       $pdata$?FencedStore@@YAXAEC_J_J@Z 0000000180000000     large_objects.obj
 0002:fffe5000       $unwind$??$__TBB_store_with_release@_J_J@internal@tbb@@YAXAEC_J_J@Z 0000000180000000     large_objects.obj
 0004:fffb6000       $pdata$??$__TBB_store_with_release@_J_J@internal@tbb@@YAXAEC_J_J@Z 0000000180000000     large_objects.obj
 0002:fffe5000       $unwind$?BitScanRev@@YA_J_K@Z 0000000180000000     large_objects.obj
 0004:fffb6000       $pdata$?BitScanRev@@YA_J_K@Z 0000000180000000     large_objects.obj
 0002:fffe5000       $unwind$?load_with_acquire@?$machine_load_store@_J$07@internal@tbb@@SA_JAED_J@Z 0000000180000000     large_objects.obj
 0000:fffb1000       .debug$S                   0000000180000000     tbbmalloc_debug.exp
 0004:fffb6000       $pdata$?load_with_acquire@?$machine_load_store@_J$07@internal@tbb@@SA_JAED_J@Z 0000000180000000     large_objects.obj
 0000:fffb1000       .debug$S                   0000000180000000     kernel32:KERNEL32.dll
 0000:fffb1000       .debug$S                   0000000180000000     kernel32:KERNEL32.dll
 0000:fffb1000       .debug$S                   0000000180000000     kernel32:KERNEL32.dll
 0000:fffb1000       .debug$S                   0000000180000000     kernel32:KERNEL32.dll
 0000:fffb1000       .debug$S                   0000000180000000     kernel32:KERNEL32.dll
 0000:fffb1000       .debug$S                   0000000180000000     kernel32:KERNEL32.dll
 0000:fffb1000       .debug$S                   0000000180000000     kernel32:KERNEL32.dll
 0000:fffb1000       .debug$S                   0000000180000000     kernel32:KERNEL32.dll
 0000:fffb1000       .debug$S                   0000000180000000     kernel32:KERNEL32.dll
 0000:fffb1000       .debug$S                   0000000180000000     kernel32:KERNEL32.dll
 0000:fffb1000       .debug$S                   0000000180000000     kernel32:KERNEL32.dll
 0000:fffb1000       .debug$S                   0000000180000000     kernel32:KERNEL32.dll
 0000:fffb1000       .debug$S                   0000000180000000     kernel32:KERNEL32.dll
 0000:fffb1000       .debug$S                   0000000180000000     kernel32:KERNEL32.dll
 0000:fffb1000       .debug$S                   0000000180000000     kernel32:KERNEL32.dll
 0004:fffb6000       $pdata$??$__TBB_load_with_acquire@_J@internal@tbb@@YA_JAED_J@Z 0000000180000000     frontend.obj
 0000:fffb1000       .debug$S                   0000000180000000     ucrtd:ucrtbased.dll
 0000:fffb1000       .debug$S                   0000000180000000     ucrtd:ucrtbased.dll
 0000:fffb1000       .debug$S                   0000000180000000     ucrtd:ucrtbased.dll
 0000:fffb1000       .debug$S                   0000000180000000     ucrtd:ucrtbased.dll
 0000:fffb1000       .debug$S                   0000000180000000     ucrtd:ucrtbased.dll
 0000:fffb1000       .debug$S                   0000000180000000     ucrtd:ucrtbased.dll
 0000:fffb1000       .debug$S                   0000000180000000     ucrtd:ucrtbased.dll
 0000:fffb1000       .debug$S                   0000000180000000     ucrtd:ucrtbased.dll
 0000:fffb1000       .debug$S                   0000000180000000     ucrtd:ucrtbased.dll
 0000:fffb1000       .debug$S                   0000000180000000     ucrtd:ucrtbased.dll
 0000:fffb1000       .debug$S                   0000000180000000     ucrtd:ucrtbased.dll
 0000:fffb1000       .debug$S                   0000000180000000     ucrtd:ucrtbased.dll
 0000:fffb1000       .debug$S                   0000000180000000     ucrtd:ucrtbased.dll
 0000:fffb1000       .debug$S                   0000000180000000     ucrtd:ucrtbased.dll
 0000:fffb1000       .debug$S                   0000000180000000     ucrtd:ucrtbased.dll
 0000:fffb1000       .debug$S                   0000000180000000     ucrtd:ucrtbased.dll
 0000:fffb1000       .debug$S                   0000000180000000     ucrtd:ucrtbased.dll
 0000:fffb1000       .debug$S                   0000000180000000     ucrtd:ucrtbased.dll
 0000:fffb1000       .debug$S                   0000000180000000     ucrtd:ucrtbased.dll
 0000:fffb1000       .debug$S                   0000000180000000     ucrtd:ucrtbased.dll
 0000:fffb1000       .debug$S                   0000000180000000     ucrtd:ucrtbased.dll
 0000:fffb1000       .debug$S                   0000000180000000     ucrtd:ucrtbased.dll
 0000:fffb1000       .debug$S                   0000000180000000     ucrtd:ucrtbased.dll
 0000:fffb1000       .debug$S                   0000000180000000     ucrtd:ucrtbased.dll
 0000:fffb1000       .debug$S                   0000000180000000     ucrtd:ucrtbased.dll
 0002:fffe5000       $unwind$??$__TBB_load_with_acquire@_J@internal@tbb@@YA_JAED_J@Z 0000000180000000     frontend.obj
 0000:fffb1000       .debug$S                   0000000180000000     vcruntimed:VCRUNTIME140D.dll
 0000:fffb1000       .debug$S                   0000000180000000     vcruntimed:VCRUNTIME140D.dll
 0000:fffb1000       .debug$S                   0000000180000000     vcruntimed:VCRUNTIME140D.dll
 0000:fffb1000       .debug$S                   0000000180000000     vcruntimed:VCRUNTIME140D.dll
 0000:fffb1000       .debug$S                   0000000180000000     vcruntimed:VCRUNTIME140D.dll
 0004:fffb6000       $pdata$?FencedLoad@@YA_JAED_J@Z 0000000180000000     frontend.obj
 0000:fffb1000       .debug$S                   0000000180000000     kernel32:KERNEL32.dll
 0002:fffe5000       $unwind$?FencedLoad@@YA_JAED_J@Z 0000000180000000     frontend.obj
 0004:fffb6000       $pdata$?AtomicCompareExchange@@YA_JAEC_J_J1@Z 0000000180000000     frontend.obj
 0002:fffe5000       $unwind$?AtomicCompareExchange@@YA_JAEC_J_J1@Z 0000000180000000     frontend.obj
 0004:fffb6000       $pdata$??$__TBB_store_with_release@EH@internal@tbb@@YAXAECEH@Z 0000000180000000     frontend.obj
 0002:fffe5000       $unwind$??$__TBB_store_with_release@EH@internal@tbb@@YAXAECEH@Z 0000000180000000     frontend.obj
 0004:fffb6000       $pdata$??0MallocMutex@@QEAA@XZ 0000000180000000     frontend.obj
 0002:fffe5000       __guard_fids__guard_icall_checks_enforced 0000000180000000     MSVCRTD:guard_support.obj
 0002:fffe5000       $unwind$??0MallocMutex@@QEAA@XZ 0000000180000000     frontend.obj
 0002:fffe5000       $ip2state$??1scoped_lock@MallocMutex@@QEAA@XZ 0000000180000000     frontend.obj
 0002:fffe5000       $cppxdata$??1scoped_lock@MallocMutex@@QEAA@XZ 0000000180000000     frontend.obj
 0002:fffe5000       $unwind$?userPool@ExtMemoryPool@internal@rml@@QEBA_NXZ 0000000180000000     frontend.obj
 0002:fffe5000       __guard_fids__             0000000180000000     MSVCRTD:guard_support.obj
 0004:fffb6000       $pdata$?userPool@ExtMemoryPool@internal@rml@@QEBA_NXZ 0000000180000000     frontend.obj
 0004:fffb6000       $pdata$??1scoped_lock@MallocMutex@@QEAA@XZ 0000000180000000     frontend.obj
 0002:fffe5000       $unwind$??1scoped_lock@MallocMutex@@QEAA@XZ 0000000180000000     frontend.obj
 0002:fffe5000       $unwind$??0atomic_backoff@internal@tbb@@QEAA@XZ 0000000180000000     backref.obj
 0004:fffb6000       $pdata$??0scoped_lock@MallocMutex@@QEAA@AEAV1@_NPEA_N@Z 0000000180000000     frontend.obj
 0004:fffb6000       $pdata$??0atomic_backoff@internal@tbb@@QEAA@XZ 0000000180000000     backref.obj
 0002:fffe5000       $unwind$??0scoped_lock@MallocMutex@@QEAA@AEAV1@_NPEA_N@Z 0000000180000000     frontend.obj
 0002:fffe5000       $unwind$?pause@atomic_backoff@internal@tbb@@QEAAXXZ 0000000180000000     backref.obj
 0004:fffb6000       $pdata$??0scoped_lock@MallocMutex@@QEAA@AEAV1@@Z 0000000180000000     frontend.obj
 0004:fffb6000       $pdata$?pause@atomic_backoff@internal@tbb@@QEAAXXZ 0000000180000000     backref.obj
 0002:fffe5000       __guard_fids___scrt_set_unhandled_exception_filter 0000000180000000     MSVCRTD:utility_desktop.obj
 0002:fffe5000       $unwind$??0scoped_lock@MallocMutex@@QEAA@AEAV1@@Z 0000000180000000     frontend.obj
 0002:fffe5000       $unwind$?__TBB_TryLockByte@@YA_NAEAE@Z 0000000180000000     backref.obj
 0004:fffb6000       $pdata$?__TBB_LockByte@@YAEAEAE@Z 0000000180000000     frontend.obj
 0004:fffb6000       $pdata$?__TBB_TryLockByte@@YA_NAEAE@Z 0000000180000000     backref.obj
 0002:fffe5000       $unwind$?__TBB_LockByte@@YAEAEAE@Z 0000000180000000     frontend.obj
 0002:fffe5000       $unwind$?__TBB_LockByte@@YAEAEAE@Z 0000000180000000     backref.obj
 0004:fffb6000       $pdata$?__TBB_LockByte@@YAEAEAE@Z 0000000180000000     backref.obj
 0002:fffe5000       $unwind$??0scoped_lock@MallocMutex@@QEAA@AEAV1@@Z 0000000180000000     backref.obj
 0004:fffb6000       $pdata$??0scoped_lock@MallocMutex@@QEAA@AEAV1@@Z 0000000180000000     backref.obj
 0002:fffe5000       $unwind$??1scoped_lock@MallocMutex@@QEAA@XZ 0000000180000000     backref.obj
 0004:fffb6000       $pdata$?__TBB_TryLockByte@@YA_NAEAE@Z 0000000180000000     frontend.obj
 0004:fffb6000       $pdata$??1scoped_lock@MallocMutex@@QEAA@XZ 0000000180000000     backref.obj
 0002:fffe5000       $unwind$?__TBB_TryLockByte@@YA_NAEAE@Z 0000000180000000     frontend.obj
 0002:fffe5000       $cppxdata$??1scoped_lock@MallocMutex@@QEAA@XZ 0000000180000000     backref.obj
 0004:fffb6000       $pdata$?pause@atomic_backoff@internal@tbb@@QEAAXXZ 0000000180000000     frontend.obj
 0002:fffe5000       $ip2state$??1scoped_lock@MallocMutex@@QEAA@XZ 0000000180000000     backref.obj
 0002:fffe5000       $unwind$?pause@atomic_backoff@internal@tbb@@QEAAXXZ 0000000180000000     frontend.obj
 0002:fffe5000       $unwind$??$__TBB_store_with_release@EH@internal@tbb@@YAXAECEH@Z 0000000180000000     backref.obj
 0004:fffb6000       $pdata$??0atomic_backoff@internal@tbb@@QEAA@XZ 0000000180000000     frontend.obj
 0004:fffb6000       $pdata$??$__TBB_store_with_release@EH@internal@tbb@@YAXAECEH@Z 0000000180000000     backref.obj
 0002:fffe5000       $unwind$??0atomic_backoff@internal@tbb@@QEAA@XZ 0000000180000000     frontend.obj
 0002:fffe5000       $unwind$?FencedLoad@@YA_JAED_J@Z 0000000180000000     backref.obj
 0000:fffb1000       .debug$S                   0000000180000000     kernel32:KERNEL32.dll
 0004:fffb6000       $pdata$?FencedLoad@@YA_JAED_J@Z 0000000180000000     backref.obj
 0000:fffb1000       .debug$S                   0000000180000000     kernel32:KERNEL32.dll
 0002:fffe5000       $unwind$??$__TBB_load_with_acquire@_J@internal@tbb@@YA_JAED_J@Z 0000000180000000     backref.obj
 0000:fffb1000       .debug$S                   0000000180000000     kernel32:KERNEL32.dll
 0004:fffb6000       $pdata$??$__TBB_load_with_acquire@_J@internal@tbb@@YA_JAED_J@Z 0000000180000000     backref.obj
 0002:fffe5000       $unwind$?load_with_acquire@?$machine_load_store@_J$07@internal@tbb@@SA_JAED_J@Z 0000000180000000     frontend.obj
 0002:fffe5000       $unwind$?FencedStore@@YAXAEC_J_J@Z 0000000180000000     backref.obj
 0004:fffb6000       $pdata$?load_with_acquire@?$machine_load_store@_J$07@internal@tbb@@SA_JAED_J@Z 0000000180000000     frontend.obj
 0004:fffb6000       $pdata$?FencedStore@@YAXAEC_J_J@Z 0000000180000000     backref.obj
 0000:fffb1000       .debug$S                   0000000180000000     kernel32:KERNEL32.dll
 0002:fffe5000       $unwind$??$__TBB_store_with_release@_J_J@internal@tbb@@YAXAEC_J_J@Z 0000000180000000     backref.obj
 0000:fffb1000       .debug$S                   0000000180000000     kernel32:KERNEL32.dll
 0004:fffb6000       $pdata$??$__TBB_store_with_release@_J_J@internal@tbb@@YAXAEC_J_J@Z 0000000180000000     backref.obj
 0000:fffb1000       .debug$S                   0000000180000000     kernel32:KERNEL32.dll
 0002:fffe5000       $unwind$?isInvalid@BackRefIdx@internal@rml@@QEBA_NXZ 0000000180000000     backref.obj
 0000:fffb1000       .debug$S                   0000000180000000     kernel32:KERNEL32.dll
 0004:fffb6000       $pdata$?isInvalid@BackRefIdx@internal@rml@@QEBA_NXZ 0000000180000000     backref.obj
 0000:fffb1000       .debug$S                   0000000180000000     kernel32:KERNEL32.dll
 0002:fffe5000       $unwind$?load_with_acquire@?$machine_load_store@_J$07@internal@tbb@@SA_JAED_J@Z 0000000180000000     backref.obj
 0000:fffb1000       .debug$S                   0000000180000000     kernel32:KERNEL32.dll
 0004:fffb6000       $pdata$?load_with_acquire@?$machine_load_store@_J$07@internal@tbb@@SA_JAED_J@Z 0000000180000000     backref.obj
 0000:fffb1000       .debug$S                   0000000180000000     kernel32:KERNEL32.dll
 0000:fffb1000       .debug$S                   0000000180000000     kernel32:KERNEL32.dll
 0000:fffb1000       .debug$S                   0000000180000000     kernel32:KERNEL32.dll
 0000:fffb1000       .debug$S                   0000000180000000     kernel32:KERNEL32.dll
 0000:fffb1000       .debug$S                   0000000180000000     kernel32:KERNEL32.dll
 0000:fffb1000       .debug$S                   0000000180000000     kernel32:KERNEL32.dll
 0000:fffb1000       .debug$S                   0000000180000000     kernel32:KERNEL32.dll
 0000:fffb1000       .debug$S                   0000000180000000     kernel32:KERNEL32.dll
 0002:fffe5000       __guard_fids_?dllmain_dispatch@@YAHQEAUHINSTANCE__@@KQEAX@Z 0000000180000000     MSVCRTD:dll_dllmain.obj
 0001:00000000       ??__EmasterMutex@internal@rml@@YAXXZ 0000000180001000 f   backref.obj
 0001:00000020       ??__E?memPoolListLock@MemoryPool@internal@rml@@2VMallocMutex@@A@@YAXXZ 0000000180001020 f   frontend.obj
 0001:00000040       ??__EhugePages@internal@rml@@YAXXZ 0000000180001040 f   frontend.obj
 0001:00000060       ??__EinitMutex@internal@rml@@YAXXZ 0000000180001060 f   frontend.obj
 0001:00000080       $$000000                   0000000180001080     atomic_support.obj
 0001:000000d0       ?__TBB_machine_cmpswp1@@YADPECXDD@Z 00000001800010d0 f   backend.obj
 0001:00000110       ?__TBB_machine_cmpswp8@@YA_JPECX_J1@Z 0000000180001110 f   backend.obj
 0001:00000150       ?__TBB_machine_fetchadd8@@YA_JPECX_J@Z 0000000180001150 f   backend.obj
 0001:00000170       ?pause@msvc_intrinsics@internal@tbb@@YAX_K@Z 0000000180001170 f   backend.obj
 0001:000001a0       ?lg_bsr@msvc_intrinsics@internal@tbb@@YA_K_K@Z 00000001800011a0 f   backend.obj
 0001:000001d0       ?lock_or@msvc_intrinsics@internal@tbb@@YAXPECX_J@Z 00000001800011d0 f   backend.obj
 0001:000001f0       ?lock_and@msvc_intrinsics@internal@tbb@@YAXPECX_J@Z 00000001800011f0 f   backend.obj
 0001:00000210       ??$alignUp@_K@@YA_K_K0@Z   0000000180001210 f   backend.obj
 0001:000037f0       ??$isAligned@D@@YA_NPEAD_K@Z 00000001800047f0 f   backend.obj
 0001:00003a80       ??$alignUpGeneric@_K@@YA_K_K0@Z 0000000180004a80 f   backend.obj
 0001:00003ae0       ??$alignUp@PEAVFreeBlock@internal@rml@@@@YAPEAVFreeBlock@internal@rml@@PEAV012@_K@Z 0000000180004ae0 f   backend.obj
 0001:00003b10       ??$isAligned@VFreeBlock@internal@rml@@@@YA_NPEAVFreeBlock@internal@rml@@_K@Z 0000000180004b10 f   backend.obj
 0001:00003b40       ??$alignDown@_K@@YA_K_K0@Z 0000000180004b40 f   backend.obj
 0001:00003b70       ??$isAligned@ULastFreeBlock@internal@rml@@@@YA_NPEAULastFreeBlock@internal@rml@@_K@Z 0000000180004b70 f   backend.obj
 0001:000050c0       ?__TBB_machine_cmpswp8@@YA_JPECX_J1@Z 00000001800060c0 f   large_objects.obj
 0001:00005100       ?__TBB_machine_fetchadd8@@YA_JPECX_J@Z 0000000180006100 f   large_objects.obj
 0001:00005120       ?__TBB_machine_fetchstore8@@YA_JPECX_J@Z 0000000180006120 f   large_objects.obj
 0001:00005140       ?pause@msvc_intrinsics@internal@tbb@@YAX_K@Z 0000000180006140 f   large_objects.obj
 0001:00005170       ?lg_bsr@msvc_intrinsics@internal@tbb@@YA_K_K@Z 0000000180006170 f   large_objects.obj
 0001:000051a0       ?lock_or@msvc_intrinsics@internal@tbb@@YAXPECX_J@Z 00000001800061a0 f   large_objects.obj
 0001:000051c0       ?lock_and@msvc_intrinsics@internal@tbb@@YAXPECX_J@Z 00000001800061c0 f   large_objects.obj
 0001:00005810       ??$alignUp@_K@@YA_K_K0@Z   0000000180006810 f   large_objects.obj
 0001:0000a960       ?__TBB_machine_cmpswp1@@YADPECXDD@Z 000000018000b960 f   backref.obj
 0001:0000a9a0       ?pause@msvc_intrinsics@internal@tbb@@YAX_K@Z 000000018000b9a0 f   backref.obj
 0001:0000bb80       ?__itt_detach_init_3_0@@YAXXZ 000000018000cb80 f   itt_notify.obj
 0001:0000bbc0       ?__itt_sync_createA_init_3_0@@YAXPEAXPEBD1H@Z 000000018000cbc0 f   itt_notify.obj
 0001:0000bc20       ?__itt_sync_createW_init_3_0@@YAXPEAXPEB_W1H@Z 000000018000cc20 f   itt_notify.obj
 0001:0000bc80       ?__itt_sync_renameA_init_3_0@@YAXPEAXPEBD@Z 000000018000cc80 f   itt_notify.obj
 0001:0000bcd0       ?__itt_sync_renameW_init_3_0@@YAXPEAXPEB_W@Z 000000018000ccd0 f   itt_notify.obj
 0001:0000bd20       ?__itt_sync_destroy_init_3_0@@YAXPEAX@Z 000000018000cd20 f   itt_notify.obj
 0001:0000bd60       ?__itt_sync_prepare_init_3_0@@YAXPEAX@Z 000000018000cd60 f   itt_notify.obj
 0001:0000bda0       ?__itt_sync_cancel_init_3_0@@YAXPEAX@Z 000000018000cda0 f   itt_notify.obj
 0001:0000bde0       ?__itt_sync_acquired_init_3_0@@YAXPEAX@Z 000000018000cde0 f   itt_notify.obj
 0001:0000be20       ?__itt_sync_releasing_init_3_0@@YAXPEAX@Z 000000018000ce20 f   itt_notify.obj
 0001:0000be60       ?__itt_suppress_push_init_3_0@@YAXI@Z 000000018000ce60 f   itt_notify.obj
 0001:0000bea0       ?__itt_suppress_pop_init_3_0@@YAXXZ 000000018000cea0 f   itt_notify.obj
 0001:0000bee0       ?__itt_suppress_mark_range_init_3_0@@YAXW4__itt_suppress_mode@@IPEAX_K@Z 000000018000cee0 f   itt_notify.obj
 0001:0000bf40       ?__itt_suppress_clear_range_init_3_0@@YAXW4__itt_suppress_mode@@IPEAX_K@Z 000000018000cf40 f   itt_notify.obj
 0001:0000bfa0       ?__itt_fsync_prepare_init_3_0@@YAXPEAX@Z 000000018000cfa0 f   itt_notify.obj
 0001:0000bfe0       ?__itt_fsync_cancel_init_3_0@@YAXPEAX@Z 000000018000cfe0 f   itt_notify.obj
 0001:0000c020       ?__itt_fsync_acquired_init_3_0@@YAXPEAX@Z 000000018000d020 f   itt_notify.obj
 0001:0000c060       ?__itt_fsync_releasing_init_3_0@@YAXPEAX@Z 000000018000d060 f   itt_notify.obj
 0001:0000c0a0       ?__itt_model_site_begin_init_3_0@@YAXPEAPEAX0PEBD@Z 000000018000d0a0 f   itt_notify.obj
 0001:0000c100       ?__itt_model_site_end_init_3_0@@YAXPEAPEAX0@Z 000000018000d100 f   itt_notify.obj
 0001:0000c150       ?__itt_model_task_begin_init_3_0@@YAXPEAPEAX0PEBD@Z 000000018000d150 f   itt_notify.obj
 0001:0000c1b0       ?__itt_model_task_end_init_3_0@@YAXPEAPEAX0@Z 000000018000d1b0 f   itt_notify.obj
 0001:0000c200       ?__itt_model_lock_acquire_init_3_0@@YAXPEAX@Z 000000018000d200 f   itt_notify.obj
 0001:0000c240       ?__itt_model_lock_release_init_3_0@@YAXPEAX@Z 000000018000d240 f   itt_notify.obj
 0001:0000c280       ?__itt_model_record_allocation_init_3_0@@YAXPEAX_K@Z 000000018000d280 f   itt_notify.obj
 0001:0000c2d0       ?__itt_model_record_deallocation_init_3_0@@YAXPEAX@Z 000000018000d2d0 f   itt_notify.obj
 0001:0000c310       ?__itt_model_induction_uses_init_3_0@@YAXPEAX_K@Z 000000018000d310 f   itt_notify.obj
 0001:0000c360       ?__itt_model_reduction_uses_init_3_0@@YAXPEAX_K@Z 000000018000d360 f   itt_notify.obj
 0001:0000c3b0       ?__itt_model_observe_uses_init_3_0@@YAXPEAX_K@Z 000000018000d3b0 f   itt_notify.obj
 0001:0000c400       ?__itt_model_clear_uses_init_3_0@@YAXPEAX@Z 000000018000d400 f   itt_notify.obj
 0001:0000c440       ?__itt_model_site_beginW_init_3_0@@YAXPEB_W@Z 000000018000d440 f   itt_notify.obj
 0001:0000c480       ?__itt_model_task_beginW_init_3_0@@YAXPEB_W@Z 000000018000d480 f   itt_notify.obj
 0001:0000c4c0       ?__itt_model_iteration_taskW_init_3_0@@YAXPEB_W@Z 000000018000d4c0 f   itt_notify.obj
 0001:0000c500       ?__itt_model_site_beginA_init_3_0@@YAXPEBD@Z 000000018000d500 f   itt_notify.obj
 0001:0000c540       ?__itt_model_site_beginAL_init_3_0@@YAXPEBD_K@Z 000000018000d540 f   itt_notify.obj
 0001:0000c590       ?__itt_model_task_beginA_init_3_0@@YAXPEBD@Z 000000018000d590 f   itt_notify.obj
 0001:0000c5d0       ?__itt_model_task_beginAL_init_3_0@@YAXPEBD_K@Z 000000018000d5d0 f   itt_notify.obj
 0001:0000c620       ?__itt_model_iteration_taskA_init_3_0@@YAXPEBD@Z 000000018000d620 f   itt_notify.obj
 0001:0000c660       ?__itt_model_iteration_taskAL_init_3_0@@YAXPEBD_K@Z 000000018000d660 f   itt_notify.obj
 0001:0000c6b0       ?__itt_model_site_end_2_init_3_0@@YAXXZ 000000018000d6b0 f   itt_notify.obj
 0001:0000c6f0       ?__itt_model_task_end_2_init_3_0@@YAXXZ 000000018000d6f0 f   itt_notify.obj
 0001:0000c730       ?__itt_model_lock_acquire_2_init_3_0@@YAXPEAX@Z 000000018000d730 f   itt_notify.obj
 0001:0000c770       ?__itt_model_lock_release_2_init_3_0@@YAXPEAX@Z 000000018000d770 f   itt_notify.obj
 0001:0000c7b0       ?__itt_model_aggregate_task_init_3_0@@YAX_K@Z 000000018000d7b0 f   itt_notify.obj
 0001:0000c7f0       ?__itt_model_disable_push_init_3_0@@YAXW4__itt_model_disable@@@Z 000000018000d7f0 f   itt_notify.obj
 0001:0000c830       ?__itt_model_disable_pop_init_3_0@@YAXXZ 000000018000d830 f   itt_notify.obj
 0001:0000c870       ?__itt_heap_function_createA_init_3_0@@YAPEAXPEBD0@Z 000000018000d870 f   itt_notify.obj
 0001:0000c8c0       ?__itt_heap_function_createW_init_3_0@@YAPEAXPEB_W0@Z 000000018000d8c0 f   itt_notify.obj
 0001:0000c910       ?__itt_heap_allocate_begin_init_3_0@@YAXPEAX_KH@Z 000000018000d910 f   itt_notify.obj
 0001:0000c970       ?__itt_heap_allocate_end_init_3_0@@YAXPEAXPEAPEAX_KH@Z 000000018000d970 f   itt_notify.obj
 0001:0000c9d0       ?__itt_heap_free_begin_init_3_0@@YAXPEAX0@Z 000000018000d9d0 f   itt_notify.obj
 0001:0000ca20       ?__itt_heap_free_end_init_3_0@@YAXPEAX0@Z 000000018000da20 f   itt_notify.obj
 0001:0000ca70       ?__itt_heap_reallocate_begin_init_3_0@@YAXPEAX0_KH@Z 000000018000da70 f   itt_notify.obj
 0001:0000cad0       ?__itt_heap_reallocate_end_init_3_0@@YAXPEAX0PEAPEAX_KH@Z 000000018000dad0 f   itt_notify.obj
 0001:0000cb40       ?__itt_heap_internal_access_begin_init_3_0@@YAXXZ 000000018000db40 f   itt_notify.obj
 0001:0000cb80       ?__itt_heap_internal_access_end_init_3_0@@YAXXZ 000000018000db80 f   itt_notify.obj
 0001:0000cbc0       ?__itt_heap_record_memory_growth_begin_init_3_0@@YAXXZ 000000018000dbc0 f   itt_notify.obj
 0001:0000cc00       ?__itt_heap_record_memory_growth_end_init_3_0@@YAXXZ 000000018000dc00 f   itt_notify.obj
 0001:0000cc40       ?__itt_heap_reset_detection_init_3_0@@YAXI@Z 000000018000dc40 f   itt_notify.obj
 0001:0000cc80       ?__itt_heap_record_init_3_0@@YAXI@Z 000000018000dc80 f   itt_notify.obj
 0001:0000ccc0       ?__itt_id_create_init_3_0@@YAXPEBU___itt_domain@@U___itt_id@@@Z 000000018000dcc0 f   itt_notify.obj
 0001:0000cd20       ?__itt_id_destroy_init_3_0@@YAXPEBU___itt_domain@@U___itt_id@@@Z 000000018000dd20 f   itt_notify.obj
 0001:0000cd80       ?__itt_get_timestamp_init_3_0@@YA_KXZ 000000018000dd80 f   itt_notify.obj
 0001:0000cdc0       ?__itt_region_begin_init_3_0@@YAXPEBU___itt_domain@@U___itt_id@@1PEAU___itt_string_handle@@@Z 000000018000ddc0 f   itt_notify.obj
 0001:0000ce60       ?__itt_region_end_init_3_0@@YAXPEBU___itt_domain@@U___itt_id@@@Z 000000018000de60 f   itt_notify.obj
 0001:0000cec0       ?__itt_frame_begin_v3_init_3_0@@YAXPEBU___itt_domain@@PEAU___itt_id@@@Z 000000018000dec0 f   itt_notify.obj
 0001:0000cf10       ?__itt_frame_end_v3_init_3_0@@YAXPEBU___itt_domain@@PEAU___itt_id@@@Z 000000018000df10 f   itt_notify.obj
 0001:0000cf60       ?__itt_frame_submit_v3_init_3_0@@YAXPEBU___itt_domain@@PEAU___itt_id@@_K2@Z 000000018000df60 f   itt_notify.obj
 0001:0000cfc0       ?__itt_task_group_init_3_0@@YAXPEBU___itt_domain@@U___itt_id@@1PEAU___itt_string_handle@@@Z 000000018000dfc0 f   itt_notify.obj
 0001:0000d060       ?__itt_task_begin_init_3_0@@YAXPEBU___itt_domain@@U___itt_id@@1PEAU___itt_string_handle@@@Z 000000018000e060 f   itt_notify.obj
 0001:0000d100       ?__itt_task_begin_fn_init_3_0@@YAXPEBU___itt_domain@@U___itt_id@@1PEAX@Z 000000018000e100 f   itt_notify.obj
 0001:0000d1a0       ?__itt_task_end_init_3_0@@YAXPEBU___itt_domain@@@Z 000000018000e1a0 f   itt_notify.obj
 0001:0000d1e0       ?__itt_counter_inc_v3_init_3_0@@YAXPEBU___itt_domain@@PEAU___itt_string_handle@@@Z 000000018000e1e0 f   itt_notify.obj
 0001:0000d230       ?__itt_counter_inc_delta_v3_init_3_0@@YAXPEBU___itt_domain@@PEAU___itt_string_handle@@_K@Z 000000018000e230 f   itt_notify.obj
 0001:0000d290       ?__itt_marker_init_3_0@@YAXPEBU___itt_domain@@U___itt_id@@PEAU___itt_string_handle@@W4__itt_scope@@@Z 000000018000e290 f   itt_notify.obj
 0001:0000d310       ?__itt_metadata_add_init_3_0@@YAXPEBU___itt_domain@@U___itt_id@@PEAU___itt_string_handle@@W4__itt_metadata_type@@_KPEAX@Z 000000018000e310 f   itt_notify.obj
 0001:0000d3b0       ?__itt_metadata_str_addA_init_3_0@@YAXPEBU___itt_domain@@U___itt_id@@PEAU___itt_string_handle@@PEBD_K@Z 000000018000e3b0 f   itt_notify.obj
 0001:0000d440       ?__itt_metadata_str_addW_init_3_0@@YAXPEBU___itt_domain@@U___itt_id@@PEAU___itt_string_handle@@PEB_W_K@Z 000000018000e440 f   itt_notify.obj
 0001:0000d4d0       ?__itt_relation_add_to_current_init_3_0@@YAXPEBU___itt_domain@@W4__itt_relation@@U___itt_id@@@Z 000000018000e4d0 f   itt_notify.obj
 0001:0000d540       ?__itt_relation_add_init_3_0@@YAXPEBU___itt_domain@@U___itt_id@@W4__itt_relation@@1@Z 000000018000e540 f   itt_notify.obj
 0001:0000d5e0       ?__itt_event_createA_init_3_0@@YAHPEBDH@Z 000000018000e5e0 f   itt_notify.obj
 0001:0000d630       ?__itt_event_createW_init_3_0@@YAHPEB_WH@Z 000000018000e630 f   itt_notify.obj
 0001:0000d680       ?__itt_event_start_init_3_0@@YAHH@Z 000000018000e680 f   itt_notify.obj
 0001:0000d6d0       ?__itt_event_end_init_3_0@@YAHH@Z 000000018000e6d0 f   itt_notify.obj
 0001:0000d720       ?__itt_sync_set_nameA_init_3_0@@YAXPEAXPEBD1H@Z 000000018000e720 f   itt_notify.obj
 0001:0000d780       ?__itt_sync_set_nameW_init_3_0@@YAXPEAXPEB_W1H@Z 000000018000e780 f   itt_notify.obj
 0001:0000d7e0       ?__itt_notify_sync_nameA_init_3_0@@YAHPEAXPEBDH1HH@Z 000000018000e7e0 f   itt_notify.obj
 0001:0000d860       ?__itt_notify_sync_nameW_init_3_0@@YAHPEAXPEB_WH1HH@Z 000000018000e860 f   itt_notify.obj
 0001:0000d8e0       ?__itt_notify_sync_prepare_init_3_0@@YAXPEAX@Z 000000018000e8e0 f   itt_notify.obj
 0001:0000d920       ?__itt_notify_sync_cancel_init_3_0@@YAXPEAX@Z 000000018000e920 f   itt_notify.obj
 0001:0000d960       ?__itt_notify_sync_acquired_init_3_0@@YAXPEAX@Z 000000018000e960 f   itt_notify.obj
 0001:0000d9a0       ?__itt_notify_sync_releasing_init_3_0@@YAXPEAX@Z 000000018000e9a0 f   itt_notify.obj
 0001:0000d9e0       ?__itt_memory_read_init_3_0@@YAXPEAX_K@Z 000000018000e9e0 f   itt_notify.obj
 0001:0000da30       ?__itt_memory_write_init_3_0@@YAXPEAX_K@Z 000000018000ea30 f   itt_notify.obj
 0001:0000da80       ?__itt_memory_update_init_3_0@@YAXPEAX_K@Z 000000018000ea80 f   itt_notify.obj
 0001:0000dad0       ?__itt_state_get_init_3_0@@YAHXZ 000000018000ead0 f   itt_notify.obj
 0001:0000db10       ?__itt_state_set_init_3_0@@YAHH@Z 000000018000eb10 f   itt_notify.obj
 0001:0000db60       ?__itt_obj_mode_set_init_3_0@@YA?AW4__itt_obj_state@@W4__itt_obj_prop@@W41@@Z 000000018000eb60 f   itt_notify.obj
 0001:0000dbb0       ?__itt_thr_mode_set_init_3_0@@YA?AW4__itt_thr_state@@W4__itt_thr_prop@@W41@@Z 000000018000ebb0 f   itt_notify.obj
 0001:0000dc00       ?__itt_frame_createA_init_3_0@@YAPEAU__itt_frame_t@@PEBD@Z 000000018000ec00 f   itt_notify.obj
 0001:0000dc50       ?__itt_frame_createW_init_3_0@@YAPEAU__itt_frame_t@@PEB_W@Z 000000018000ec50 f   itt_notify.obj
 0001:0000dca0       ?__itt_frame_begin_init_3_0@@YAXPEAU__itt_frame_t@@@Z 000000018000eca0 f   itt_notify.obj
 0001:0000dce0       ?__itt_frame_end_init_3_0@@YAXPEAU__itt_frame_t@@@Z 000000018000ece0 f   itt_notify.obj
 0001:0000dd20       ?__itt_counter_createA_init_3_0@@YAPEAU___itt_counter@@PEBD0@Z 000000018000ed20 f   itt_notify.obj
 0001:0000dd70       ?__itt_counter_createW_init_3_0@@YAPEAU___itt_counter@@PEB_W0@Z 000000018000ed70 f   itt_notify.obj
 0001:0000ddc0       ?__itt_counter_destroy_init_3_0@@YAXPEAU___itt_counter@@@Z 000000018000edc0 f   itt_notify.obj
 0001:0000de00       ?__itt_counter_inc_init_3_0@@YAXPEAU___itt_counter@@@Z 000000018000ee00 f   itt_notify.obj
 0001:0000de40       ?__itt_counter_inc_delta_init_3_0@@YAXPEAU___itt_counter@@_K@Z 000000018000ee40 f   itt_notify.obj
 0001:0000de90       ?__itt_mark_createA_init_3_0@@YAHPEBD@Z 000000018000ee90 f   itt_notify.obj
 0001:0000dee0       ?__itt_mark_createW_init_3_0@@YAHPEB_W@Z 000000018000eee0 f   itt_notify.obj
 0001:0000df30       ?__itt_markA_init_3_0@@YAHHPEBD@Z 000000018000ef30 f   itt_notify.obj
 0001:0000df80       ?__itt_markW_init_3_0@@YAHHPEB_W@Z 000000018000ef80 f   itt_notify.obj
 0001:0000dfd0       ?__itt_mark_off_init_3_0@@YAHH@Z 000000018000efd0 f   itt_notify.obj
 0001:0000e020       ?__itt_mark_globalA_init_3_0@@YAHHPEBD@Z 000000018000f020 f   itt_notify.obj
 0001:0000e070       ?__itt_mark_globalW_init_3_0@@YAHHPEB_W@Z 000000018000f070 f   itt_notify.obj
 0001:0000e0c0       ?__itt_mark_global_off_init_3_0@@YAHH@Z 000000018000f0c0 f   itt_notify.obj
 0001:0000e110       ?__itt_stack_caller_create_init_3_0@@YAPEAU___itt_caller@@XZ 000000018000f110 f   itt_notify.obj
 0001:0000e150       ?__itt_stack_caller_destroy_init_3_0@@YAXPEAU___itt_caller@@@Z 000000018000f150 f   itt_notify.obj
 0001:0000e190       ?__itt_stack_callee_enter_init_3_0@@YAXPEAU___itt_caller@@@Z 000000018000f190 f   itt_notify.obj
 0001:0000e1d0       ?__itt_stack_callee_leave_init_3_0@@YAXPEAU___itt_caller@@@Z 000000018000f1d0 f   itt_notify.obj
 0001:0000e210       ?__itt_clock_domain_create_init_3_0@@YAPEAU___itt_clock_domain@@P6AXPEAU___itt_clock_info@@PEAX@Z1@Z 000000018000f210 f   itt_notify.obj
 0001:0000e260       ?__itt_clock_domain_reset_init_3_0@@YAXXZ 000000018000f260 f   itt_notify.obj
 0001:0000e2a0       ?__itt_id_create_ex_init_3_0@@YAXPEBU___itt_domain@@PEAU___itt_clock_domain@@_KU___itt_id@@@Z 000000018000f2a0 f   itt_notify.obj
 0001:0000e320       ?__itt_id_destroy_ex_init_3_0@@YAXPEBU___itt_domain@@PEAU___itt_clock_domain@@_KU___itt_id@@@Z 000000018000f320 f   itt_notify.obj
 0001:0000e3a0       ?__itt_task_begin_ex_init_3_0@@YAXPEBU___itt_domain@@PEAU___itt_clock_domain@@_KU___itt_id@@3PEAU___itt_string_handle@@@Z 000000018000f3a0 f   itt_notify.obj
 0001:0000e450       ?__itt_task_begin_fn_ex_init_3_0@@YAXPEBU___itt_domain@@PEAU___itt_clock_domain@@_KU___itt_id@@3PEAX@Z 000000018000f450 f   itt_notify.obj
 0001:0000e500       ?__itt_task_end_ex_init_3_0@@YAXPEBU___itt_domain@@PEAU___itt_clock_domain@@_K@Z 000000018000f500 f   itt_notify.obj
 0001:0000e560       ?__itt_task_begin_overlapped_init_3_0@@YAXPEBU___itt_domain@@U___itt_id@@1PEAU___itt_string_handle@@@Z 000000018000f560 f   itt_notify.obj
 0001:0000e600       ?__itt_task_begin_overlapped_ex_init_3_0@@YAXPEBU___itt_domain@@PEAU___itt_clock_domain@@_KU___itt_id@@3PEAU___itt_string_handle@@@Z 000000018000f600 f   itt_notify.obj
 0001:0000e6b0       ?__itt_task_end_overlapped_init_3_0@@YAXPEBU___itt_domain@@U___itt_id@@@Z 000000018000f6b0 f   itt_notify.obj
 0001:0000e710       ?__itt_task_end_overlapped_ex_init_3_0@@YAXPEBU___itt_domain@@PEAU___itt_clock_domain@@_KU___itt_id@@@Z 000000018000f710 f   itt_notify.obj
 0001:0000e790       ?__itt_marker_ex_init_3_0@@YAXPEBU___itt_domain@@PEAU___itt_clock_domain@@_KU___itt_id@@PEAU___itt_string_handle@@W4__itt_scope@@@Z 000000018000f790 f   itt_notify.obj
 0001:0000e830       ?__itt_metadata_add_with_scope_init_3_0@@YAXPEBU___itt_domain@@W4__itt_scope@@PEAU___itt_string_handle@@W4__itt_metadata_type@@_KPEAX@Z 000000018000f830 f   itt_notify.obj
 0001:0000e8a0       ?__itt_metadata_str_add_with_scopeA_init_3_0@@YAXPEBU___itt_domain@@W4__itt_scope@@PEAU___itt_string_handle@@PEBD_K@Z 000000018000f8a0 f   itt_notify.obj
 0001:0000e910       ?__itt_metadata_str_add_with_scopeW_init_3_0@@YAXPEBU___itt_domain@@W4__itt_scope@@PEAU___itt_string_handle@@PEB_W_K@Z 000000018000f910 f   itt_notify.obj
 0001:0000e980       ?__itt_relation_add_to_current_ex_init_3_0@@YAXPEBU___itt_domain@@PEAU___itt_clock_domain@@_KW4__itt_relation@@U___itt_id@@@Z 000000018000f980 f   itt_notify.obj
 0001:0000ea10       ?__itt_relation_add_ex_init_3_0@@YAXPEBU___itt_domain@@PEAU___itt_clock_domain@@_KU___itt_id@@W4__itt_relation@@3@Z 000000018000fa10 f   itt_notify.obj
 0001:0000eac0       ?__itt_track_group_create_init_3_0@@YAPEAU___itt_track_group@@PEAU___itt_string_handle@@W4___itt_track_group_type@@@Z 000000018000fac0 f   itt_notify.obj
 0001:0000eb10       ?__itt_track_create_init_3_0@@YAPEAU___itt_track@@PEAU___itt_track_group@@PEAU___itt_string_handle@@W4___itt_track_type@@@Z 000000018000fb10 f   itt_notify.obj
 0001:0000eb70       ?__itt_set_track_init_3_0@@YAXPEAU___itt_track@@@Z 000000018000fb70 f   itt_notify.obj
 0001:0000ebb0       ?__itt_api_version_init_3_0@@YAPEBDXZ 000000018000fbb0 f   itt_notify.obj
 0001:0000ebf0       ?__itt_av_saveA_init_3_0@@YAHPEAXHPEBHHPEBDH@Z 000000018000fbf0 f   itt_notify.obj
 0001:0000ec70       ?__itt_av_saveW_init_3_0@@YAHPEAXHPEBHHPEB_WH@Z 000000018000fc70 f   itt_notify.obj
 0001:0000ecf0       ?__itt_domain_createA_init_3_0@@YAPEAU___itt_domain@@PEBD@Z 000000018000fcf0 f   itt_notify.obj
 0001:0000eef0       ?__itt_domain_createW_init_3_0@@YAPEAU___itt_domain@@PEB_W@Z 000000018000fef0 f   itt_notify.obj
 0001:0000f0f0       ?__itt_string_handle_createA_init_3_0@@YAPEAU___itt_string_handle@@PEBD@Z 00000001800100f0 f   itt_notify.obj
 0001:0000f2e0       ?__itt_string_handle_createW_init_3_0@@YAPEAU___itt_string_handle@@PEB_W@Z 00000001800102e0 f   itt_notify.obj
 0001:0000f4d0       ?__itt_pause_init_3_0@@YAXXZ 00000001800104d0 f   itt_notify.obj
 0001:0000f530       ?__itt_resume_init_3_0@@YAXXZ 0000000180010530 f   itt_notify.obj
 0001:0000f590       ?__itt_thread_set_nameA_init_3_0@@YAXPEBD@Z 0000000180010590 f   itt_notify.obj
 0001:0000f5f0       ?__itt_thread_set_nameW_init_3_0@@YAXPEB_W@Z 00000001800105f0 f   itt_notify.obj
 0001:0000f650       ?__itt_thread_ignore_init_3_0@@YAXXZ 0000000180010650 f   itt_notify.obj
 0001:0000f6a0       ?__itt_thr_name_setA_init_3_0@@YAHPEBDH@Z 00000001800106a0 f   itt_notify.obj
 0001:0000f6d0       ?__itt_thr_name_setW_init_3_0@@YAHPEB_WH@Z 00000001800106d0 f   itt_notify.obj
 0001:0000f700       ?__itt_thr_ignore_init_3_0@@YAXXZ 0000000180010700 f   itt_notify.obj
 0001:0000f720       ?__itt_enable_attach_init_3_0@@YAXXZ 0000000180010720 f   itt_notify.obj
 0001:0000f730       ?__itt_report_error_impl@@YAXHZZ 0000000180010730 f   itt_notify.obj
 0001:0000f790       ?__itt_fsplit@@YAPEBDPEBD0PEAPEBDPEAH@Z 0000000180010790 f   itt_notify.obj
 0001:0000f9c0       ?__itt_get_env_var@@YAPEBDPEBD@Z 00000001800109c0 f   itt_notify.obj
 0001:0000fad0       ?__itt_get_lib_name@@YAPEBDXZ 0000000180010ad0 f   itt_notify.obj
 0001:0000fb00       ?__itt_get_groups@@YA?AW4___itt_group_id@@XZ 0000000180010b00 f   itt_notify.obj
 0001:0000fd70       ?__itt_lib_version@@YAHPEAUHINSTANCE__@@@Z 0000000180010d70 f   itt_notify.obj
 0001:0000fdd0       ?__itt_nullify_all_pointers@@YAXXZ 0000000180010dd0 f   itt_notify.obj
 0001:00010280       ?__TBB_machine_cmpswp1@@YADPECXDD@Z 0000000180011280 f   frontend.obj
 0001:000102c0       ?__TBB_machine_cmpswp8@@YA_JPECX_J1@Z 00000001800112c0 f   frontend.obj
 0001:00010300       ?__TBB_machine_fetchstore8@@YA_JPECX_J@Z 0000000180011300 f   frontend.obj
 0001:00010320       ?pause@msvc_intrinsics@internal@tbb@@YAX_K@Z 0000000180011320 f   frontend.obj
 0001:00010350       ?isPowerOfTwo@@YA_N_K@Z    0000000180011350 f   frontend.obj
 0001:00010370       ?isPowerOfTwoAtLeast@@YA_N_K0@Z 0000000180011370 f   frontend.obj
 0001:00011b20       ??$alignUp@_K@@YA_K_K0@Z   0000000180012b20 f   frontend.obj
 0001:00011b50       ??$isAligned@VBlockI@internal@rml@@@@YA_NPEAVBlockI@internal@rml@@_K@Z 0000000180012b50 f   frontend.obj
 0001:00011df0       ?GetBoolEnvironmentVariable@internal@tbb@@YA_NPEBD@Z 0000000180012df0 f   frontend.obj
 0001:00013610       ??$isAligned@$$CBX@@YA_NPEBX_K@Z 0000000180014610 f   frontend.obj
 0001:00014200       ?internalMalloc@internal@rml@@YAPEAX_K@Z 0000000180015200 f   frontend.obj
 0001:00014260       ?internalFree@internal@rml@@YAXPEAX@Z 0000000180015260 f   frontend.obj
 0001:00014290       ?internalPoolMalloc@internal@rml@@YAPEAXPEAVMemoryPool@12@_K@Z 0000000180015290 f   frontend.obj
 0001:00014530       ?internalPoolFree@internal@rml@@YA_NPEAVMemoryPool@12@PEAX_K@Z 0000000180015530 f   frontend.obj
 0001:00014620       ?highestBitPos@internal@rml@@YAII@Z 0000000180015620 f   frontend.obj
 0001:000146b0       ?getIndex@internal@rml@@YAII@Z 00000001800156b0 f   frontend.obj
 0001:000146d0       ??$getIndexOrObjectSize@$00@internal@rml@@YAII@Z 00000001800156d0 f   frontend.obj
 0001:000148a0       ?getObjectSize@internal@rml@@YAII@Z 00000001800158a0 f   frontend.obj
 0001:000148c0       ??$getIndexOrObjectSize@$0A@@internal@rml@@YAII@Z 00000001800158c0 f   frontend.obj
 0001:00014a90       ??$isAligned@UFreeObject@internal@rml@@@@YA_NPEAUFreeObject@internal@rml@@_K@Z 0000000180015a90 f   frontend.obj
 0001:00014ae0       ?initMemoryManager@internal@rml@@YA_NXZ 0000000180015ae0 f   frontend.obj
 0001:00014c10       ??$isAligned@VMemoryPool@internal@rml@@@@YA_NPEAVMemoryPool@internal@rml@@_K@Z 0000000180015c10 f   frontend.obj
 0001:00014c40       ?GetBoolEnvironmentVariable@internal@rml@@YA_NPEBD@Z 0000000180015c40 f   frontend.obj
 0001:00014c60       ?doInitialization@internal@rml@@YA_NXZ 0000000180015c60 f   frontend.obj
 0001:00014dd0       ??$alignDown@_K@@YA_K_K0@Z 0000000180015dd0 f   frontend.obj
 0001:00014e00       ??$isAligned@X@@YA_NPEAX_K@Z 0000000180015e00 f   frontend.obj
 0001:00014e30       ?allocateAligned@internal@rml@@YAPEAXPEAVMemoryPool@12@_K1@Z 0000000180015e30 f   frontend.obj
 0001:00015010       ??$alignUp@PEAX@@YAPEAXPEAX_K@Z 0000000180016010 f   frontend.obj
 0001:00015040       ?reallocAligned@internal@rml@@YAPEAXPEAVMemoryPool@12@PEAX_K2@Z 0000000180016040 f   frontend.obj
 0001:00015320       ??$alignDown@PEAX@@YAPEAXPEAX_K@Z 0000000180016320 f   frontend.obj
 0001:00015350       ?safer_dereference@internal@rml@@YA?AVBackRefIdx@12@PEBV312@@Z 0000000180016350 f   frontend.obj
 0001:000153b0       ?isSmallObject@internal@rml@@YA_NPEAX@Z 00000001800163b0 f   frontend.obj
 0001:00015440       ?isRecognized@internal@rml@@YA_NPEAX@Z 0000000180016440 f   frontend.obj
 0001:000154b0       ?freeSmallObject@internal@rml@@YAXPEAX@Z 00000001800164b0 f   frontend.obj
 0001:00015530       ?internalMsize@internal@rml@@YA_KPEAX@Z 0000000180016530 f   frontend.obj
 0001:000156f0       ??$alignUp@I@@YAII_K@Z     00000001800166f0 f   frontend.obj
 0001:00017e80       capture_current_context    0000000180018e80 f   MSVCRTD:gs_report.obj
 0001:00017f20       capture_previous_context   0000000180018f20 f   MSVCRTD:gs_report.obj
 0001:00018120       $$000000                   0000000180019120     MSVCRTD:amdsecgs.obj
 0001:00018160       ?dllmain_crt_dispatch@@YAHQEAUHINSTANCE__@@KQEAX@Z 0000000180019160 f   MSVCRTD:dll_dllmain.obj
 0001:000181f0       ?dllmain_crt_process_attach@@YAHQEAUHINSTANCE__@@QEAX@Z 00000001800191f0 f   MSVCRTD:dll_dllmain.obj
 0001:00018330       ?dllmain_crt_process_detach@@YAH_N@Z 0000000180019330 f   MSVCRTD:dll_dllmain.obj
 0001:000183c0       ?dllmain_dispatch@@YAHQEAUHINSTANCE__@@KQEAX@Z 00000001800193c0 f   MSVCRTD:dll_dllmain.obj
 0001:00018500       ?dllmain_raw@@YAHQEAUHINSTANCE__@@KQEAX@Z 0000000180019500 f   MSVCRTD:dll_dllmain.obj
 0001:000185c0       __get_entropy              00000001800195c0 f   MSVCRTD:gs_support.obj
 0001:00018860       ?find_pe_section@@YAPEAU_IMAGE_SECTION_HEADER@@QEAE_K@Z 0000000180019860 f   MSVCRTD:utility.obj
 0001:00018940       ?is_potentially_valid_image_base@@YA_NQEAX@Z 0000000180019940 f   MSVCRTD:utility.obj
 0001:00019920       $$000000                   000000018001a920     MSVCRTD:guard_dispatch.obj
 0001:00019940       ?dtor$0@?0??getFromBin@IndexedBins@Backend@internal@rml@@AEAAPEAVFreeBlock@34@HPEAVBackendSync@34@_K_N22PEAH@Z@4HA 000000018001a940 f   backend.obj
 0001:0001995b       ?dtor$0@?0??tryReleaseRegions@IndexedBins@Backend@internal@rml@@QEAA_NHPEAV234@@Z@4HA 000000018001a95b f   backend.obj
 0001:00019973       ?dtor$0@?0??lockRemoveBlock@IndexedBins@Backend@internal@rml@@QEAAXHPEAVFreeBlock@34@@Z@4HA 000000018001a973 f   backend.obj
 0001:0001998b       ?dtor$0@?0??registerAlloc@UsedAddressRange@Backend@internal@rml@@QEAAX_K0@Z@4HA 000000018001a98b f   backend.obj
 0001:000199a3       ?dtor$0@?0??registerFree@UsedAddressRange@Backend@internal@rml@@QEAAX_K0@Z@4HA 000000018001a9a3 f   backend.obj
 0001:000199bb       ?dtor$0@?0??requestBootstrapMem@Backend@internal@rml@@AEAAXXZ@4HA 000000018001a9bb f   backend.obj
 0001:000199e0       ?dtor$0@?0??newBackRef@BackRefIdx@internal@rml@@SA?AV123@_N@Z@4HA 000000018001a9e0 f   backref.obj
 0001:000199f8       ?dtor$0@?0??removeBackRef@internal@rml@@YAXVBackRefIdx@12@@Z@4HA 000000018001a9f8 f   backref.obj
 0001:00019a10       ?dtor$1@?0??removeBackRef@internal@rml@@YAXVBackRefIdx@12@@Z@4HA 000000018001aa10 f   backref.obj
 0001:00019a28       ?dtor$0@?0??findFreeBlock@BackRefMaster@internal@rml@@QEAAPEAUBackRefBlock@23@XZ@4HA 000000018001aa28 f   backref.obj
 0001:00019a40       ?dtor$0@?0??requestNewSpace@BackRefMaster@internal@rml@@QEAA_NXZ@4HA 000000018001aa40 f   backref.obj
 0001:00019a58       ?dtor$1@?0??requestNewSpace@BackRefMaster@internal@rml@@QEAA_NXZ@4HA 000000018001aa58 f   backref.obj
 0001:00019a70       ?dtor$0@?0??registerThread@AllLocalCaches@internal@rml@@QEAAXPEAUTLSRemote@23@@Z@4HA 000000018001aa70 f   frontend.obj
 0001:00019a88       ?dtor$0@?0??unregisterThread@AllLocalCaches@internal@rml@@QEAAXPEAUTLSRemote@23@@Z@4HA 000000018001aa88 f   frontend.obj
 0001:00019aa0       ?dtor$0@?0??cleanup@AllLocalCaches@internal@rml@@QEAA_NPEAUExtMemoryPool@23@_N@Z@4HA 000000018001aaa0 f   frontend.obj
 0001:00019ab8       ?dtor$0@?0??markUnused@AllLocalCaches@internal@rml@@QEAAXXZ@4HA 000000018001aab8 f   frontend.obj
 0001:00019ad0       ?dtor$0@?0??allocate@BootStrapBlocks@internal@rml@@QEAAPEAXPEAVMemoryPool@23@_K@Z@4HA 000000018001aad0 f   frontend.obj
 0001:00019ae8       ?dtor$0@?0??getPublicFreeListBlock@Bin@internal@rml@@QEAAPEAVBlock@23@XZ@4HA 000000018001aae8 f   frontend.obj
 0001:00019b00       ?dtor$0@?0??doInitialization@internal@rml@@YA_NXZ@4HA 000000018001ab00 f   frontend.obj
 0001:00019b18       ?dtor$1@?0??doInitialization@internal@rml@@YA_NXZ@4HA 000000018001ab18 f   frontend.obj
 0001:00019b30       ?filt$0@?0??safer_dereference@internal@rml@@YA?AVBackRefIdx@12@PEBV312@@Z@4HA 000000018001ab30 f   frontend.obj
 0001:00019b6d       ?dtor$0@?0??doThreadShutdownNotification@@YAXPEAVTLSData@internal@rml@@_N@Z@4HA 000000018001ab6d f   frontend.obj
 0001:00019b90       ?dtor$0@?0??init@HugePagesStatus@internal@rml@@QEAAXXZ@4HA 000000018001ab90 f   frontend.obj
 0001:00019bb0       ?fin$0@?0??dllmain_crt_process_attach@@YAHQEAUHINSTANCE__@@QEAX@Z@4HA 000000018001abb0 f   MSVCRTD:dll_dllmain.obj
 0001:00019bd0       ?fin$0@?0??dllmain_crt_process_detach@@YAH_N@Z@4HA 000000018001abd0 f   MSVCRTD:dll_dllmain.obj
 0001:00019bf0       ?filt$0@?0??dllmain_dispatch@@YAHQEAUHINSTANCE__@@KQEAX@Z@4HA 000000018001abf0 f   MSVCRTD:dll_dllmain.obj
 0001:00019c40       __scrt_is_nonwritable_in_current_image$filt$0 000000018001ac40 f   MSVCRTD:utility.obj
 0002:00000228       ?masterMutex$initializer$@internal@rml@@3P6AXXZEA 000000018001b228     backref.obj
 0002:00000230       ??memPoolListLock$initializer$@MemoryPool@internal@rml@@2P6AXXZEA@@3P6AXXZEA 000000018001b230     frontend.obj
 0002:00000238       ?hugePages$initializer$@internal@rml@@3P6AXXZEA 000000018001b238     frontend.obj
 0002:00000240       ?initMutex$initializer$@internal@rml@@3P6AXXZEA 000000018001b240     frontend.obj
 0002:00000280       __itt_null                 000000018001b280     backend.obj
 0002:00000298       $SG113192                  000000018001b298     backend.obj
 0002:000002b0       $SG113193                  000000018001b2b0     backend.obj
 0002:000002fc       $SG113848                  000000018001b2fc     backend.obj
 0002:00000308       $SG113194                  000000018001b308     backend.obj
 0002:00000320       $SG113195                  000000018001b320     backend.obj
 0002:0000036c       $SG114140                  000000018001b36c     backend.obj
 0002:00000378       $SG113196                  000000018001b378     backend.obj
 0002:000003a8       $SG113236                  000000018001b3a8     backend.obj
 0002:000003d8       $SG113237                  000000018001b3d8     backend.obj
 0002:00000400       $SG113197                  000000018001b400     backend.obj
 0002:00000450       $SG113210                  000000018001b450     backend.obj
 0002:000004a0       $SG113211                  000000018001b4a0     backend.obj
 0002:000004f0       $SG113238                  000000018001b4f0     backend.obj
 0002:00000540       $SG113239                  000000018001b540     backend.obj
 0002:00000560       $SG113240                  000000018001b560     backend.obj
 0002:00000570       $SG113241                  000000018001b570     backend.obj
 0002:000005c0       $SG113247                  000000018001b5c0     backend.obj
 0002:000005e8       $SG113248                  000000018001b5e8     backend.obj
 0002:000005f8       $SG113252                  000000018001b5f8     backend.obj
 0002:00000620       $SG113249                  000000018001b620     backend.obj
 0002:00000670       $SG113251                  000000018001b670     backend.obj
 0002:00000690       $SG113253                  000000018001b690     backend.obj
 0002:000006e0       $SG113266                  000000018001b6e0     backend.obj
 0002:00000700       $SG113267                  000000018001b700     backend.obj
 0002:00000728       $SG113271                  000000018001b728     backend.obj
 0002:00000748       $SG113272                  000000018001b748     backend.obj
 0002:00000760       $SG113268                  000000018001b760     backend.obj
 0002:000007b0       $SG113273                  000000018001b7b0     backend.obj
 0002:00000808       $SG113489                  000000018001b808     backend.obj
 0002:00000838       $SG113572                  000000018001b838     backend.obj
 0002:00000850       $SG113490                  000000018001b850     backend.obj
 0002:000008a0       $SG113573                  000000018001b8a0     backend.obj
 0002:000008c0       $SG113574                  000000018001b8c0     backend.obj
 0002:00000910       $SG113598                  000000018001b910     backend.obj
 0002:00000940       $SG113599                  000000018001b940     backend.obj
 0002:00000970       $SG113600                  000000018001b970     backend.obj
 0002:000009c0       $SG113685                  000000018001b9c0     backend.obj
 0002:000009e0       $SG113686                  000000018001b9e0     backend.obj
 0002:00000a30       $SG113706                  000000018001ba30     backend.obj
 0002:00000a48       $SG113707                  000000018001ba48     backend.obj
 0002:00000a68       $SG113709                  000000018001ba68     backend.obj
 0002:00000aa0       $SG113708                  000000018001baa0     backend.obj
 0002:00000af0       $SG113710                  000000018001baf0     backend.obj
 0002:00000b28       $SG113805                  000000018001bb28     backend.obj
 0002:00000b50       $SG113711                  000000018001bb50     backend.obj
 0002:00000ba0       $SG113806                  000000018001bba0     backend.obj
 0002:00000bf0       $SG113846                  000000018001bbf0     backend.obj
 0002:00000c08       $SG114069                  000000018001bc08     backend.obj
 0002:00000c30       $SG113847                  000000018001bc30     backend.obj
 0002:00000c80       $SG113849                  000000018001bc80     backend.obj
 0002:00000cd0       $SG113949                  000000018001bcd0     backend.obj
 0002:00000ce0       $SG113950                  000000018001bce0     backend.obj
 0002:00000cf0       $SG113951                  000000018001bcf0     backend.obj
 0002:00000d40       $SG113961                  000000018001bd40     backend.obj
 0002:00000d50       $SG113962                  000000018001bd50     backend.obj
 0002:00000d60       $SG113963                  000000018001bd60     backend.obj
 0002:00000db0       $SG113968                  000000018001bdb0     backend.obj
 0002:00000e08       $SG114112                  000000018001be08     backend.obj
 0002:00000e40       $SG113969                  000000018001be40     backend.obj
 0002:00000e90       $SG113970                  000000018001be90     backend.obj
 0002:00000ec0       $SG113971                  000000018001bec0     backend.obj
 0002:00000f10       $SG114047                  000000018001bf10     backend.obj
 0002:00000f30       $SG114048                  000000018001bf30     backend.obj
 0002:00000f80       $SG114070                  000000018001bf80     backend.obj
 0002:00000fd0       $SG114075                  000000018001bfd0     backend.obj
 0002:00000ff0       $SG114076                  000000018001bff0     backend.obj
 0002:00001020       $SG114077                  000000018001c020     backend.obj
 0002:00001070       $SG114111                  000000018001c070     backend.obj
 0002:000010b8       $SG114116                  000000018001c0b8     backend.obj
 0002:000010d0       $SG114113                  000000018001c0d0     backend.obj
 0002:00001120       $SG114115                  000000018001c120     backend.obj
 0002:00001168       $SG114136                  000000018001c168     backend.obj
 0002:00001188       $SG114137                  000000018001c188     backend.obj
 0002:000011a0       $SG114117                  000000018001c1a0     backend.obj
 0002:000011f0       $SG114138                  000000018001c1f0     backend.obj
 0002:00001240       $SG114139                  000000018001c240     backend.obj
 0002:00001270       $SG114141                  000000018001c270     backend.obj
 0002:000012c0       $SG114183                  000000018001c2c0     backend.obj
 0002:000012e0       $SG114184                  000000018001c2e0     backend.obj
 0002:00001330       $SG114185                  000000018001c330     backend.obj
 0002:00001360       $SG114186                  000000018001c360     backend.obj
 0002:000013b0       $SG114187                  000000018001c3b0     backend.obj
 0002:000013d0       $SG114188                  000000018001c3d0     backend.obj
 0002:00001420       $SG114189                  000000018001c420     backend.obj
 0002:00001450       $SG114190                  000000018001c450     backend.obj
 0002:000014a0       $cppxdata$?getFromBin@IndexedBins@Backend@internal@rml@@AEAAPEAVFreeBlock@34@HPEAVBackendSync@34@_K_N22PEAH@Z 000000018001c4a0     backend.obj
 0002:000014c8       $cppxdata$?tryReleaseRegions@IndexedBins@Backend@internal@rml@@QEAA_NHPEAV234@@Z 000000018001c4c8     backend.obj
 0002:000014f0       $cppxdata$?lockRemoveBlock@IndexedBins@Backend@internal@rml@@QEAAXHPEAVFreeBlock@34@@Z 000000018001c4f0     backend.obj
 0002:00001518       $cppxdata$?registerAlloc@UsedAddressRange@Backend@internal@rml@@QEAAX_K0@Z 000000018001c518     backend.obj
 0002:00001540       $cppxdata$?registerFree@UsedAddressRange@Backend@internal@rml@@QEAAX_K0@Z 000000018001c540     backend.obj
 0002:00001568       $cppxdata$?requestBootstrapMem@Backend@internal@rml@@AEAAXXZ 000000018001c568     backend.obj
 0002:00001590       $cppxdata$??1scoped_lock@MallocMutex@@QEAA@XZ 000000018001c590     backend.obj
 0002:00001770       $SG115496                  000000018001c770     large_objects.obj
 0002:000017c0       $SG115497                  000000018001c7c0     large_objects.obj
 0002:00001808       $SG116055                  000000018001c808     large_objects.obj
 0002:00001840       $SG115498                  000000018001c840     large_objects.obj
 0002:00001890       $SG115557                  000000018001c890     large_objects.obj
 0002:000018d0       $SG115558                  000000018001c8d0     large_objects.obj
 0002:00001920       $SG115590                  000000018001c920     large_objects.obj
 0002:00001968       $SG115639                  000000018001c968     large_objects.obj
 0002:000019a8       $SG116056                  000000018001c9a8     large_objects.obj
 0002:000019b0       $SG115591                  000000018001c9b0     large_objects.obj
 0002:000019f8       $SG116137                  000000018001c9f8     large_objects.obj
 0002:00001a30       $SG115592                  000000018001ca30     large_objects.obj
 0002:00001a80       $SG115640                  000000018001ca80     large_objects.obj
 0002:00001ad0       $SG116057                  000000018001cad0     large_objects.obj
 0002:00001b20       $SG116138                  000000018001cb20     large_objects.obj
 0002:00001b28       $SG116263                  000000018001cb28     large_objects.obj
 0002:00001b40       $SG116139                  000000018001cb40     large_objects.obj
 0002:00001b90       $SG116264                  000000018001cb90     large_objects.obj
 0002:00001b98       $SG116266                  000000018001cb98     large_objects.obj
 0002:00001bc0       $SG116265                  000000018001cbc0     large_objects.obj
 0002:00001c10       $SG116267                  000000018001cc10     large_objects.obj
 0002:00001c28       $SG116313                  000000018001cc28     large_objects.obj
 0002:00001c40       $SG116268                  000000018001cc40     large_objects.obj
 0002:00001c90       $SG116314                  000000018001cc90     large_objects.obj
 0002:00001c98       $SG116316                  000000018001cc98     large_objects.obj
 0002:00001cc0       $SG116315                  000000018001ccc0     large_objects.obj
 0002:00001d10       $SG116317                  000000018001cd10     large_objects.obj
 0002:00001d28       $SG116334                  000000018001cd28     large_objects.obj
 0002:00001d58       $SG116336                  000000018001cd58     large_objects.obj
 0002:00001d88       $SG116342                  000000018001cd88     large_objects.obj
 0002:00001d90       $SG116318                  000000018001cd90     large_objects.obj
 0002:00001de0       $SG116335                  000000018001cde0     large_objects.obj
 0002:00001e30       $SG116337                  000000018001ce30     large_objects.obj
 0002:00001e80       $SG116343                  000000018001ce80     large_objects.obj
 0002:00001ed0       $SG116346                  000000018001ced0     large_objects.obj
 0002:00001ee0       $SG116347                  000000018001cee0     large_objects.obj
 0002:00001f30       $SG116375                  000000018001cf30     large_objects.obj
 0002:00001f68       $SG116418                  000000018001cf68     large_objects.obj
 0002:00001f98       $SG116420                  000000018001cf98     large_objects.obj
 0002:00001fc8       $SG116426                  000000018001cfc8     large_objects.obj
 0002:00001fd0       $SG116376                  000000018001cfd0     large_objects.obj
 0002:00002020       $SG116381                  000000018001d020     large_objects.obj
 0002:00002030       $SG116382                  000000018001d030     large_objects.obj
 0002:00002080       $SG116419                  000000018001d080     large_objects.obj
 0002:000020d0       $SG116421                  000000018001d0d0     large_objects.obj
 0002:00002120       $SG116427                  000000018001d120     large_objects.obj
 0002:00002170       $SG116430                  000000018001d170     large_objects.obj
 0002:00002180       $SG116431                  000000018001d180     large_objects.obj
 0002:000021d0       $SG116459                  000000018001d1d0     large_objects.obj
 0002:00002208       $SG116503                  000000018001d208     large_objects.obj
 0002:00002218       $SG116515                  000000018001d218     large_objects.obj
 0002:00002220       $SG116460                  000000018001d220     large_objects.obj
 0002:00002270       $SG116465                  000000018001d270     large_objects.obj
 0002:00002280       $SG116466                  000000018001d280     large_objects.obj
 0002:000022d0       $SG116504                  000000018001d2d0     large_objects.obj
 0002:00002320       $SG116516                  000000018001d320     large_objects.obj
 0002:00002370       $SG116533                  000000018001d370     large_objects.obj
 0002:00002380       $SG116534                  000000018001d380     large_objects.obj
 0002:000023d0       $SG116545                  000000018001d3d0     large_objects.obj
 0002:000023d8       __itt_null                 000000018001d3d8     large_objects.obj
 0002:000023f0       $SG116546                  000000018001d3f0     large_objects.obj
 0002:00002440       $SG113477                  000000018001d440     large_objects.obj
 0002:00002458       $SG113516                  000000018001d458     large_objects.obj
 0002:00002480       $SG113478                  000000018001d480     large_objects.obj
 0002:000024d0       $SG113517                  000000018001d4d0     large_objects.obj
 0002:00002520       $SG113518                  000000018001d520     large_objects.obj
 0002:00002538       $SG114522                  000000018001d538     large_objects.obj
 0002:00002550       $SG113519                  000000018001d550     large_objects.obj
 0002:000025a0       $SG114510                  000000018001d5a0     large_objects.obj
 0002:000025c0       $SG114511                  000000018001d5c0     large_objects.obj
 0002:00002610       $SG114523                  000000018001d610     large_objects.obj
 0002:00002660       $SG114592                  000000018001d660     large_objects.obj
 0002:00002680       $SG114593                  000000018001d680     large_objects.obj
 0002:000026d0       $SG114604                  000000018001d6d0     large_objects.obj
 0002:000026e0       $SG114605                  000000018001d6e0     large_objects.obj
 0002:00002830       __itt_null                 000000018001d830     backref.obj
 0002:00002850       $SG113310                  000000018001d850     backref.obj
 0002:00002860       $SG113311                  000000018001d860     backref.obj
 0002:000028b0       $SG113356                  000000018001d8b0     backref.obj
 0002:000028d0       $SG113357                  000000018001d8d0     backref.obj
 0002:00002920       $SG113378                  000000018001d920     backref.obj
 0002:00002980       $SG113379                  000000018001d980     backref.obj
 0002:000029d0       $SG113414                  000000018001d9d0     backref.obj
 0002:000029e0       $SG113415                  000000018001d9e0     backref.obj
 0002:00002a30       $SG113419                  000000018001da30     backref.obj
 0002:00002ad0       $SG113420                  000000018001dad0     backref.obj
 0002:00002b20       $SG113423                  000000018001db20     backref.obj
 0002:00002b70       $SG113424                  000000018001db70     backref.obj
 0002:00002bc0       $SG113428                  000000018001dbc0     backref.obj
 0002:00002bd0       $SG113429                  000000018001dbd0     backref.obj
 0002:00002c20       $SG113454                  000000018001dc20     backref.obj
 0002:00002c40       $SG113455                  000000018001dc40     backref.obj
 0002:00002c90       $SG113456                  000000018001dc90     backref.obj
 0002:00002cf0       $SG113457                  000000018001dcf0     backref.obj
 0002:00002d40       $SG113458                  000000018001dd40     backref.obj
 0002:00002da0       $SG113459                  000000018001dda0     backref.obj
 0002:00002df0       $SG113460                  000000018001ddf0     backref.obj
 0002:00002e80       $SG113461                  000000018001de80     backref.obj
 0002:00002ed0       $cppxdata$?newBackRef@BackRefIdx@internal@rml@@SA?AV123@_N@Z 000000018001ded0     backref.obj
 0002:00002ef8       $cppxdata$?removeBackRef@internal@rml@@YAXVBackRefIdx@12@@Z 000000018001def8     backref.obj
 0002:00002f20       $cppxdata$?findFreeBlock@BackRefMaster@internal@rml@@QEAAPEAUBackRefBlock@23@XZ 000000018001df20     backref.obj
 0002:00002f48       $cppxdata$?requestNewSpace@BackRefMaster@internal@rml@@QEAA_NXZ 000000018001df48     backref.obj
 0002:00003030       $SG42182                   000000018001e030     tbbmalloc.obj
 0002:0000305b       $SG42186                   000000018001e05b     tbbmalloc.obj
 0002:00003060       $SG42184                   000000018001e060     tbbmalloc.obj
 0002:0000307c       $SG42187                   000000018001e07c     tbbmalloc.obj
 0002:00003088       $SG42188                   000000018001e088     tbbmalloc.obj
 0002:00003098       $SG111253                  000000018001e098     tbbmalloc.obj
 0002:000030b8       $SG111254                  000000018001e0b8     tbbmalloc.obj
 0002:000030c8       __itt_null                 000000018001e0c8     tbbmalloc.obj
 0002:000030e0       $SG111255                  000000018001e0e0     tbbmalloc.obj
 0002:00003130       __itt_null                 000000018001e130     itt_notify.obj
 0002:00003148       $SG93278                   000000018001e148     itt_notify.obj
 0002:00003164       $SG79310                   000000018001e164     itt_notify.obj
 0002:00003168       $SG93279                   000000018001e168     itt_notify.obj
 0002:0000317c       $SG79316                   000000018001e17c     itt_notify.obj
 0002:00003180       $SG93280                   000000018001e180     itt_notify.obj
 0002:000031b8       $SG93281                   000000018001e1b8     itt_notify.obj
 0002:000031dc       $SG80590                   000000018001e1dc     itt_notify.obj
 0002:000031e0       $SG93282                   000000018001e1e0     itt_notify.obj
 0002:00003200       $SG93283                   000000018001e200     itt_notify.obj
 0002:00003220       $SG93284                   000000018001e220     itt_notify.obj
 0002:00003240       $SG93285                   000000018001e240     itt_notify.obj
 0002:00003260       $SG93286                   000000018001e260     itt_notify.obj
 0002:00003280       $SG93287                   000000018001e280     itt_notify.obj
 0002:000032a0       $SG93288                   000000018001e2a0     itt_notify.obj
 0002:000032c0       $SG93289                   000000018001e2c0     itt_notify.obj
 0002:000032e0       $SG93290                   000000018001e2e0     itt_notify.obj
 0002:00003300       ?api_version@@3QBDB        000000018001e300     itt_notify.obj
 0002:00003340       $SG77169                   000000018001e340     itt_notify.obj
 0002:00003358       $SG79311                   000000018001e358     itt_notify.obj
 0002:00003360       $SG79312                   000000018001e360     itt_notify.obj
 0002:00003368       $SG79313                   000000018001e368     itt_notify.obj
 0002:00003370       $SG79314                   000000018001e370     itt_notify.obj
 0002:00003378       $SG79315                   000000018001e378     itt_notify.obj
 0002:00003380       $SG79317                   000000018001e380     itt_notify.obj
 0002:00003388       $SG79318                   000000018001e388     itt_notify.obj
 0002:00003390       $SG79319                   000000018001e390     itt_notify.obj
 0002:00003398       $SG79320                   000000018001e398     itt_notify.obj
 0002:000033a0       $SG79321                   000000018001e3a0     itt_notify.obj
 0002:000033a8       $SG79322                   000000018001e3a8     itt_notify.obj
 0002:000033b8       $SG79323                   000000018001e3b8     itt_notify.obj
 0002:000033c4       $SG79324                   000000018001e3c4     itt_notify.obj
 0002:000033d0       $SG79342                   000000018001e3d0     itt_notify.obj
 0002:000033e8       $SG79343                   000000018001e3e8     itt_notify.obj
 0002:000033f8       $SG80151                   000000018001e3f8     itt_notify.obj
 0002:00003410       $SG80152                   000000018001e410     itt_notify.obj
 0002:00003428       $SG80153                   000000018001e428     itt_notify.obj
 0002:00003448       $SG80154                   000000018001e448     itt_notify.obj
 0002:00003468       $SG80155                   000000018001e468     itt_notify.obj
 0002:00003478       $SG80156                   000000018001e478     itt_notify.obj
 0002:00003488       $SG80157                   000000018001e488     itt_notify.obj
 0002:000034a0       $SG80158                   000000018001e4a0     itt_notify.obj
 0002:000034b8       $SG80159                   000000018001e4b8     itt_notify.obj
 0002:000034d0       $SG80160                   000000018001e4d0     itt_notify.obj
 0002:000034e8       $SG80161                   000000018001e4e8     itt_notify.obj
 0002:00003500       $SG80162                   000000018001e500     itt_notify.obj
 0002:00003518       $SG80163                   000000018001e518     itt_notify.obj
 0002:00003530       $SG80164                   000000018001e530     itt_notify.obj
 0002:00003540       $SG80165                   000000018001e540     itt_notify.obj
 0002:00003558       $SG80166                   000000018001e558     itt_notify.obj
 0002:00003570       $SG80167                   000000018001e570     itt_notify.obj
 0002:00003588       $SG80168                   000000018001e588     itt_notify.obj
 0002:000035a0       $SG80169                   000000018001e5a0     itt_notify.obj
 0002:000035b8       $SG80170                   000000018001e5b8     itt_notify.obj
 0002:000035d0       $SG80171                   000000018001e5d0     itt_notify.obj
 0002:000035e8       $SG80172                   000000018001e5e8     itt_notify.obj
 0002:00003600       $SG80173                   000000018001e600     itt_notify.obj
 0002:00003618       $SG80174                   000000018001e618     itt_notify.obj
 0002:00003630       $SG80175                   000000018001e630     itt_notify.obj
 0002:00003648       $SG80176                   000000018001e648     itt_notify.obj
 0002:00003668       $SG80177                   000000018001e668     itt_notify.obj
 0002:00003688       $SG80178                   000000018001e688     itt_notify.obj
 0002:000036a0       $SG80179                   000000018001e6a0     itt_notify.obj
 0002:000036b8       $SG80180                   000000018001e6b8     itt_notify.obj
 0002:000036d0       $SG80181                   000000018001e6d0     itt_notify.obj
 0002:000036e8       $SG80182                   000000018001e6e8     itt_notify.obj
 0002:00003700       $SG80183                   000000018001e700     itt_notify.obj
 0002:00003718       $SG80184                   000000018001e718     itt_notify.obj
 0002:00003730       $SG80185                   000000018001e730     itt_notify.obj
 0002:00003748       $SG80186                   000000018001e748     itt_notify.obj
 0002:00003768       $SG80187                   000000018001e768     itt_notify.obj
 0002:00003788       $SG80188                   000000018001e788     itt_notify.obj
 0002:000037a8       $SG80189                   000000018001e7a8     itt_notify.obj
 0002:000037c8       $SG80190                   000000018001e7c8     itt_notify.obj
 0002:000037e8       $SG80191                   000000018001e7e8     itt_notify.obj
 0002:00003808       $SG80192                   000000018001e808     itt_notify.obj
 0002:00003828       $SG80193                   000000018001e828     itt_notify.obj
 0002:00003840       $SG80194                   000000018001e840     itt_notify.obj
 0002:00003858       $SG80195                   000000018001e858     itt_notify.obj
 0002:00003870       $SG80196                   000000018001e870     itt_notify.obj
 0002:00003890       $SG80197                   000000018001e890     itt_notify.obj
 0002:000038a8       $SG80198                   000000018001e8a8     itt_notify.obj
 0002:000038c8       $SG80199                   000000018001e8c8     itt_notify.obj
 0002:000038e0       $SG80200                   000000018001e8e0     itt_notify.obj
 0002:00003900       $SG80201                   000000018001e900     itt_notify.obj
 0002:00003920       $SG80202                   000000018001e920     itt_notify.obj
 0002:00003940       $SG80203                   000000018001e940     itt_notify.obj
 0002:00003958       $SG80204                   000000018001e958     itt_notify.obj
 0002:00003970       $SG80205                   000000018001e970     itt_notify.obj
 0002:00003990       $SG80206                   000000018001e990     itt_notify.obj
 0002:000039b0       $SG80207                   000000018001e9b0     itt_notify.obj
 0002:000039d0       $SG80208                   000000018001e9d0     itt_notify.obj
 0002:000039f0       $SG80209                   000000018001e9f0     itt_notify.obj
 0002:00003a08       $SG80210                   000000018001ea08     itt_notify.obj
 0002:00003a28       $SG80211                   000000018001ea28     itt_notify.obj
 0002:00003a48       $SG80212                   000000018001ea48     itt_notify.obj
 0002:00003a68       $SG80213                   000000018001ea68     itt_notify.obj
 0002:00003a80       $SG80214                   000000018001ea80     itt_notify.obj
 0002:00003a98       $SG80215                   000000018001ea98     itt_notify.obj
 0002:00003ab0       $SG80216                   000000018001eab0     itt_notify.obj
 0002:00003ad0       $SG80217                   000000018001ead0     itt_notify.obj
 0002:00003af0       $SG80218                   000000018001eaf0     itt_notify.obj
 0002:00003b18       $SG80219                   000000018001eb18     itt_notify.obj
 0002:00003b38       $SG80220                   000000018001eb38     itt_notify.obj
 0002:00003b60       $SG80221                   000000018001eb60     itt_notify.obj
 0002:00003b88       $SG80222                   000000018001eb88     itt_notify.obj
 0002:00003ba8       $SG80223                   000000018001eba8     itt_notify.obj
 0002:00003bc0       $SG80224                   000000018001ebc0     itt_notify.obj
 0002:00003bd0       $SG80225                   000000018001ebd0     itt_notify.obj
 0002:00003be8       $SG80226                   000000018001ebe8     itt_notify.obj
 0002:00003c00       $SG80227                   000000018001ec00     itt_notify.obj
 0002:00003c18       $SG80228                   000000018001ec18     itt_notify.obj
 0002:00003c30       $SG80229                   000000018001ec30     itt_notify.obj
 0002:00003c48       $SG80230                   000000018001ec48     itt_notify.obj
 0002:00003c60       $SG80231                   000000018001ec60     itt_notify.obj
 0002:00003c78       $SG80232                   000000018001ec78     itt_notify.obj
 0002:00003c90       $SG80233                   000000018001ec90     itt_notify.obj
 0002:00003ca8       $SG80234                   000000018001eca8     itt_notify.obj
 0002:00003cc0       $SG80235                   000000018001ecc0     itt_notify.obj
 0002:00003cd0       $SG80236                   000000018001ecd0     itt_notify.obj
 0002:00003ce8       $SG80237                   000000018001ece8     itt_notify.obj
 0002:00003d08       $SG80238                   000000018001ed08     itt_notify.obj
 0002:00003d18       $SG80239                   000000018001ed18     itt_notify.obj
 0002:00003d30       $SG80240                   000000018001ed30     itt_notify.obj
 0002:00003d48       $SG80241                   000000018001ed48     itt_notify.obj
 0002:00003d60       $SG80242                   000000018001ed60     itt_notify.obj
 0002:00003d80       $SG80243                   000000018001ed80     itt_notify.obj
 0002:00003d98       $SG80244                   000000018001ed98     itt_notify.obj
 0002:00003db0       $SG80245                   000000018001edb0     itt_notify.obj
 0002:00003dc8       $SG80246                   000000018001edc8     itt_notify.obj
 0002:00003de0       $SG80247                   000000018001ede0     itt_notify.obj
 0002:00003df0       $SG80248                   000000018001edf0     itt_notify.obj
 0002:00003e08       $SG80249                   000000018001ee08     itt_notify.obj
 0002:00003e20       $SG80250                   000000018001ee20     itt_notify.obj
 0002:00003e38       $SG80251                   000000018001ee38     itt_notify.obj
 0002:00003e50       $SG80252                   000000018001ee50     itt_notify.obj
 0002:00003e70       $SG80253                   000000018001ee70     itt_notify.obj
 0002:00003e90       $SG80254                   000000018001ee90     itt_notify.obj
 0002:00003eb0       $SG80255                   000000018001eeb0     itt_notify.obj
 0002:00003ed0       $SG80256                   000000018001eed0     itt_notify.obj
 0002:00003ee8       $SG80257                   000000018001eee8     itt_notify.obj
 0002:00003f00       $SG80258                   000000018001ef00     itt_notify.obj
 0002:00003f18       $SG80259                   000000018001ef18     itt_notify.obj
 0002:00003f28       $SG80260                   000000018001ef28     itt_notify.obj
 0002:00003f38       $SG80261                   000000018001ef38     itt_notify.obj
 0002:00003f50       $SG80262                   000000018001ef50     itt_notify.obj
 0002:00003f68       $SG80263                   000000018001ef68     itt_notify.obj
 0002:00003f80       $SG80264                   000000018001ef80     itt_notify.obj
 0002:00003f98       $SG80265                   000000018001ef98     itt_notify.obj
 0002:00003fb0       $SG80266                   000000018001efb0     itt_notify.obj
 0002:00003fc0       $SG80267                   000000018001efc0     itt_notify.obj
 0002:00003fd8       $SG80268                   000000018001efd8     itt_notify.obj
 0002:00003ff0       $SG80269                   000000018001eff0     itt_notify.obj
 0002:00004008       $SG80270                   000000018001f008     itt_notify.obj
 0002:00004020       $SG80271                   000000018001f020     itt_notify.obj
 0002:00004038       $SG80272                   000000018001f038     itt_notify.obj
 0002:00004050       $SG80273                   000000018001f050     itt_notify.obj
 0002:00004068       $SG80274                   000000018001f068     itt_notify.obj
 0002:00004078       $SG80275                   000000018001f078     itt_notify.obj
 0002:00004088       $SG80276                   000000018001f088     itt_notify.obj
 0002:00004098       $SG80277                   000000018001f098     itt_notify.obj
 0002:000040b0       $SG80278                   000000018001f0b0     itt_notify.obj
 0002:000040c8       $SG80279                   000000018001f0c8     itt_notify.obj
 0002:000040e0       $SG80280                   000000018001f0e0     itt_notify.obj
 0002:00004100       $SG80281                   000000018001f100     itt_notify.obj
 0002:00004120       $SG80282                   000000018001f120     itt_notify.obj
 0002:00004140       $SG80283                   000000018001f140     itt_notify.obj
 0002:00004160       $SG80284                   000000018001f160     itt_notify.obj
 0002:00004180       $SG80285                   000000018001f180     itt_notify.obj
 0002:000041a0       $SG80286                   000000018001f1a0     itt_notify.obj
 0002:000041b8       $SG80287                   000000018001f1b8     itt_notify.obj
 0002:000041d0       $SG80288                   000000018001f1d0     itt_notify.obj
 0002:000041e8       $SG80289                   000000018001f1e8     itt_notify.obj
 0002:00004200       $SG80290                   000000018001f200     itt_notify.obj
 0002:00004218       $SG80291                   000000018001f218     itt_notify.obj
 0002:00004238       $SG80292                   000000018001f238     itt_notify.obj
 0002:00004258       $SG80293                   000000018001f258     itt_notify.obj
 0002:00004278       $SG80294                   000000018001f278     itt_notify.obj
 0002:00004298       $SG80295                   000000018001f298     itt_notify.obj
 0002:000042a8       $SG80296                   000000018001f2a8     itt_notify.obj
 0002:000042c8       $SG80297                   000000018001f2c8     itt_notify.obj
 0002:000042f0       $SG80298                   000000018001f2f0     itt_notify.obj
 0002:00004318       $SG80299                   000000018001f318     itt_notify.obj
 0002:00004340       $SG80300                   000000018001f340     itt_notify.obj
 0002:00004358       $SG80301                   000000018001f358     itt_notify.obj
 0002:00004378       $SG80302                   000000018001f378     itt_notify.obj
 0002:00004390       $SG80303                   000000018001f390     itt_notify.obj
 0002:000043a0       $SG80304                   000000018001f3a0     itt_notify.obj
 0002:000043b8       $SG80305                   000000018001f3b8     itt_notify.obj
 0002:000043c8       $SG80306                   000000018001f3c8     itt_notify.obj
 0002:000043d8       $SG80560                   000000018001f3d8     itt_notify.obj
 0002:000043f0       ?dll_path@@3QBDB           000000018001f3f0     itt_notify.obj
 0002:000045f0       $SG80587                   000000018001f5f0     itt_notify.obj
 0002:00004608       $SG80599                   000000018001f608     itt_notify.obj
 0002:00004618       $SG80601                   000000018001f618     itt_notify.obj
 0002:00004630       $SG80621                   000000018001f630     itt_notify.obj
 0002:00004640       $SG80669                   000000018001f640     itt_notify.obj
 0002:00004650       $SG114730                  000000018001f650     frontend.obj
 0002:00004678       $SG114731                  000000018001f678     frontend.obj
 0002:00004694       $SG114946                  000000018001f694     frontend.obj
 0002:00004698       $SG114736                  000000018001f698     frontend.obj
 0002:000046c0       $SG114732                  000000018001f6c0     frontend.obj
 0002:00004710       $SG114737                  000000018001f710     frontend.obj
 0002:0000475c       $SG116298                  000000018001f75c     frontend.obj
 0002:00004760       $SG114739                  000000018001f760     frontend.obj
 0002:00004780       $SG114740                  000000018001f780     frontend.obj
 0002:000047c8       $SG114742                  000000018001f7c8     frontend.obj
 0002:000047f0       $SG114741                  000000018001f7f0     frontend.obj
 0002:00004840       $SG114743                  000000018001f840     frontend.obj
 0002:0000488c       $SG116328                  000000018001f88c     frontend.obj
 0002:00004890       $SG114744                  000000018001f890     frontend.obj
 0002:000048b8       $SG114773                  000000018001f8b8     frontend.obj
 0002:000048d0       $SG114745                  000000018001f8d0     frontend.obj
 0002:00004920       $SG114774                  000000018001f920     frontend.obj
 0002:00004970       $SG114787                  000000018001f970     frontend.obj
 0002:00004990       $SG114788                  000000018001f990     frontend.obj
 0002:000049dc       $SG113166                  000000018001f9dc     frontend.obj
 0002:000049e0       $SG114904                  000000018001f9e0     frontend.obj
 0002:00004a00       $SG114905                  000000018001fa00     frontend.obj
 0002:00004a4c       $SG113168                  000000018001fa4c     frontend.obj
 0002:00004a50       $SG114919                  000000018001fa50     frontend.obj
 0002:00004a68       $SG114921                  000000018001fa68     frontend.obj
 0002:00004aa0       $SG114920                  000000018001faa0     frontend.obj
 0002:00004af0       $SG114922                  000000018001faf0     frontend.obj
 0002:00004b28       $SG114945                  000000018001fb28     frontend.obj
 0002:00004b50       $SG114923                  000000018001fb50     frontend.obj
 0002:00004ba0       $SG114947                  000000018001fba0     frontend.obj
 0002:00004bf0       $SG115039                  000000018001fbf0     frontend.obj
 0002:00004c38       $SG115040                  000000018001fc38     frontend.obj
 0002:00004c50       $SG115041                  000000018001fc50     frontend.obj
 0002:00004c9c       $SG113928                  000000018001fc9c     frontend.obj
 0002:00004ca0       $SG115048                  000000018001fca0     frontend.obj
 0002:00004cd0       $SG115049                  000000018001fcd0     frontend.obj
 0002:00004cf0       $SG115050                  000000018001fcf0     frontend.obj
 0002:00004d3c       $SG114023                  000000018001fd3c     frontend.obj
 0002:00004d40       $SG115216                  000000018001fd40     frontend.obj
 0002:00004d6c       $SG114526                  000000018001fd6c     frontend.obj
 0002:00004d70       $SG115217                  000000018001fd70     frontend.obj
 0002:00004d88       $SG116282                  000000018001fd88     frontend.obj
 0002:00004da0       $SG115218                  000000018001fda0     frontend.obj
 0002:00004df0       $SG116283                  000000018001fdf0     frontend.obj
 0002:00004e40       $SG116286                  000000018001fe40     frontend.obj
 0002:00004e88       $SG116312                  000000018001fe88     frontend.obj
 0002:00004ea0       $SG116287                  000000018001fea0     frontend.obj
 0002:00004ef0       $SG116299                  000000018001fef0     frontend.obj
 0002:00004f40       $SG116313                  000000018001ff40     frontend.obj
 0002:00004f90       $SG116316                  000000018001ff90     frontend.obj
 0002:00004fd8       __itt_null                 000000018001ffd8     frontend.obj
 0002:00004ff0       $SG116317                  000000018001fff0     frontend.obj
 0002:00005040       $SG116329                  0000000180020040     frontend.obj
 0002:0000508c       $SG114025                  000000018002008c     frontend.obj
 0002:00005098       $SG113235                  0000000180020098     frontend.obj
 0002:000050c8       $SG113236                  00000001800200c8     frontend.obj
 0002:000050d8       $SG113799                  00000001800200d8     frontend.obj
 0002:000050e8       $SG113802                  00000001800200e8     frontend.obj
 0002:00005100       $SG113237                  0000000180020100     frontend.obj
 0002:00005150       $SG113769                  0000000180020150     frontend.obj
 0002:00005198       $SG113811                  0000000180020198     frontend.obj
 0002:000051d0       $SG113770                  00000001800201d0     frontend.obj
 0002:00005220       $SG113800                  0000000180020220     frontend.obj
 0002:00005270       $SG113803                  0000000180020270     frontend.obj
 0002:000052bc       $SG113812                  00000001800202bc     frontend.obj
 0002:000052c8       $SG113869                  00000001800202c8     frontend.obj
 0002:000052d8       $SG113912                  00000001800202d8     frontend.obj
 0002:000052f0       $SG113813                  00000001800202f0     frontend.obj
 0002:00005340       $SG113817                  0000000180020340     frontend.obj
 0002:00005370       $SG113818                  0000000180020370     frontend.obj
 0002:000053c0       $SG113870                  00000001800203c0     frontend.obj
 0002:00005410       $SG113913                  0000000180020410     frontend.obj
 0002:00005460       $SG113929                  0000000180020460     frontend.obj
 0002:000054b0       $SG114024                  00000001800204b0     frontend.obj
 0002:00005500       $SG114026                  0000000180020500     frontend.obj
 0002:00005550       $SG114047                  0000000180020550     frontend.obj
 0002:00005560       $SG114048                  0000000180020560     frontend.obj
 0002:000055b0       $SG114067                  00000001800205b0     frontend.obj
 0002:000055d0       $SG114068                  00000001800205d0     frontend.obj
 0002:000055e8       $SG114084                  00000001800205e8     frontend.obj
 0002:00005600       $SG114069                  0000000180020600     frontend.obj
 0002:00005650       $SG114085                  0000000180020650     frontend.obj
 0002:000056a0       $SG114099                  00000001800206a0     frontend.obj
 0002:000056c4       $SG114121                  00000001800206c4     frontend.obj
 0002:000056d0       $SG114100                  00000001800206d0     frontend.obj
 0002:00005720       $SG114101                  0000000180020720     frontend.obj
 0002:00005748       $SG114113                  0000000180020748     frontend.obj
 0002:00005768       $SG114115                  0000000180020768     frontend.obj
 0002:00005780       $SG114102                  0000000180020780     frontend.obj
 0002:000057d0       $SG114114                  00000001800207d0     frontend.obj
 0002:00005820       $SG114116                  0000000180020820     frontend.obj
 0002:00005870       $SG114117                  0000000180020870     frontend.obj
 0002:00005888       $SG114119                  0000000180020888     frontend.obj
 0002:000058a0       $SG114118                  00000001800208a0     frontend.obj
 0002:000058f0       $SG114120                  00000001800208f0     frontend.obj
 0002:00005940       $SG114122                  0000000180020940     frontend.obj
 0002:00005990       $SG114136                  0000000180020990     frontend.obj
 0002:000059b0       $SG114137                  00000001800209b0     frontend.obj
 0002:00005a00       $SG114138                  0000000180020a00     frontend.obj
 0002:00005a18       $SG114140                  0000000180020a18     frontend.obj
 0002:00005a20       $SG114139                  0000000180020a20     frontend.obj
 0002:00005a70       $SG114141                  0000000180020a70     frontend.obj
 0002:00005ac0       $SG114144                  0000000180020ac0     frontend.obj
 0002:00005ae0       $SG114145                  0000000180020ae0     frontend.obj
 0002:00005b30       $SG114147                  0000000180020b30     frontend.obj
 0002:00005b50       $SG114148                  0000000180020b50     frontend.obj
 0002:00005b9c       $SG114161                  0000000180020b9c     frontend.obj
 0002:00005ba8       $SG114168                  0000000180020ba8     frontend.obj
 0002:00005bc8       $SG114170                  0000000180020bc8     frontend.obj
 0002:00005bf0       $SG114162                  0000000180020bf0     frontend.obj
 0002:00005c40       $SG114163                  0000000180020c40     frontend.obj
 0002:00005c80       $SG114164                  0000000180020c80     frontend.obj
 0002:00005cd0       $SG114169                  0000000180020cd0     frontend.obj
 0002:00005d20       $SG114171                  0000000180020d20     frontend.obj
 0002:00005d70       $SG114173                  0000000180020d70     frontend.obj
 0002:00005d98       $SG114190                  0000000180020d98     frontend.obj
 0002:00005db0       $SG114174                  0000000180020db0     frontend.obj
 0002:00005e00       $SG114191                  0000000180020e00     frontend.obj
 0002:00005e50       $SG114192                  0000000180020e50     frontend.obj
 0002:00005e64       $SG114308                  0000000180020e64     frontend.obj
 0002:00005e70       $SG114193                  0000000180020e70     frontend.obj
 0002:00005ec0       $SG114231                  0000000180020ec0     frontend.obj
 0002:00005ee0       $SG114232                  0000000180020ee0     frontend.obj
 0002:00005f30       $SG114259                  0000000180020f30     frontend.obj
 0002:00005f60       $SG114260                  0000000180020f60     frontend.obj
 0002:00005fb0       $SG114261                  0000000180020fb0     frontend.obj
 0002:00005fd0       $SG114262                  0000000180020fd0     frontend.obj
 0002:00006020       $SG114263                  0000000180021020     frontend.obj
 0002:00006040       $SG114264                  0000000180021040     frontend.obj
 0002:00006090       $SG114266                  0000000180021090     frontend.obj
 0002:000060d0       $SG114267                  00000001800210d0     frontend.obj
 0002:00006120       $SG114268                  0000000180021120     frontend.obj
 0002:00006160       $SG114269                  0000000180021160     frontend.obj
 0002:000061b0       $SG114281                  00000001800211b0     frontend.obj
 0002:000061c8       $SG114283                  00000001800211c8     frontend.obj
 0002:000061f0       $SG114282                  00000001800211f0     frontend.obj
 0002:00006240       $SG114284                  0000000180021240     frontend.obj
 0002:00006290       $SG114287                  0000000180021290     frontend.obj
 0002:000062b0       $SG114288                  00000001800212b0     frontend.obj
 0002:00006300       $SG114309                  0000000180021300     frontend.obj
 0002:00006350       $SG114314                  0000000180021350     frontend.obj
 0002:00006370       $SG114315                  0000000180021370     frontend.obj
 0002:000063c0       $SG114316                  00000001800213c0     frontend.obj
 0002:000063d8       $SG114419                  00000001800213d8     frontend.obj
 0002:000063f0       $SG114317                  00000001800213f0     frontend.obj
 0002:00006440       $SG114420                  0000000180021440     frontend.obj
 0002:00006490       $SG114445                  0000000180021490     frontend.obj
 0002:000064a8       $SG114447                  00000001800214a8     frontend.obj
 0002:000064d0       $SG114446                  00000001800214d0     frontend.obj
 0002:00006520       $SG114448                  0000000180021520     frontend.obj
 0002:00006570       $SG114578                  0000000180021570     frontend.obj
 0002:000065a0       $SG114579                  00000001800215a0     frontend.obj
 0002:000065f0       $SG114580                  00000001800215f0     frontend.obj
 0002:00006620       $SG114581                  0000000180021620     frontend.obj
 0002:00006670       $SG114582                  0000000180021670     frontend.obj
 0002:000066c0       $SG114583                  00000001800216c0     frontend.obj
 0002:000066f0       $SG114584                  00000001800216f0     frontend.obj
 0002:00006740       $SG114599                  0000000180021740     frontend.obj
 0002:00006760       $SG114600                  0000000180021760     frontend.obj
 0002:000067b0       $SG114603                  00000001800217b0     frontend.obj
 0002:000067d0       $SG114604                  00000001800217d0     frontend.obj
 0002:00006820       $SG114606                  0000000180021820     frontend.obj
 0002:00006830       $SG114607                  0000000180021830     frontend.obj
 0002:00006850       $SG114608                  0000000180021850     frontend.obj
 0002:000068a0       $SG114656                  00000001800218a0     frontend.obj
 0002:000068d0       $SG114657                  00000001800218d0     frontend.obj
 0002:00006920       $cppxdata$?registerThread@AllLocalCaches@internal@rml@@QEAAXPEAUTLSRemote@23@@Z 0000000180021920     frontend.obj
 0002:00006948       $cppxdata$?unregisterThread@AllLocalCaches@internal@rml@@QEAAXPEAUTLSRemote@23@@Z 0000000180021948     frontend.obj
 0002:00006970       $cppxdata$?cleanup@AllLocalCaches@internal@rml@@QEAA_NPEAUExtMemoryPool@23@_N@Z 0000000180021970     frontend.obj
 0002:00006998       $cppxdata$?markUnused@AllLocalCaches@internal@rml@@QEAAXXZ 0000000180021998     frontend.obj
 0002:000069c0       $cppxdata$?allocate@BootStrapBlocks@internal@rml@@QEAAPEAXPEAVMemoryPool@23@_K@Z 00000001800219c0     frontend.obj
 0002:000069e8       $cppxdata$?getPublicFreeListBlock@Bin@internal@rml@@QEAAPEAVBlock@23@XZ 00000001800219e8     frontend.obj
 0002:00006a10       $cppxdata$?doInitialization@internal@rml@@YA_NXZ 0000000180021a10     frontend.obj
 0002:00006a38       $cppxdata$?doThreadShutdownNotification@@YAXPEAVTLSData@internal@rml@@_N@Z 0000000180021a38     frontend.obj
 0002:00006a60       $cppxdata$?init@HugePagesStatus@internal@rml@@QEAAXXZ 0000000180021a60     frontend.obj
 0002:00006fd0       GS_ExceptionPointers       0000000180021fd0     MSVCRTD:gs_report.obj
 0002:00007460       $unwind$?__TBB_machine_cmpswp1@@YADPECXDD@Z 0000000180022460     backend.obj
 0002:00007468       $unwind$?__TBB_machine_cmpswp8@@YA_JPECX_J1@Z 0000000180022468     backend.obj
 0002:00007470       $unwind$?lg_bsr@msvc_intrinsics@internal@tbb@@YA_K_K@Z 0000000180022470     backend.obj
 0002:00007478       $unwind$?getAll@CoalRequestQ@internal@rml@@QEAAPEAVFreeBlock@23@XZ 0000000180022478     backend.obj
 0002:00007480       $unwind$?putBlock@CoalRequestQ@internal@rml@@QEAAXPEAVFreeBlock@23@@Z 0000000180022480     backend.obj
 0002:00007488       $unwind$?add@MemRegionList@internal@rml@@QEAAXPEAUMemRegion@23@@Z 0000000180022488     backend.obj
 0002:00007490       $unwind$?remove@MemRegionList@internal@rml@@QEAAXPEAUMemRegion@23@@Z 0000000180022490     backend.obj
 0002:00007498       $unwind$?removeBlock@Bin@Backend@internal@rml@@QEAAXPEAVFreeBlock@34@@Z 0000000180022498     backend.obj
 0002:000074a0       $unwind$?getFromBin@IndexedBins@Backend@internal@rml@@AEAAPEAVFreeBlock@34@HPEAVBackendSync@34@_K_N22PEAH@Z 00000001800224a0     backend.obj
 0002:000074b0       $stateUnwindMap$?getFromBin@IndexedBins@Backend@internal@rml@@AEAAPEAVFreeBlock@34@HPEAVBackendSync@34@_K_N22PEAH@Z 00000001800224b0     backend.obj
 0002:000074b8       $ip2state$?getFromBin@IndexedBins@Backend@internal@rml@@AEAAPEAVFreeBlock@34@HPEAVBackendSync@34@_K_N22PEAH@Z 00000001800224b8     backend.obj
 0002:000074f0       $unwind$?dtor$0@?0??getFromBin@IndexedBins@Backend@internal@rml@@AEAAPEAVFreeBlock@34@HPEAVBackendSync@34@_K_N22PEAH@Z@4HA 00000001800224f0     backend.obj
 0002:000074f8       $unwind$?findBlock@IndexedBins@Backend@internal@rml@@QEAAPEAVFreeBlock@34@HPEAVBackendSync@34@_K_N2PEAH@Z 00000001800224f8     backend.obj
 0002:00007500       $unwind$?tryReleaseRegions@IndexedBins@Backend@internal@rml@@QEAA_NHPEAV234@@Z 0000000180022500     backend.obj
 0002:00007510       $stateUnwindMap$?tryReleaseRegions@IndexedBins@Backend@internal@rml@@QEAA_NHPEAV234@@Z 0000000180022510     backend.obj
 0002:00007518       $ip2state$?tryReleaseRegions@IndexedBins@Backend@internal@rml@@QEAA_NHPEAV234@@Z 0000000180022518     backend.obj
 0002:00007540       $unwind$?dtor$0@?0??tryReleaseRegions@IndexedBins@Backend@internal@rml@@QEAA_NHPEAV234@@Z@4HA 0000000180022540     backend.obj
 0002:00007548       $unwind$?lockRemoveBlock@IndexedBins@Backend@internal@rml@@QEAAXHPEAVFreeBlock@34@@Z 0000000180022548     backend.obj
 0002:00007558       $stateUnwindMap$?lockRemoveBlock@IndexedBins@Backend@internal@rml@@QEAAXHPEAVFreeBlock@34@@Z 0000000180022558     backend.obj
 0002:00007560       $ip2state$?lockRemoveBlock@IndexedBins@Backend@internal@rml@@QEAAXHPEAVFreeBlock@34@@Z 0000000180022560     backend.obj
 0002:00007578       $unwind$?dtor$0@?0??lockRemoveBlock@IndexedBins@Backend@internal@rml@@QEAAXHPEAVFreeBlock@34@@Z@4HA 0000000180022578     backend.obj
 0002:00007580       $unwind$?addBlock@IndexedBins@Backend@internal@rml@@QEAAXHPEAVFreeBlock@34@_K_N@Z 0000000180022580     backend.obj
 0002:00007588       $unwind$?tryAddBlock@IndexedBins@Backend@internal@rml@@QEAA_NHPEAVFreeBlock@34@_N@Z 0000000180022588     backend.obj
 0002:00007590       $unwind$?verify@IndexedBins@Backend@internal@rml@@QEAAXXZ 0000000180022590     backend.obj
 0002:00007598       $unwind$?reset@IndexedBins@Backend@internal@rml@@QEAAXXZ 0000000180022598     backend.obj
 0002:000075a0       $unwind$?registerAlloc@UsedAddressRange@Backend@internal@rml@@QEAAX_K0@Z 00000001800225a0     backend.obj
 0002:000075b0       $stateUnwindMap$?registerAlloc@UsedAddressRange@Backend@internal@rml@@QEAAX_K0@Z 00000001800225b0     backend.obj
 0002:000075b8       $ip2state$?registerAlloc@UsedAddressRange@Backend@internal@rml@@QEAAX_K0@Z 00000001800225b8     backend.obj
 0002:000075d0       $unwind$?dtor$0@?0??registerAlloc@UsedAddressRange@Backend@internal@rml@@QEAAX_K0@Z@4HA 00000001800225d0     backend.obj
 0002:000075d8       $unwind$?registerFree@UsedAddressRange@Backend@internal@rml@@QEAAX_K0@Z 00000001800225d8     backend.obj
 0002:000075e8       $stateUnwindMap$?registerFree@UsedAddressRange@Backend@internal@rml@@QEAAX_K0@Z 00000001800225e8     backend.obj
 0002:000075f0       $ip2state$?registerFree@UsedAddressRange@Backend@internal@rml@@QEAAX_K0@Z 00000001800225f0     backend.obj
 0002:00007608       $unwind$?dtor$0@?0??registerFree@UsedAddressRange@Backend@internal@rml@@QEAAX_K0@Z@4HA 0000000180022608     backend.obj
 0002:00007610       $unwind$?addNewRegion@Backend@internal@rml@@AEAAPEAVFreeBlock@23@_KW4MemRegionType@23@_N@Z 0000000180022610     backend.obj
 0002:00007618       $unwind$?findBlockInRegion@Backend@internal@rml@@AEAAPEAVFreeBlock@23@PEAUMemRegion@23@_K@Z 0000000180022618     backend.obj
 0002:00007620       $unwind$?startUseBlock@Backend@internal@rml@@AEAAXPEAUMemRegion@23@PEAVFreeBlock@23@_N@Z 0000000180022620     backend.obj
 0002:00007628       $unwind$?releaseRegion@Backend@internal@rml@@AEAAXPEAUMemRegion@23@@Z 0000000180022628     backend.obj
 0002:00007630       $unwind$?releaseMemInCaches@Backend@internal@rml@@AEAAPEAVFreeBlock@23@_JPEAHH@Z 0000000180022630     backend.obj
 0002:00007638       $unwind$?requestBootstrapMem@Backend@internal@rml@@AEAAXXZ 0000000180022638     backend.obj
 0002:00007648       $stateUnwindMap$?requestBootstrapMem@Backend@internal@rml@@AEAAXXZ 0000000180022648     backend.obj
 0002:00007650       $ip2state$?requestBootstrapMem@Backend@internal@rml@@AEAAXXZ 0000000180022650     backend.obj
 0002:00007678       $unwind$?dtor$0@?0??requestBootstrapMem@Backend@internal@rml@@AEAAXXZ@4HA 0000000180022678     backend.obj
 0002:00007680       $unwind$?askMemFromOS@Backend@internal@rml@@AEAAPEAVFreeBlock@23@_K_JPEAHHPEA_N@Z 0000000180022680     backend.obj
 0002:00007688       $unwind$?genericGetBlock@Backend@internal@rml@@AEAAPEAVFreeBlock@23@H_K_N@Z 0000000180022688     backend.obj
 0002:00007690       $unwind$?genericPutBlock@Backend@internal@rml@@AEAAXPEAVFreeBlock@23@_K@Z 0000000180022690     backend.obj
 0002:00007698       $unwind$?splitUnalignedBlock@Backend@internal@rml@@AEAAPEAVFreeBlock@23@PEAV423@H_K_N@Z 0000000180022698     backend.obj
 0002:000076a0       $unwind$?splitAlignedBlock@Backend@internal@rml@@AEAAPEAVFreeBlock@23@PEAV423@H_K_N@Z 00000001800226a0     backend.obj
 0002:000076a8       $unwind$?doCoalesc@Backend@internal@rml@@AEAAPEAVFreeBlock@23@PEAV423@PEAPEAUMemRegion@23@@Z 00000001800226a8     backend.obj
 0002:000076b0       $unwind$?coalescAndPutList@Backend@internal@rml@@AEAA_NPEAVFreeBlock@23@_N1@Z 00000001800226b0     backend.obj
 0002:000076b8       $unwind$?coalescAndPut@Backend@internal@rml@@AEAAXPEAVFreeBlock@23@_K@Z 00000001800226b8     backend.obj
 0002:000076c0       $unwind$?removeBlockFromBin@Backend@internal@rml@@AEAAXPEAVFreeBlock@23@@Z 00000001800226c0     backend.obj
 0002:000076c8       $unwind$?allocRawMem@Backend@internal@rml@@AEAAPEAXAEA_K@Z 00000001800226c8     backend.obj
 0002:000076d0       $unwind$?freeRawMem@Backend@internal@rml@@AEAA_NPEAX_K@Z 00000001800226d0     backend.obj
 0002:000076d8       $unwind$?putLargeBlock@Backend@internal@rml@@AEAAXPEAULargeMemoryBlock@23@@Z 00000001800226d8     backend.obj
 0002:000076e0       $unwind$?releaseCachesToLimit@Backend@internal@rml@@AEAAXXZ 00000001800226e0     backend.obj
 0002:000076e8       $unwind$?scanCoalescQ@Backend@internal@rml@@QEAA_N_N@Z 00000001800226e8     backend.obj
 0002:000076f0       $unwind$?verify@Backend@internal@rml@@QEAAXXZ 00000001800226f0     backend.obj
 0002:000076f8       $unwind$?init@Backend@internal@rml@@QEAAXPEAUExtMemoryPool@23@@Z 00000001800226f8     backend.obj
 0002:00007700       $unwind$?reset@Backend@internal@rml@@QEAAXXZ 0000000180022700     backend.obj
 0002:00007708       $unwind$?destroy@Backend@internal@rml@@QEAA_NXZ 0000000180022708     backend.obj
 0002:00007710       $unwind$?clean@Backend@internal@rml@@QEAA_NXZ 0000000180022710     backend.obj
 0002:00007718       $unwind$?getBackRefSpace@Backend@internal@rml@@QEAAPEAX_KPEA_N@Z 0000000180022718     backend.obj
 0002:00007720       $unwind$?putBackRefSpace@Backend@internal@rml@@QEAAXPEAX_K_N@Z 0000000180022720     backend.obj
 0002:00007728       $unwind$?getLargeBlock@Backend@internal@rml@@QEAAPEAULargeMemoryBlock@23@_K@Z 0000000180022728     backend.obj
 0002:00007730       $unwind$?returnLargeObject@Backend@internal@rml@@QEAAXPEAULargeMemoryBlock@23@@Z 0000000180022730     backend.obj
 0002:00007738       $unwind$?getMaxBinnedSize@Backend@internal@rml@@QEBA_KXZ 0000000180022738     backend.obj
 0002:00007740       $unwind$??$isAligned@D@@YA_NPEAD_K@Z 0000000180022740     backend.obj
 0002:00007748       $unwind$?add@AllLargeBlocksList@internal@rml@@QEAAXPEAULargeMemoryBlock@23@@Z 0000000180022748     backend.obj
 0002:00007750       $unwind$?remove@AllLargeBlocksList@internal@rml@@QEAAXPEAULargeMemoryBlock@23@@Z 0000000180022750     backend.obj
 0002:00007758       $unwind$?ErrnoPreservingMalloc@internal@rml@@YAPEAX_K@Z 0000000180022758     backend.obj
 0002:00007760       $unwind$?MapMemory@internal@rml@@YAPEAX_KW4PageType@12@@Z 0000000180022760     backend.obj
 0002:00007768       $unwind$?UnmapMemory@internal@rml@@YAHPEAX_K@Z 0000000180022768     backend.obj
 0002:00007770       $unwind$?getRawMemory@internal@rml@@YAPEAX_KW4PageType@12@@Z 0000000180022770     backend.obj
 0002:00007778       $unwind$?freeRawMemory@internal@rml@@YAHPEAX_K@Z 0000000180022778     backend.obj
 0002:00007780       $unwind$??$alignUpGeneric@_K@@YA_K_K0@Z 0000000180022780     backend.obj
 0002:00007788       $unwind$??$isAligned@VFreeBlock@internal@rml@@@@YA_NPEAVFreeBlock@internal@rml@@_K@Z 0000000180022788     backend.obj
 0002:00007790       $unwind$??$isAligned@ULastFreeBlock@internal@rml@@@@YA_NPEAULastFreeBlock@internal@rml@@_K@Z 0000000180022790     backend.obj
 0002:00007798       $unwind$??0atomic_backoff@internal@tbb@@QEAA@XZ 0000000180022798     backend.obj
 0002:000077a0       $unwind$?pause@atomic_backoff@internal@tbb@@QEAAXXZ 00000001800227a0     backend.obj
 0002:000077a8       $unwind$?__TBB_TryLockByte@@YA_NAEAE@Z 00000001800227a8     backend.obj
 0002:000077b0       $unwind$?__TBB_LockByte@@YAEAEAE@Z 00000001800227b0     backend.obj
 0002:000077b8       $unwind$??0scoped_lock@MallocMutex@@QEAA@AEAV1@@Z 00000001800227b8     backend.obj
 0002:000077c0       $unwind$??0scoped_lock@MallocMutex@@QEAA@AEAV1@_NPEA_N@Z 00000001800227c0     backend.obj
 0002:000077c8       $unwind$??1scoped_lock@MallocMutex@@QEAA@XZ 00000001800227c8     backend.obj
 0002:000077d8       $ip2state$??1scoped_lock@MallocMutex@@QEAA@XZ 00000001800227d8     backend.obj
 0002:000077e0       $unwind$??$__TBB_store_with_release@EH@internal@tbb@@YAXAECEH@Z 00000001800227e0     backend.obj
 0002:000077e8       $unwind$?AtomicIncrement@@YA_JAEC_J@Z 00000001800227e8     backend.obj
 0002:000077f0       $unwind$?AtomicAdd@@YA_KAEC_J_J@Z 00000001800227f0     backend.obj
 0002:000077f8       $unwind$?AtomicCompareExchange@@YA_JAEC_J_J1@Z 00000001800227f8     backend.obj
 0002:00007800       $unwind$?AtomicOr@@YAXPECX_K@Z 0000000180022800     backend.obj
 0002:00007808       $unwind$?AtomicAnd@@YAXPECX_K@Z 0000000180022808     backend.obj
 0002:00007810       $unwind$?FencedLoad@@YA_JAED_J@Z 0000000180022810     backend.obj
 0002:00007818       $unwind$??$__TBB_load_with_acquire@_J@internal@tbb@@YA_JAED_J@Z 0000000180022818     backend.obj
 0002:00007820       $unwind$?FencedStore@@YAXAEC_J_J@Z 0000000180022820     backend.obj
 0002:00007828       $unwind$??$__TBB_store_with_release@_J_J@internal@tbb@@YAXAEC_J_J@Z 0000000180022828     backend.obj
 0002:00007830       $unwind$?SpinWaitWhileEq@@YAXAED_J_J@Z 0000000180022830     backend.obj
 0002:00007838       $unwind$??$spin_wait_while_eq@_J_J@internal@tbb@@YAXAED_J_J@Z 0000000180022838     backend.obj
 0002:00007840       $unwind$??0AtomicBackoff@@QEAA@XZ 0000000180022840     backend.obj
 0002:00007848       $unwind$?pause@AtomicBackoff@@QEAAXXZ 0000000180022848     backend.obj
 0002:00007850       $unwind$?BitScanRev@@YA_J_K@Z 0000000180022850     backend.obj
 0002:00007858       $unwind$?blockConsumed@BackendSync@internal@rml@@QEAAXXZ 0000000180022858     backend.obj
 0002:00007860       $unwind$?binsModified@BackendSync@internal@rml@@QEAAXXZ 0000000180022860     backend.obj
 0002:00007868       $unwind$?blockReleased@BackendSync@internal@rml@@QEAAXXZ 0000000180022868     backend.obj
 0002:00007870       $unwind$?getNumOfMods@BackendSync@internal@rml@@QEBA_JXZ 0000000180022870     backend.obj
 0002:00007878       $unwind$?waitTillBlockReleased@BackendSync@internal@rml@@QEAA_N_J@Z 0000000180022878     backend.obj
 0002:00007880       $unwind$?blockWasProcessed@CoalRequestQ@internal@rml@@QEAAXXZ 0000000180022880     backend.obj
 0002:00007888       $unwind$?blocksInFly@CoalRequestQ@internal@rml@@QEBA_JXZ 0000000180022888     backend.obj
 0002:00007890       $unwind$?wait@MemExtendingSema@internal@rml@@QEAA_NXZ 0000000180022890     backend.obj
 0002:00007898       $unwind$?signal@MemExtendingSema@internal@rml@@QEAAXXZ 0000000180022898     backend.obj
 0002:000078a0       $unwind$?empty@Bin@Backend@internal@rml@@QEBA_NXZ 00000001800228a0     backend.obj
 0002:000078a8       $unwind$?set@?$BitMaskBasic@$0CAA@@internal@rml@@IEAAX_K_N@Z 00000001800228a8     backend.obj
 0002:000078b0       $unwind$?getMinTrue@?$BitMaskBasic@$0CAA@@internal@rml@@IEBAHI@Z 00000001800228b0     backend.obj
 0002:000078b8       $unwind$?reset@?$BitMaskBasic@$0CAA@@internal@rml@@QEAAXXZ 00000001800228b8     backend.obj
 0002:000078c0       $unwind$?set@?$BitMaskMin@$0CAA@@internal@rml@@QEAAX_K_N@Z 00000001800228c0     backend.obj
 0002:000078c8       $unwind$?getMinTrue@?$BitMaskMin@$0CAA@@internal@rml@@QEBAHI@Z 00000001800228c8     backend.obj
 0002:000078d0       $unwind$?getMinNonemptyBin@IndexedBins@Backend@internal@rml@@QEBAHI@Z 00000001800228d0     backend.obj
 0002:000078d8       $unwind$?registerBin@AdvRegionsBins@Backend@internal@rml@@QEAAXH@Z 00000001800228d8     backend.obj
 0002:000078e0       $unwind$?getMinUsedBin@AdvRegionsBins@Backend@internal@rml@@QEBAHH@Z 00000001800228e0     backend.obj
 0002:000078e8       $unwind$?reset@AdvRegionsBins@Backend@internal@rml@@QEAAXXZ 00000001800228e8     backend.obj
 0002:000078f0       $unwind$??RMaxRequestComparator@Backend@internal@rml@@QEBA_N_K0@Z 00000001800228f0     backend.obj
 0002:000078f8       $unwind$?blocksInCoalescing@Backend@internal@rml@@QEBA_JXZ 00000001800228f8     backend.obj
 0002:00007900       $unwind$?inUserPool@Backend@internal@rml@@QEBA_NXZ 0000000180022900     backend.obj
 0002:00007908       $unwind$?sizeToBin@Backend@internal@rml@@CAH_K@Z 0000000180022908     backend.obj
 0002:00007910       $unwind$?toAlignedBin@Backend@internal@rml@@CA_NPEAVFreeBlock@23@_K@Z 0000000180022910     backend.obj
 0002:00007918       $unwind$?get@AllocControlledMode@internal@rml@@QEBA_JXZ 0000000180022918     backend.obj
 0002:00007920       $unwind$?getGranularity@HugePagesStatus@internal@rml@@QEBA_KXZ 0000000180022920     backend.obj
 0002:00007928       $unwind$?userPool@ExtMemoryPool@internal@rml@@QEBA_NXZ 0000000180022928     backend.obj
 0002:00007930       $unwind$?regionsAreReleaseable@ExtMemoryPool@internal@rml@@QEBA_NXZ 0000000180022930     backend.obj
 0002:00007938       $unwind$?makeCoalscing@GuardedSize@internal@rml@@QEAAXXZ 0000000180022938     backend.obj
 0002:00007940       $unwind$?tryLock@GuardedSize@internal@rml@@QEAA_KW4State@123@@Z 0000000180022940     backend.obj
 0002:00007948       $unwind$?unlock@GuardedSize@internal@rml@@QEAAX_K@Z 0000000180022948     backend.obj
 0002:00007950       $unwind$?rightNeig@FreeBlock@internal@rml@@QEBAPEAV123@_K@Z 0000000180022950     backend.obj
 0002:00007958       $unwind$?leftNeig@FreeBlock@internal@rml@@QEBAPEAV123@_K@Z 0000000180022958     backend.obj
 0002:00007960       $unwind$?initHeader@FreeBlock@internal@rml@@QEAAXXZ 0000000180022960     backend.obj
 0002:00007968       $unwind$?setMeFree@FreeBlock@internal@rml@@QEAAX_K@Z 0000000180022968     backend.obj
 0002:00007970       $unwind$?trySetMeUsed@FreeBlock@internal@rml@@QEAA_KW4State@GuardedSize@23@@Z 0000000180022970     backend.obj
 0002:00007978       $unwind$?setLeftFree@FreeBlock@internal@rml@@QEAAX_K@Z 0000000180022978     backend.obj
 0002:00007980       $unwind$?trySetLeftUsed@FreeBlock@internal@rml@@QEAA_KW4State@GuardedSize@23@@Z 0000000180022980     backend.obj
 0002:00007988       $unwind$?tryLockBlock@FreeBlock@internal@rml@@QEAA_KXZ 0000000180022988     backend.obj
 0002:00007990       $unwind$?markCoalescing@FreeBlock@internal@rml@@QEAAX_K@Z 0000000180022990     backend.obj
 0002:00007998       $unwind$?markUsed@FreeBlock@internal@rml@@QEAAXXZ 0000000180022998     backend.obj
 0002:000079a0       $unwind$?markBlocks@FreeBlock@internal@rml@@SAXPEAV123@H_K@Z 00000001800229a0     backend.obj
 0002:000079a8       $unwind$??$AtomicUpdate@_KVMaxRequestComparator@Backend@internal@rml@@@internal@rml@@YAXAEA_K_KAEBVMaxRequestComparator@Backend@01@@Z 00000001800229a8     backend.obj
 0002:000079b0       $unwind$?load_with_acquire@?$machine_load_store@_J$07@internal@tbb@@SA_JAED_J@Z 00000001800229b0     backend.obj
 0002:000079b8       $unwind$??$is_aligned@D@internal@tbb@@YA_NPEAD_K@Z 00000001800229b8     backend.obj
 0002:000079c0       $unwind$??$is_aligned@VFreeBlock@internal@rml@@@internal@tbb@@YA_NPEAVFreeBlock@0rml@@_K@Z 00000001800229c0     backend.obj
 0002:000079c8       $unwind$??$is_aligned@ULastFreeBlock@internal@rml@@@internal@tbb@@YA_NPEAULastFreeBlock@0rml@@_K@Z 00000001800229c8     backend.obj
 0002:000079d0       $unwind$?__TBB_machine_cmpswp8@@YA_JPECX_J1@Z 00000001800229d0     large_objects.obj
 0002:000079d8       $unwind$?lg_bsr@msvc_intrinsics@internal@tbb@@YA_K_K@Z 00000001800229d8     large_objects.obj
 0002:000079e0       $unwind$?sizeToIdx@LargeObjectCache@internal@rml@@CAH_K@Z 00000001800229e0     large_objects.obj
 0002:000079e8       $unwind$?put@LargeObjectCache@internal@rml@@QEAAXPEAULargeMemoryBlock@23@@Z 00000001800229e8     large_objects.obj
 0002:000079f0       $unwind$?putList@LargeObjectCache@internal@rml@@QEAAXPEAULargeMemoryBlock@23@@Z 00000001800229f0     large_objects.obj
 0002:000079f8       $unwind$?get@LargeObjectCache@internal@rml@@QEAAPEAULargeMemoryBlock@23@_K@Z 00000001800229f8     large_objects.obj
 0002:00007a00       $unwind$?updateCacheState@LargeObjectCache@internal@rml@@QEAAXW4DecreaseOrIncrease@23@_K@Z 0000000180022a00     large_objects.obj
 0002:00007a08       $unwind$?doCleanup@LargeObjectCache@internal@rml@@QEAA_N_K_N@Z 0000000180022a08     large_objects.obj
 0002:00007a10       $unwind$?decreasingCleanup@LargeObjectCache@internal@rml@@QEAA_NXZ 0000000180022a10     large_objects.obj
 0002:00007a18       $unwind$?regularCleanup@LargeObjectCache@internal@rml@@QEAA_NXZ 0000000180022a18     large_objects.obj
 0002:00007a20       $unwind$?cleanAll@LargeObjectCache@internal@rml@@QEAA_NXZ 0000000180022a20     large_objects.obj
 0002:00007a28       $unwind$?registerRealloc@LargeObjectCache@internal@rml@@QEAAX_K0@Z 0000000180022a28     large_objects.obj
 0002:00007a30       $unwind$?softCachesCleanup@ExtMemoryPool@internal@rml@@QEAA_NXZ 0000000180022a30     large_objects.obj
 0002:00007a38       $unwind$?hardCachesCleanup@ExtMemoryPool@internal@rml@@QEAA_NXZ 0000000180022a38     large_objects.obj
 0002:00007a40       $unwind$?mallocLargeObject@ExtMemoryPool@internal@rml@@QEAAPEAULargeMemoryBlock@23@PEAVMemoryPool@23@_K@Z 0000000180022a40     large_objects.obj
 0002:00007a48       $unwind$?freeLargeObject@ExtMemoryPool@internal@rml@@QEAAXPEAULargeMemoryBlock@23@@Z 0000000180022a48     large_objects.obj
 0002:00007a50       $unwind$?freeLargeObjectList@ExtMemoryPool@internal@rml@@QEAAXPEAULargeMemoryBlock@23@@Z 0000000180022a50     large_objects.obj
 0002:00007a58       $unwind$?__TBB_store_with_release@internal@tbb@@YAXAEC_K_K@Z 0000000180022a58     large_objects.obj
 0002:00007a60       $unwind$?call_itt_notify@internal@tbb@@YAXW4notify_type@12@PEAX@Z 0000000180022a60     large_objects.obj
 0002:00007a68       $unwind$?fetch_and_store@?$atomic_impl@PEAUCacheBinOperation@internal@rml@@@internal@tbb@@QEAAPEAUCacheBinOperation@2rml@@PEAU425@@Z 0000000180022a68     large_objects.obj
 0002:00007a70       $unwind$?compare_and_swap@?$atomic_impl@PEAUCacheBinOperation@internal@rml@@@internal@tbb@@QEAAPEAUCacheBinOperation@2rml@@PEAU425@0@Z 0000000180022a70     large_objects.obj
 0002:00007a78       $unwind$??B?$atomic_impl@PEAUCacheBinOperation@internal@rml@@@internal@tbb@@QEDAPEAUCacheBinOperation@1rml@@XZ 0000000180022a78     large_objects.obj
 0002:00007a80       $unwind$?set@?$BitMaskBasic@$0PC@@internal@rml@@IEAAX_K_N@Z 0000000180022a80     large_objects.obj
 0002:00007a88       $unwind$?getMinTrue@?$BitMaskBasic@$0PC@@internal@rml@@IEBAHI@Z 0000000180022a88     large_objects.obj
 0002:00007a90       $unwind$?set@?$BitMaskMax@$0PC@@internal@rml@@QEAAX_K_N@Z 0000000180022a90     large_objects.obj
 0002:00007a98       $unwind$?getMaxTrue@?$BitMaskMax@$0PC@@internal@rml@@QEBAHI@Z 0000000180022a98     large_objects.obj
 0002:00007aa0       $unwind$?ExecuteOperation@CacheBin@?$LargeObjectCacheImpl@U?$LargeObjectCacheProps@$0IAAAAA@$0IBAAAAA@$0IAAAA@$00$00$03@internal@rml@@@internal@rml@@AEAAXPEAUCacheBinOperation@34@PEAUExtMemoryPool@34@PEAV?$BitMaskMax@$0PC@@34@H_N@Z 0000000180022aa0     large_objects.obj
 0002:00007aa8       $unwind$?putList@CacheBin@?$LargeObjectCacheImpl@U?$LargeObjectCacheProps@$0IAAAAA@$0IBAAAAA@$0IAAAA@$00$00$03@internal@rml@@@internal@rml@@QEAAXPEAUExtMemoryPool@34@PEAULargeMemoryBlock@34@PEAV?$BitMaskMax@$0PC@@34@H@Z 0000000180022aa8     large_objects.obj
 0002:00007ab0       $unwind$?get@CacheBin@?$LargeObjectCacheImpl@U?$LargeObjectCacheProps@$0IAAAAA@$0IBAAAAA@$0IAAAA@$00$00$03@internal@rml@@@internal@rml@@QEAAPEAULargeMemoryBlock@34@PEAUExtMemoryPool@34@_KPEAV?$BitMaskMax@$0PC@@34@H@Z 0000000180022ab0     large_objects.obj
 0002:00007ab8       $unwind$?cleanToThreshold@CacheBin@?$LargeObjectCacheImpl@U?$LargeObjectCacheProps@$0IAAAAA@$0IBAAAAA@$0IAAAA@$00$00$03@internal@rml@@@internal@rml@@QEAA_NPEAUExtMemoryPool@34@PEAV?$BitMaskMax@$0PC@@34@_KH@Z 0000000180022ab8     large_objects.obj
 0002:00007ac0       $unwind$?releaseAllToBackend@CacheBin@?$LargeObjectCacheImpl@U?$LargeObjectCacheProps@$0IAAAAA@$0IBAAAAA@$0IAAAA@$00$00$03@internal@rml@@@internal@rml@@QEAA_NPEAUExtMemoryPool@34@PEAV?$BitMaskMax@$0PC@@34@H@Z 0000000180022ac0     large_objects.obj
 0002:00007ac8       $unwind$?updateUsedSize@CacheBin@?$LargeObjectCacheImpl@U?$LargeObjectCacheProps@$0IAAAAA@$0IBAAAAA@$0IAAAA@$00$00$03@internal@rml@@@internal@rml@@QEAAXPEAUExtMemoryPool@34@_KPEAV?$BitMaskMax@$0PC@@34@H@Z 0000000180022ac8     large_objects.obj
 0002:00007ad0       $unwind$?updateBinsSummary@CacheBin@?$LargeObjectCacheImpl@U?$LargeObjectCacheProps@$0IAAAAA@$0IBAAAAA@$0IAAAA@$00$00$03@internal@rml@@@internal@rml@@QEBAXPEAVBinsSummary@234@@Z 0000000180022ad0     large_objects.obj
 0002:00007ad8       $unwind$?forgetOutdatedState@CacheBin@?$LargeObjectCacheImpl@U?$LargeObjectCacheProps@$0IAAAAA@$0IBAAAAA@$0IAAAA@$00$00$03@internal@rml@@@internal@rml@@QEAAX_K@Z 0000000180022ad8     large_objects.obj
 0002:00007ae0       $unwind$?putList@CacheBin@?$LargeObjectCacheImpl@U?$LargeObjectCacheProps@$0IAAAAA@$0IBAAAAA@$0IAAAA@$00$00$03@internal@rml@@@internal@rml@@QEAAPEAULargeMemoryBlock@34@PEAU534@0PEAV?$BitMaskMax@$0PC@@34@HH@Z 0000000180022ae0     large_objects.obj
 0002:00007ae8       $unwind$?get@CacheBin@?$LargeObjectCacheImpl@U?$LargeObjectCacheProps@$0IAAAAA@$0IBAAAAA@$0IAAAA@$00$00$03@internal@rml@@@internal@rml@@QEAAPEAULargeMemoryBlock@34@XZ 0000000180022ae8     large_objects.obj
 0002:00007af0       $unwind$?cleanToThreshold@CacheBin@?$LargeObjectCacheImpl@U?$LargeObjectCacheProps@$0IAAAAA@$0IBAAAAA@$0IAAAA@$00$00$03@internal@rml@@@internal@rml@@QEAAPEAULargeMemoryBlock@34@_KPEAV?$BitMaskMax@$0PC@@34@H@Z 0000000180022af0     large_objects.obj
 0002:00007af8       $unwind$?cleanAll@CacheBin@?$LargeObjectCacheImpl@U?$LargeObjectCacheProps@$0IAAAAA@$0IBAAAAA@$0IAAAA@$00$00$03@internal@rml@@@internal@rml@@QEAAPEAULargeMemoryBlock@34@PEAV?$BitMaskMax@$0PC@@34@H@Z 0000000180022af8     large_objects.obj
 0002:00007b00       $unwind$?updateUsedSize@CacheBin@?$LargeObjectCacheImpl@U?$LargeObjectCacheProps@$0IAAAAA@$0IBAAAAA@$0IAAAA@$00$00$03@internal@rml@@@internal@rml@@QEAAX_KPEAV?$BitMaskMax@$0PC@@34@H@Z 0000000180022b00     large_objects.obj
 0002:00007b08       $unwind$?updateMeanHitRange@CacheBin@?$LargeObjectCacheImpl@U?$LargeObjectCacheProps@$0IAAAAA@$0IBAAAAA@$0IAAAA@$00$00$03@internal@rml@@@internal@rml@@QEAAX_J@Z 0000000180022b08     large_objects.obj
 0002:00007b10       $unwind$?sizeToIdx@?$LargeObjectCacheImpl@U?$LargeObjectCacheProps@$0IAAAAA@$0IBAAAAA@$0IAAAA@$00$00$03@internal@rml@@@internal@rml@@SAH_K@Z 0000000180022b10     large_objects.obj
 0002:00007b18       $unwind$?putList@?$LargeObjectCacheImpl@U?$LargeObjectCacheProps@$0IAAAAA@$0IBAAAAA@$0IAAAA@$00$00$03@internal@rml@@@internal@rml@@QEAAXPEAUExtMemoryPool@23@PEAULargeMemoryBlock@23@@Z 0000000180022b18     large_objects.obj
 0002:00007b20       $unwind$?get@?$LargeObjectCacheImpl@U?$LargeObjectCacheProps@$0IAAAAA@$0IBAAAAA@$0IAAAA@$00$00$03@internal@rml@@@internal@rml@@QEAAPEAULargeMemoryBlock@23@PEAUExtMemoryPool@23@_K@Z 0000000180022b20     large_objects.obj
 0002:00007b28       $unwind$?updateCacheState@?$LargeObjectCacheImpl@U?$LargeObjectCacheProps@$0IAAAAA@$0IBAAAAA@$0IAAAA@$00$00$03@internal@rml@@@internal@rml@@QEAAXPEAUExtMemoryPool@23@W4DecreaseOrIncrease@23@_K@Z 0000000180022b28     large_objects.obj
 0002:00007b30       $unwind$?regularCleanup@?$LargeObjectCacheImpl@U?$LargeObjectCacheProps@$0IAAAAA@$0IBAAAAA@$0IAAAA@$00$00$03@internal@rml@@@internal@rml@@QEAA_NPEAUExtMemoryPool@23@_K_N@Z 0000000180022b30     large_objects.obj
 0002:00007b38       $unwind$?cleanAll@?$LargeObjectCacheImpl@U?$LargeObjectCacheProps@$0IAAAAA@$0IBAAAAA@$0IAAAA@$00$00$03@internal@rml@@@internal@rml@@QEAA_NPEAUExtMemoryPool@23@@Z 0000000180022b38     large_objects.obj
 0002:00007b40       $unwind$?set@?$BitMaskBasic@$0DPP@@internal@rml@@IEAAX_K_N@Z 0000000180022b40     large_objects.obj
 0002:00007b48       $unwind$?getMinTrue@?$BitMaskBasic@$0DPP@@internal@rml@@IEBAHI@Z 0000000180022b48     large_objects.obj
 0002:00007b50       $unwind$?set@?$BitMaskMax@$0DPP@@internal@rml@@QEAAX_K_N@Z 0000000180022b50     large_objects.obj
 0002:00007b58       $unwind$?getMaxTrue@?$BitMaskMax@$0DPP@@internal@rml@@QEBAHI@Z 0000000180022b58     large_objects.obj
 0002:00007b60       $unwind$?ExecuteOperation@CacheBin@?$LargeObjectCacheImpl@U?$LargeObjectCacheProps@$0CAAA@$0IAAAAA@$0CAAA@$01$01$0BA@@internal@rml@@@internal@rml@@AEAAXPEAUCacheBinOperation@34@PEAUExtMemoryPool@34@PEAV?$BitMaskMax@$0DPP@@34@H_N@Z 0000000180022b60     large_objects.obj
 0002:00007b68       $unwind$?putList@CacheBin@?$LargeObjectCacheImpl@U?$LargeObjectCacheProps@$0CAAA@$0IAAAAA@$0CAAA@$01$01$0BA@@internal@rml@@@internal@rml@@QEAAXPEAUExtMemoryPool@34@PEAULargeMemoryBlock@34@PEAV?$BitMaskMax@$0DPP@@34@H@Z 0000000180022b68     large_objects.obj
 0002:00007b70       $unwind$?get@CacheBin@?$LargeObjectCacheImpl@U?$LargeObjectCacheProps@$0CAAA@$0IAAAAA@$0CAAA@$01$01$0BA@@internal@rml@@@internal@rml@@QEAAPEAULargeMemoryBlock@34@PEAUExtMemoryPool@34@_KPEAV?$BitMaskMax@$0DPP@@34@H@Z 0000000180022b70     large_objects.obj
 0002:00007b78       $unwind$?cleanToThreshold@CacheBin@?$LargeObjectCacheImpl@U?$LargeObjectCacheProps@$0CAAA@$0IAAAAA@$0CAAA@$01$01$0BA@@internal@rml@@@internal@rml@@QEAA_NPEAUExtMemoryPool@34@PEAV?$BitMaskMax@$0DPP@@34@_KH@Z 0000000180022b78     large_objects.obj
 0002:00007b80       $unwind$?releaseAllToBackend@CacheBin@?$LargeObjectCacheImpl@U?$LargeObjectCacheProps@$0CAAA@$0IAAAAA@$0CAAA@$01$01$0BA@@internal@rml@@@internal@rml@@QEAA_NPEAUExtMemoryPool@34@PEAV?$BitMaskMax@$0DPP@@34@H@Z 0000000180022b80     large_objects.obj
 0002:00007b88       $unwind$?updateUsedSize@CacheBin@?$LargeObjectCacheImpl@U?$LargeObjectCacheProps@$0CAAA@$0IAAAAA@$0CAAA@$01$01$0BA@@internal@rml@@@internal@rml@@QEAAXPEAUExtMemoryPool@34@_KPEAV?$BitMaskMax@$0DPP@@34@H@Z 0000000180022b88     large_objects.obj
 0002:00007b90       $unwind$?updateBinsSummary@CacheBin@?$LargeObjectCacheImpl@U?$LargeObjectCacheProps@$0CAAA@$0IAAAAA@$0CAAA@$01$01$0BA@@internal@rml@@@internal@rml@@QEBAXPEAVBinsSummary@234@@Z 0000000180022b90     large_objects.obj
 0002:00007b98       $unwind$?forgetOutdatedState@CacheBin@?$LargeObjectCacheImpl@U?$LargeObjectCacheProps@$0CAAA@$0IAAAAA@$0CAAA@$01$01$0BA@@internal@rml@@@internal@rml@@QEAAX_K@Z 0000000180022b98     large_objects.obj
 0002:00007ba0       $unwind$?putList@CacheBin@?$LargeObjectCacheImpl@U?$LargeObjectCacheProps@$0CAAA@$0IAAAAA@$0CAAA@$01$01$0BA@@internal@rml@@@internal@rml@@QEAAPEAULargeMemoryBlock@34@PEAU534@0PEAV?$BitMaskMax@$0DPP@@34@HH@Z 0000000180022ba0     large_objects.obj
 0002:00007ba8       $unwind$?get@CacheBin@?$LargeObjectCacheImpl@U?$LargeObjectCacheProps@$0CAAA@$0IAAAAA@$0CAAA@$01$01$0BA@@internal@rml@@@internal@rml@@QEAAPEAULargeMemoryBlock@34@XZ 0000000180022ba8     large_objects.obj
 0002:00007bb0       $unwind$?cleanToThreshold@CacheBin@?$LargeObjectCacheImpl@U?$LargeObjectCacheProps@$0CAAA@$0IAAAAA@$0CAAA@$01$01$0BA@@internal@rml@@@internal@rml@@QEAAPEAULargeMemoryBlock@34@_KPEAV?$BitMaskMax@$0DPP@@34@H@Z 0000000180022bb0     large_objects.obj
 0002:00007bb8       $unwind$?cleanAll@CacheBin@?$LargeObjectCacheImpl@U?$LargeObjectCacheProps@$0CAAA@$0IAAAAA@$0CAAA@$01$01$0BA@@internal@rml@@@internal@rml@@QEAAPEAULargeMemoryBlock@34@PEAV?$BitMaskMax@$0DPP@@34@H@Z 0000000180022bb8     large_objects.obj
 0002:00007bc0       $unwind$?updateUsedSize@CacheBin@?$LargeObjectCacheImpl@U?$LargeObjectCacheProps@$0CAAA@$0IAAAAA@$0CAAA@$01$01$0BA@@internal@rml@@@internal@rml@@QEAAX_KPEAV?$BitMaskMax@$0DPP@@34@H@Z 0000000180022bc0     large_objects.obj
 0002:00007bc8       $unwind$?updateMeanHitRange@CacheBin@?$LargeObjectCacheImpl@U?$LargeObjectCacheProps@$0CAAA@$0IAAAAA@$0CAAA@$01$01$0BA@@internal@rml@@@internal@rml@@QEAAX_J@Z 0000000180022bc8     large_objects.obj
 0002:00007bd0       $unwind$?sizeToIdx@?$LargeObjectCacheImpl@U?$LargeObjectCacheProps@$0CAAA@$0IAAAAA@$0CAAA@$01$01$0BA@@internal@rml@@@internal@rml@@SAH_K@Z 0000000180022bd0     large_objects.obj
 0002:00007bd8       $unwind$?putList@?$LargeObjectCacheImpl@U?$LargeObjectCacheProps@$0CAAA@$0IAAAAA@$0CAAA@$01$01$0BA@@internal@rml@@@internal@rml@@QEAAXPEAUExtMemoryPool@23@PEAULargeMemoryBlock@23@@Z 0000000180022bd8     large_objects.obj
 0002:00007be0       $unwind$?get@?$LargeObjectCacheImpl@U?$LargeObjectCacheProps@$0CAAA@$0IAAAAA@$0CAAA@$01$01$0BA@@internal@rml@@@internal@rml@@QEAAPEAULargeMemoryBlock@23@PEAUExtMemoryPool@23@_K@Z 0000000180022be0     large_objects.obj
 0002:00007be8       $unwind$?updateCacheState@?$LargeObjectCacheImpl@U?$LargeObjectCacheProps@$0CAAA@$0IAAAAA@$0CAAA@$01$01$0BA@@internal@rml@@@internal@rml@@QEAAXPEAUExtMemoryPool@23@W4DecreaseOrIncrease@23@_K@Z 0000000180022be8     large_objects.obj
 0002:00007bf0       $unwind$?regularCleanup@?$LargeObjectCacheImpl@U?$LargeObjectCacheProps@$0CAAA@$0IAAAAA@$0CAAA@$01$01$0BA@@internal@rml@@@internal@rml@@QEAA_NPEAUExtMemoryPool@23@_K_N@Z 0000000180022bf0     large_objects.obj
 0002:00007bf8       $unwind$?cleanAll@?$LargeObjectCacheImpl@U?$LargeObjectCacheProps@$0CAAA@$0IAAAAA@$0CAAA@$01$01$0BA@@internal@rml@@@internal@rml@@QEAA_NPEAUExtMemoryPool@23@@Z 0000000180022bf8     large_objects.obj
 0002:00007c00       $unwind$?isCleanupNeededOnRange@LargeObjectCache@internal@rml@@QEAA_N_K0@Z 0000000180022c00     large_objects.obj
 0002:00007c08       $unwind$?getCurrTimeRange@LargeObjectCache@internal@rml@@QEAA_K_K@Z 0000000180022c08     large_objects.obj
 0002:00007c10       $unwind$?isInvalid@BackRefIdx@internal@rml@@QEBA_NXZ 0000000180022c10     large_objects.obj
 0002:00007c18       $unwind$?lessThanWithOverflow@internal@rml@@YA_N_J0@Z 0000000180022c18     large_objects.obj
 0002:00007c20       $unwind$?isLOCTooLarge@BinsSummary@?$LargeObjectCacheImpl@U?$LargeObjectCacheProps@$0CAAA@$0IAAAAA@$0CAAA@$01$01$0BA@@internal@rml@@@internal@rml@@QEBA_NXZ 0000000180022c20     large_objects.obj
 0002:00007c28       $unwind$?isLOCTooLarge@BinsSummary@?$LargeObjectCacheImpl@U?$LargeObjectCacheProps@$0IAAAAA@$0IBAAAAA@$0IAAAA@$00$00$03@internal@rml@@@internal@rml@@QEBA_NXZ 0000000180022c28     large_objects.obj
 0002:00007c30       $unwind$??$?0UOpPutList@internal@rml@@@CacheBinOperation@internal@rml@@QEAA@AEAUOpPutList@12@W4CacheBinOperationStatus@12@@Z 0000000180022c30     large_objects.obj
 0002:00007c38       $unwind$??$?0UOpGet@internal@rml@@@CacheBinOperation@internal@rml@@QEAA@AEAUOpGet@12@W4CacheBinOperationStatus@12@@Z 0000000180022c38     large_objects.obj
 0002:00007c44       $unwind$??$?0UOpCleanToThreshold@internal@rml@@@CacheBinOperation@internal@rml@@QEAA@AEAUOpCleanToThreshold@12@W4CacheBinOperationStatus@12@@Z 0000000180022c44     large_objects.obj
 0002:00007c50       $unwind$??$?0UOpCleanAll@internal@rml@@@CacheBinOperation@internal@rml@@QEAA@AEAUOpCleanAll@12@W4CacheBinOperationStatus@12@@Z 0000000180022c50     large_objects.obj
 0002:00007c58       $unwind$??$?0UOpUpdateUsedSize@internal@rml@@@CacheBinOperation@internal@rml@@QEAA@AEAUOpUpdateUsedSize@12@W4CacheBinOperationStatus@12@@Z 0000000180022c58     large_objects.obj
 0002:00007c60       $unwind$??R?$CacheBinFunctor@U?$LargeObjectCacheProps@$0IAAAAA@$0IBAAAAA@$0IAAAA@$00$00$03@internal@rml@@@internal@rml@@QEAAXPEAUCacheBinOperation@12@@Z 0000000180022c60     large_objects.obj
 0002:00007c68       $unwind$??$execute@V?$CacheBinFunctor@U?$LargeObjectCacheProps@$0IAAAAA@$0IBAAAAA@$0IAAAA@$00$00$03@internal@rml@@@internal@rml@@@?$aggregator_generic@UCacheBinOperation@internal@rml@@@internal@interface6@tbb@@QEAAXPEAUCacheBinOperation@1rml@@AEAV?$CacheBinFunctor@U?$LargeObjectCacheProps@$0IAAAAA@$0IBAAAAA@$0IAAAA@$00$00$03@internal@rml@@@15@_N@Z 0000000180022c68     large_objects.obj
 0002:00007c70       $unwind$??R?$CacheBinFunctor@U?$LargeObjectCacheProps@$0CAAA@$0IAAAAA@$0CAAA@$01$01$0BA@@internal@rml@@@internal@rml@@QEAAXPEAUCacheBinOperation@12@@Z 0000000180022c70     large_objects.obj
 0002:00007c78       $unwind$??$execute@V?$CacheBinFunctor@U?$LargeObjectCacheProps@$0CAAA@$0IAAAAA@$0CAAA@$01$01$0BA@@internal@rml@@@internal@rml@@@?$aggregator_generic@UCacheBinOperation@internal@rml@@@internal@interface6@tbb@@QEAAXPEAUCacheBinOperation@1rml@@AEAV?$CacheBinFunctor@U?$LargeObjectCacheProps@$0CAAA@$0IAAAAA@$0CAAA@$01$01$0BA@@internal@rml@@@15@_N@Z 0000000180022c78     large_objects.obj
 0002:00007c80       $unwind$??$start_handle_operations@V?$CacheBinFunctor@U?$LargeObjectCacheProps@$0IAAAAA@$0IBAAAAA@$0IAAAA@$00$00$03@internal@rml@@@internal@rml@@@?$aggregator_generic@UCacheBinOperation@internal@rml@@@internal@interface6@tbb@@AEAAXAEAV?$CacheBinFunctor@U?$LargeObjectCacheProps@$0IAAAAA@$0IBAAAAA@$0IAAAA@$00$00$03@internal@rml@@@1rml@@@Z 0000000180022c80     large_objects.obj
 0002:00007c88       $unwind$??$spin_wait_while_eq@_K_K@internal@tbb@@YAXAED_K_K@Z 0000000180022c88     large_objects.obj
 0002:00007c90       $unwind$??$itt_load_word_with_acquire@_K@internal@tbb@@YA_KAEA_K@Z 0000000180022c90     large_objects.obj
 0002:00007c98       $unwind$??$start_handle_operations@V?$CacheBinFunctor@U?$LargeObjectCacheProps@$0CAAA@$0IAAAAA@$0CAAA@$01$01$0BA@@internal@rml@@@internal@rml@@@?$aggregator_generic@UCacheBinOperation@internal@rml@@@internal@interface6@tbb@@AEAAXAEAV?$CacheBinFunctor@U?$LargeObjectCacheProps@$0CAAA@$0IAAAAA@$0CAAA@$01$01$0BA@@internal@rml@@@1rml@@@Z 0000000180022c98     large_objects.obj
 0002:00007ca0       $unwind$??$to_bits_ref@SEAUCacheBinOperation@internal@rml@@@?$atomic_impl@PEAUCacheBinOperation@internal@rml@@@internal@tbb@@CAAEA_JAEDSEAUCacheBinOperation@1rml@@@Z 0000000180022ca0     large_objects.obj
 0002:00007ca8       $unwind$??$to_value@PEAUCacheBinOperation@internal@rml@@@?$atomic_impl@PEAUCacheBinOperation@internal@rml@@@internal@tbb@@CAPEAUCacheBinOperation@1rml@@_J@Z 0000000180022ca8     large_objects.obj
 0002:00007cb0       $unwind$??$compare_and_swap@$0A@@?$atomic_impl@PEAUCacheBinOperation@internal@rml@@@internal@tbb@@QEAAPEAUCacheBinOperation@1rml@@PEAU314@0@Z 0000000180022cb0     large_objects.obj
 0002:00007cb8       $unwind$??$spin_wait_until_eq@_K_K@internal@tbb@@YAXAED_K_K@Z 0000000180022cb8     large_objects.obj
 0002:00007cc0       $unwind$??$itt_store_word_with_release@_K@internal@tbb@@YAXAEA_K_K@Z 0000000180022cc0     large_objects.obj
 0002:00007cc8       $unwind$?compare_and_swap@?$atomic_traits@$07$0A@@internal@tbb@@SA_JPECX_J1@Z 0000000180022cc8     large_objects.obj
 0002:00007cd0       $unwind$?fetch_and_store@?$atomic_traits@$07$0A@@internal@tbb@@SA_JPECX_J@Z 0000000180022cd0     large_objects.obj
 0002:00007cd8       $unwind$??$to_bits@PEAUCacheBinOperation@internal@rml@@@?$atomic_impl@PEAUCacheBinOperation@internal@rml@@@internal@tbb@@CA_JPEAUCacheBinOperation@1rml@@@Z 0000000180022cd8     large_objects.obj
 0002:00007ce0       $unwind$??$fetch_and_store@$0A@@?$atomic_impl@PEAUCacheBinOperation@internal@rml@@@internal@tbb@@QEAAPEAUCacheBinOperation@1rml@@PEAU314@@Z 0000000180022ce0     large_objects.obj
 0002:00007ce8       $unwind$?commitOperation@OperationPreprocessor@?$CacheBinFunctor@U?$LargeObjectCacheProps@$0IAAAAA@$0IBAAAAA@$0IAAAA@$00$00$03@internal@rml@@@internal@rml@@AEBAXPEAUCacheBinOperation@34@@Z 0000000180022ce8     large_objects.obj
 0002:00007cf0       $unwind$?getFromPutList@OperationPreprocessor@?$CacheBinFunctor@U?$LargeObjectCacheProps@$0IAAAAA@$0IBAAAAA@$0IAAAA@$00$00$03@internal@rml@@@internal@rml@@AEAA_NPEAUCacheBinOperation@34@_K@Z 0000000180022cf0     large_objects.obj
 0002:00007cf8       $unwind$?addToPutList@OperationPreprocessor@?$CacheBinFunctor@U?$LargeObjectCacheProps@$0IAAAAA@$0IBAAAAA@$0IAAAA@$00$00$03@internal@rml@@@internal@rml@@AEAAXPEAULargeMemoryBlock@34@0H@Z 0000000180022cf8     large_objects.obj
 0002:00007d00       $unwind$??ROperationPreprocessor@?$CacheBinFunctor@U?$LargeObjectCacheProps@$0IAAAAA@$0IBAAAAA@$0IAAAA@$00$00$03@internal@rml@@@internal@rml@@QEAAXPEAUCacheBinOperation@23@@Z 0000000180022d00     large_objects.obj
 0002:00007d08       $unwind$?commitOperation@OperationPreprocessor@?$CacheBinFunctor@U?$LargeObjectCacheProps@$0CAAA@$0IAAAAA@$0CAAA@$01$01$0BA@@internal@rml@@@internal@rml@@AEBAXPEAUCacheBinOperation@34@@Z 0000000180022d08     large_objects.obj
 0002:00007d10       $unwind$?getFromPutList@OperationPreprocessor@?$CacheBinFunctor@U?$LargeObjectCacheProps@$0CAAA@$0IAAAAA@$0CAAA@$01$01$0BA@@internal@rml@@@internal@rml@@AEAA_NPEAUCacheBinOperation@34@_K@Z 0000000180022d10     large_objects.obj
 0002:00007d18       $unwind$?addToPutList@OperationPreprocessor@?$CacheBinFunctor@U?$LargeObjectCacheProps@$0CAAA@$0IAAAAA@$0CAAA@$01$01$0BA@@internal@rml@@@internal@rml@@AEAAXPEAULargeMemoryBlock@34@0H@Z 0000000180022d18     large_objects.obj
 0002:00007d20       $unwind$??ROperationPreprocessor@?$CacheBinFunctor@U?$LargeObjectCacheProps@$0CAAA@$0IAAAAA@$0CAAA@$01$01$0BA@@internal@rml@@@internal@rml@@QEAAXPEAUCacheBinOperation@23@@Z 0000000180022d20     large_objects.obj
 0002:00007d28       $unwind$?__TBB_machine_cmpswp1@@YADPECXDD@Z 0000000180022d28     backref.obj
 0002:00007d30       $unwind$?newBackRef@BackRefIdx@internal@rml@@SA?AV123@_N@Z 0000000180022d30     backref.obj
 0002:00007d40       $stateUnwindMap$?newBackRef@BackRefIdx@internal@rml@@SA?AV123@_N@Z 0000000180022d40     backref.obj
 0002:00007d48       $ip2state$?newBackRef@BackRefIdx@internal@rml@@SA?AV123@_N@Z 0000000180022d48     backref.obj
 0002:00007d60       $unwind$?dtor$0@?0??newBackRef@BackRefIdx@internal@rml@@SA?AV123@_N@Z@4HA 0000000180022d60     backref.obj
 0002:00007d68       $unwind$?initBackRefMaster@internal@rml@@YA_NPEAVBackend@12@@Z 0000000180022d68     backref.obj
 0002:00007d70       $unwind$?destroyBackRefMaster@internal@rml@@YAXPEAVBackend@12@@Z 0000000180022d70     backref.obj
 0002:00007d78       $unwind$?removeBackRef@internal@rml@@YAXVBackRefIdx@12@@Z 0000000180022d78     backref.obj
 0002:00007d88       $stateUnwindMap$?removeBackRef@internal@rml@@YAXVBackRefIdx@12@@Z 0000000180022d88     backref.obj
 0002:00007d98       $ip2state$?removeBackRef@internal@rml@@YAXVBackRefIdx@12@@Z 0000000180022d98     backref.obj
 0002:00007dc0       $unwind$?dtor$0@?0??removeBackRef@internal@rml@@YAXVBackRefIdx@12@@Z@4HA 0000000180022dc0     backref.obj
 0002:00007dc8       $unwind$?dtor$1@?0??removeBackRef@internal@rml@@YAXVBackRefIdx@12@@Z@4HA 0000000180022dc8     backref.obj
 0002:00007dd0       $unwind$?setBackRef@internal@rml@@YAXVBackRefIdx@12@PEAX@Z 0000000180022dd0     backref.obj
 0002:00007dd8       $unwind$?getBackRef@internal@rml@@YAPEAXVBackRefIdx@12@@Z 0000000180022dd8     backref.obj
 0002:00007de0       $unwind$?findFreeBlock@BackRefMaster@internal@rml@@QEAAPEAUBackRefBlock@23@XZ 0000000180022de0     backref.obj
 0002:00007df0       $stateUnwindMap$?findFreeBlock@BackRefMaster@internal@rml@@QEAAPEAUBackRefBlock@23@XZ 0000000180022df0     backref.obj
 0002:00007df8       $ip2state$?findFreeBlock@BackRefMaster@internal@rml@@QEAAPEAUBackRefBlock@23@XZ 0000000180022df8     backref.obj
 0002:00007e10       $unwind$?dtor$0@?0??findFreeBlock@BackRefMaster@internal@rml@@QEAAPEAUBackRefBlock@23@XZ@4HA 0000000180022e10     backref.obj
 0002:00007e18       $unwind$?initEmptyBackRefBlock@BackRefMaster@internal@rml@@QEAAXPEAUBackRefBlock@23@@Z 0000000180022e18     backref.obj
 0002:00007e20       $unwind$?requestNewSpace@BackRefMaster@internal@rml@@QEAA_NXZ 0000000180022e20     backref.obj
 0002:00007e30       $stateUnwindMap$?requestNewSpace@BackRefMaster@internal@rml@@QEAA_NXZ 0000000180022e30     backref.obj
 0002:00007e40       $ip2state$?requestNewSpace@BackRefMaster@internal@rml@@QEAA_NXZ 0000000180022e40     backref.obj
 0002:00007ea0       $unwind$?dtor$0@?0??requestNewSpace@BackRefMaster@internal@rml@@QEAA_NXZ@4HA 0000000180022ea0     backref.obj
 0002:00007ea8       $unwind$?dtor$1@?0??requestNewSpace@BackRefMaster@internal@rml@@QEAA_NXZ@4HA 0000000180022ea8     backref.obj
 0002:00007eb0       $unwind$??0MallocMutex@@QEAA@XZ 0000000180022eb0     backref.obj
 0002:00007eb8       $unwind$??0BackRefBlock@internal@rml@@QEAA@PEBU012@_J@Z 0000000180022eb8     backref.obj
 0002:00007ec0       $unwind$?zeroSet@BackRefBlock@internal@rml@@QEAAXXZ 0000000180022ec0     backref.obj
 0002:00007ec8       $unwind$??__EmasterMutex@internal@rml@@YAXXZ 0000000180022ec8     backref.obj
 0002:00007ed0       $unwind$?set_assertion_handler@internal@rml@@YAP6AXPEBDH00@ZP6AX0H00@Z@Z 0000000180022ed0     tbbmalloc.obj
 0002:00007ed8       $unwind$?assertion_failure@internal@rml@@YAXPEBDH00@Z 0000000180022ed8     tbbmalloc.obj
 0002:00007ee0       $unwind$?init_tbbmalloc@internal@rml@@YAXXZ 0000000180022ee0     tbbmalloc.obj
 0002:00007ee8       $unwind$DllMain            0000000180022ee8     tbbmalloc.obj
 0002:00007ef0       $unwind$_vfprintf_l        0000000180022ef0     tbbmalloc.obj
 0002:00007ef8       $unwind$fprintf            0000000180022ef8     tbbmalloc.obj
 0002:00007f00       $unwind$__itt_set_error_handler 0000000180022f00     itt_notify.obj
 0002:00007f08       $unwind$__itt_fini_ittlib  0000000180022f08     itt_notify.obj
 0002:00007f10       $unwind$?__itt_detach_init_3_0@@YAXXZ 0000000180022f10     itt_notify.obj
 0002:00007f18       $unwind$?__itt_sync_createA_init_3_0@@YAXPEAXPEBD1H@Z 0000000180022f18     itt_notify.obj
 0002:00007f20       $unwind$?__itt_sync_createW_init_3_0@@YAXPEAXPEB_W1H@Z 0000000180022f20     itt_notify.obj
 0002:00007f28       $unwind$?__itt_sync_renameA_init_3_0@@YAXPEAXPEBD@Z 0000000180022f28     itt_notify.obj
 0002:00007f30       $unwind$?__itt_sync_renameW_init_3_0@@YAXPEAXPEB_W@Z 0000000180022f30     itt_notify.obj
 0002:00007f38       $unwind$?__itt_sync_destroy_init_3_0@@YAXPEAX@Z 0000000180022f38     itt_notify.obj
 0002:00007f40       $unwind$?__itt_sync_prepare_init_3_0@@YAXPEAX@Z 0000000180022f40     itt_notify.obj
 0002:00007f48       $unwind$?__itt_sync_cancel_init_3_0@@YAXPEAX@Z 0000000180022f48     itt_notify.obj
 0002:00007f50       $unwind$?__itt_sync_acquired_init_3_0@@YAXPEAX@Z 0000000180022f50     itt_notify.obj
 0002:00007f58       $unwind$?__itt_sync_releasing_init_3_0@@YAXPEAX@Z 0000000180022f58     itt_notify.obj
 0002:00007f60       $unwind$?__itt_suppress_push_init_3_0@@YAXI@Z 0000000180022f60     itt_notify.obj
 0002:00007f68       $unwind$?__itt_suppress_pop_init_3_0@@YAXXZ 0000000180022f68     itt_notify.obj
 0002:00007f70       $unwind$?__itt_suppress_mark_range_init_3_0@@YAXW4__itt_suppress_mode@@IPEAX_K@Z 0000000180022f70     itt_notify.obj
 0002:00007f78       $unwind$?__itt_suppress_clear_range_init_3_0@@YAXW4__itt_suppress_mode@@IPEAX_K@Z 0000000180022f78     itt_notify.obj
 0002:00007f80       $unwind$?__itt_fsync_prepare_init_3_0@@YAXPEAX@Z 0000000180022f80     itt_notify.obj
 0002:00007f88       $unwind$?__itt_fsync_cancel_init_3_0@@YAXPEAX@Z 0000000180022f88     itt_notify.obj
 0002:00007f90       $unwind$?__itt_fsync_acquired_init_3_0@@YAXPEAX@Z 0000000180022f90     itt_notify.obj
 0002:00007f98       $unwind$?__itt_fsync_releasing_init_3_0@@YAXPEAX@Z 0000000180022f98     itt_notify.obj
 0002:00007fa0       $unwind$?__itt_model_site_begin_init_3_0@@YAXPEAPEAX0PEBD@Z 0000000180022fa0     itt_notify.obj
 0002:00007fa8       $unwind$?__itt_model_site_end_init_3_0@@YAXPEAPEAX0@Z 0000000180022fa8     itt_notify.obj
 0002:00007fb0       $unwind$?__itt_model_task_begin_init_3_0@@YAXPEAPEAX0PEBD@Z 0000000180022fb0     itt_notify.obj
 0002:00007fb8       $unwind$?__itt_model_task_end_init_3_0@@YAXPEAPEAX0@Z 0000000180022fb8     itt_notify.obj
 0002:00007fc0       $unwind$?__itt_model_lock_acquire_init_3_0@@YAXPEAX@Z 0000000180022fc0     itt_notify.obj
 0002:00007fc8       $unwind$?__itt_model_lock_release_init_3_0@@YAXPEAX@Z 0000000180022fc8     itt_notify.obj
 0002:00007fd0       $unwind$?__itt_model_record_allocation_init_3_0@@YAXPEAX_K@Z 0000000180022fd0     itt_notify.obj
 0002:00007fd8       $unwind$?__itt_model_record_deallocation_init_3_0@@YAXPEAX@Z 0000000180022fd8     itt_notify.obj
 0002:00007fe0       $unwind$?__itt_model_induction_uses_init_3_0@@YAXPEAX_K@Z 0000000180022fe0     itt_notify.obj
 0002:00007fe8       $unwind$?__itt_model_reduction_uses_init_3_0@@YAXPEAX_K@Z 0000000180022fe8     itt_notify.obj
 0002:00007ff0       $unwind$?__itt_model_observe_uses_init_3_0@@YAXPEAX_K@Z 0000000180022ff0     itt_notify.obj
 0002:00007ff8       $unwind$?__itt_model_clear_uses_init_3_0@@YAXPEAX@Z 0000000180022ff8     itt_notify.obj
 0002:00008000       $unwind$?__itt_model_site_beginW_init_3_0@@YAXPEB_W@Z 0000000180023000     itt_notify.obj
 0002:00008008       $unwind$?__itt_model_task_beginW_init_3_0@@YAXPEB_W@Z 0000000180023008     itt_notify.obj
 0002:00008010       $unwind$?__itt_model_iteration_taskW_init_3_0@@YAXPEB_W@Z 0000000180023010     itt_notify.obj
 0002:00008018       $unwind$?__itt_model_site_beginA_init_3_0@@YAXPEBD@Z 0000000180023018     itt_notify.obj
 0002:00008020       $unwind$?__itt_model_site_beginAL_init_3_0@@YAXPEBD_K@Z 0000000180023020     itt_notify.obj
 0002:00008028       $unwind$?__itt_model_task_beginA_init_3_0@@YAXPEBD@Z 0000000180023028     itt_notify.obj
 0002:00008030       $unwind$?__itt_model_task_beginAL_init_3_0@@YAXPEBD_K@Z 0000000180023030     itt_notify.obj
 0002:00008038       $unwind$?__itt_model_iteration_taskA_init_3_0@@YAXPEBD@Z 0000000180023038     itt_notify.obj
 0002:00008040       $unwind$?__itt_model_iteration_taskAL_init_3_0@@YAXPEBD_K@Z 0000000180023040     itt_notify.obj
 0002:00008048       $unwind$?__itt_model_site_end_2_init_3_0@@YAXXZ 0000000180023048     itt_notify.obj
 0002:00008050       $unwind$?__itt_model_task_end_2_init_3_0@@YAXXZ 0000000180023050     itt_notify.obj
 0002:00008058       $unwind$?__itt_model_lock_acquire_2_init_3_0@@YAXPEAX@Z 0000000180023058     itt_notify.obj
 0002:00008060       $unwind$?__itt_model_lock_release_2_init_3_0@@YAXPEAX@Z 0000000180023060     itt_notify.obj
 0002:00008068       $unwind$?__itt_model_aggregate_task_init_3_0@@YAX_K@Z 0000000180023068     itt_notify.obj
 0002:00008070       $unwind$?__itt_model_disable_push_init_3_0@@YAXW4__itt_model_disable@@@Z 0000000180023070     itt_notify.obj
 0002:00008078       $unwind$?__itt_model_disable_pop_init_3_0@@YAXXZ 0000000180023078     itt_notify.obj
 0002:00008080       $unwind$?__itt_heap_function_createA_init_3_0@@YAPEAXPEBD0@Z 0000000180023080     itt_notify.obj
 0002:00008088       $unwind$?__itt_heap_function_createW_init_3_0@@YAPEAXPEB_W0@Z 0000000180023088     itt_notify.obj
 0002:00008090       $unwind$?__itt_heap_allocate_begin_init_3_0@@YAXPEAX_KH@Z 0000000180023090     itt_notify.obj
 0002:00008098       $unwind$?__itt_heap_allocate_end_init_3_0@@YAXPEAXPEAPEAX_KH@Z 0000000180023098     itt_notify.obj
 0002:000080a0       $unwind$?__itt_heap_free_begin_init_3_0@@YAXPEAX0@Z 00000001800230a0     itt_notify.obj
 0002:000080a8       $unwind$?__itt_heap_free_end_init_3_0@@YAXPEAX0@Z 00000001800230a8     itt_notify.obj
 0002:000080b0       $unwind$?__itt_heap_reallocate_begin_init_3_0@@YAXPEAX0_KH@Z 00000001800230b0     itt_notify.obj
 0002:000080b8       $unwind$?__itt_heap_reallocate_end_init_3_0@@YAXPEAX0PEAPEAX_KH@Z 00000001800230b8     itt_notify.obj
 0002:000080c0       $unwind$?__itt_heap_internal_access_begin_init_3_0@@YAXXZ 00000001800230c0     itt_notify.obj
 0002:000080c8       $unwind$?__itt_heap_internal_access_end_init_3_0@@YAXXZ 00000001800230c8     itt_notify.obj
 0002:000080d0       $unwind$?__itt_heap_record_memory_growth_begin_init_3_0@@YAXXZ 00000001800230d0     itt_notify.obj
 0002:000080d8       $unwind$?__itt_heap_record_memory_growth_end_init_3_0@@YAXXZ 00000001800230d8     itt_notify.obj
 0002:000080e0       $unwind$?__itt_heap_reset_detection_init_3_0@@YAXI@Z 00000001800230e0     itt_notify.obj
 0002:000080e8       $unwind$?__itt_heap_record_init_3_0@@YAXI@Z 00000001800230e8     itt_notify.obj
 0002:000080f0       $unwind$?__itt_id_create_init_3_0@@YAXPEBU___itt_domain@@U___itt_id@@@Z 00000001800230f0     itt_notify.obj
 0002:000080fc       $unwind$?__itt_id_destroy_init_3_0@@YAXPEBU___itt_domain@@U___itt_id@@@Z 00000001800230fc     itt_notify.obj
 0002:00008108       $unwind$?__itt_get_timestamp_init_3_0@@YA_KXZ 0000000180023108     itt_notify.obj
 0002:00008110       $unwind$?__itt_region_begin_init_3_0@@YAXPEBU___itt_domain@@U___itt_id@@1PEAU___itt_string_handle@@@Z 0000000180023110     itt_notify.obj
 0002:0000811c       $unwind$?__itt_region_end_init_3_0@@YAXPEBU___itt_domain@@U___itt_id@@@Z 000000018002311c     itt_notify.obj
 0002:00008128       $unwind$?__itt_frame_begin_v3_init_3_0@@YAXPEBU___itt_domain@@PEAU___itt_id@@@Z 0000000180023128     itt_notify.obj
 0002:00008130       $unwind$?__itt_frame_end_v3_init_3_0@@YAXPEBU___itt_domain@@PEAU___itt_id@@@Z 0000000180023130     itt_notify.obj
 0002:00008138       $unwind$?__itt_frame_submit_v3_init_3_0@@YAXPEBU___itt_domain@@PEAU___itt_id@@_K2@Z 0000000180023138     itt_notify.obj
 0002:00008140       $unwind$?__itt_task_group_init_3_0@@YAXPEBU___itt_domain@@U___itt_id@@1PEAU___itt_string_handle@@@Z 0000000180023140     itt_notify.obj
 0002:0000814c       $unwind$?__itt_task_begin_init_3_0@@YAXPEBU___itt_domain@@U___itt_id@@1PEAU___itt_string_handle@@@Z 000000018002314c     itt_notify.obj
 0002:00008158       $unwind$?__itt_task_begin_fn_init_3_0@@YAXPEBU___itt_domain@@U___itt_id@@1PEAX@Z 0000000180023158     itt_notify.obj
 0002:00008164       $unwind$?__itt_task_end_init_3_0@@YAXPEBU___itt_domain@@@Z 0000000180023164     itt_notify.obj
 0002:0000816c       $unwind$?__itt_counter_inc_v3_init_3_0@@YAXPEBU___itt_domain@@PEAU___itt_string_handle@@@Z 000000018002316c     itt_notify.obj
 0002:00008174       $unwind$?__itt_counter_inc_delta_v3_init_3_0@@YAXPEBU___itt_domain@@PEAU___itt_string_handle@@_K@Z 0000000180023174     itt_notify.obj
 0002:0000817c       $unwind$?__itt_marker_init_3_0@@YAXPEBU___itt_domain@@U___itt_id@@PEAU___itt_string_handle@@W4__itt_scope@@@Z 000000018002317c     itt_notify.obj
 0002:00008188       $unwind$?__itt_metadata_add_init_3_0@@YAXPEBU___itt_domain@@U___itt_id@@PEAU___itt_string_handle@@W4__itt_metadata_type@@_KPEAX@Z 0000000180023188     itt_notify.obj
 0002:00008194       $unwind$?__itt_metadata_str_addA_init_3_0@@YAXPEBU___itt_domain@@U___itt_id@@PEAU___itt_string_handle@@PEBD_K@Z 0000000180023194     itt_notify.obj
 0002:000081a0       $unwind$?__itt_metadata_str_addW_init_3_0@@YAXPEBU___itt_domain@@U___itt_id@@PEAU___itt_string_handle@@PEB_W_K@Z 00000001800231a0     itt_notify.obj
 0002:000081ac       $unwind$?__itt_relation_add_to_current_init_3_0@@YAXPEBU___itt_domain@@W4__itt_relation@@U___itt_id@@@Z 00000001800231ac     itt_notify.obj
 0002:000081b8       $unwind$?__itt_relation_add_init_3_0@@YAXPEBU___itt_domain@@U___itt_id@@W4__itt_relation@@1@Z 00000001800231b8     itt_notify.obj
 0002:000081c4       $unwind$?__itt_event_createA_init_3_0@@YAHPEBDH@Z 00000001800231c4     itt_notify.obj
 0002:000081cc       $unwind$?__itt_event_createW_init_3_0@@YAHPEB_WH@Z 00000001800231cc     itt_notify.obj
 0002:000081d4       $unwind$?__itt_event_start_init_3_0@@YAHH@Z 00000001800231d4     itt_notify.obj
 0002:000081dc       $unwind$?__itt_event_end_init_3_0@@YAHH@Z 00000001800231dc     itt_notify.obj
 0002:000081e4       $unwind$?__itt_sync_set_nameA_init_3_0@@YAXPEAXPEBD1H@Z 00000001800231e4     itt_notify.obj
 0002:000081ec       $unwind$?__itt_sync_set_nameW_init_3_0@@YAXPEAXPEB_W1H@Z 00000001800231ec     itt_notify.obj
 0002:000081f4       $unwind$?__itt_notify_sync_nameA_init_3_0@@YAHPEAXPEBDH1HH@Z 00000001800231f4     itt_notify.obj
 0002:000081fc       $unwind$?__itt_notify_sync_nameW_init_3_0@@YAHPEAXPEB_WH1HH@Z 00000001800231fc     itt_notify.obj
 0002:00008204       $unwind$?__itt_notify_sync_prepare_init_3_0@@YAXPEAX@Z 0000000180023204     itt_notify.obj
 0002:0000820c       $unwind$?__itt_notify_sync_cancel_init_3_0@@YAXPEAX@Z 000000018002320c     itt_notify.obj
 0002:00008214       $unwind$?__itt_notify_sync_acquired_init_3_0@@YAXPEAX@Z 0000000180023214     itt_notify.obj
 0002:0000821c       $unwind$?__itt_notify_sync_releasing_init_3_0@@YAXPEAX@Z 000000018002321c     itt_notify.obj
 0002:00008224       $unwind$?__itt_memory_read_init_3_0@@YAXPEAX_K@Z 0000000180023224     itt_notify.obj
 0002:0000822c       $unwind$?__itt_memory_write_init_3_0@@YAXPEAX_K@Z 000000018002322c     itt_notify.obj
 0002:00008234       $unwind$?__itt_memory_update_init_3_0@@YAXPEAX_K@Z 0000000180023234     itt_notify.obj
 0002:0000823c       $unwind$?__itt_state_get_init_3_0@@YAHXZ 000000018002323c     itt_notify.obj
 0002:00008244       $unwind$?__itt_state_set_init_3_0@@YAHH@Z 0000000180023244     itt_notify.obj
 0002:0000824c       $unwind$?__itt_obj_mode_set_init_3_0@@YA?AW4__itt_obj_state@@W4__itt_obj_prop@@W41@@Z 000000018002324c     itt_notify.obj
 0002:00008254       $unwind$?__itt_thr_mode_set_init_3_0@@YA?AW4__itt_thr_state@@W4__itt_thr_prop@@W41@@Z 0000000180023254     itt_notify.obj
 0002:0000825c       $unwind$?__itt_frame_createA_init_3_0@@YAPEAU__itt_frame_t@@PEBD@Z 000000018002325c     itt_notify.obj
 0002:00008264       $unwind$?__itt_frame_createW_init_3_0@@YAPEAU__itt_frame_t@@PEB_W@Z 0000000180023264     itt_notify.obj
 0002:0000826c       $unwind$?__itt_frame_begin_init_3_0@@YAXPEAU__itt_frame_t@@@Z 000000018002326c     itt_notify.obj
 0002:00008274       $unwind$?__itt_frame_end_init_3_0@@YAXPEAU__itt_frame_t@@@Z 0000000180023274     itt_notify.obj
 0002:0000827c       $unwind$?__itt_counter_createA_init_3_0@@YAPEAU___itt_counter@@PEBD0@Z 000000018002327c     itt_notify.obj
 0002:00008284       $unwind$?__itt_counter_createW_init_3_0@@YAPEAU___itt_counter@@PEB_W0@Z 0000000180023284     itt_notify.obj
 0002:0000828c       $unwind$?__itt_counter_destroy_init_3_0@@YAXPEAU___itt_counter@@@Z 000000018002328c     itt_notify.obj
 0002:00008294       $unwind$?__itt_counter_inc_init_3_0@@YAXPEAU___itt_counter@@@Z 0000000180023294     itt_notify.obj
 0002:0000829c       $unwind$?__itt_counter_inc_delta_init_3_0@@YAXPEAU___itt_counter@@_K@Z 000000018002329c     itt_notify.obj
 0002:000082a4       $unwind$?__itt_mark_createA_init_3_0@@YAHPEBD@Z 00000001800232a4     itt_notify.obj
 0002:000082ac       $unwind$?__itt_mark_createW_init_3_0@@YAHPEB_W@Z 00000001800232ac     itt_notify.obj
 0002:000082b4       $unwind$?__itt_markA_init_3_0@@YAHHPEBD@Z 00000001800232b4     itt_notify.obj
 0002:000082bc       $unwind$?__itt_markW_init_3_0@@YAHHPEB_W@Z 00000001800232bc     itt_notify.obj
 0002:000082c4       $unwind$?__itt_mark_off_init_3_0@@YAHH@Z 00000001800232c4     itt_notify.obj
 0002:000082cc       $unwind$?__itt_mark_globalA_init_3_0@@YAHHPEBD@Z 00000001800232cc     itt_notify.obj
 0002:000082d4       $unwind$?__itt_mark_globalW_init_3_0@@YAHHPEB_W@Z 00000001800232d4     itt_notify.obj
 0002:000082dc       $unwind$?__itt_mark_global_off_init_3_0@@YAHH@Z 00000001800232dc     itt_notify.obj
 0002:000082e4       $unwind$?__itt_stack_caller_create_init_3_0@@YAPEAU___itt_caller@@XZ 00000001800232e4     itt_notify.obj
 0002:000082ec       $unwind$?__itt_stack_caller_destroy_init_3_0@@YAXPEAU___itt_caller@@@Z 00000001800232ec     itt_notify.obj
 0002:000082f4       $unwind$?__itt_stack_callee_enter_init_3_0@@YAXPEAU___itt_caller@@@Z 00000001800232f4     itt_notify.obj
 0002:000082fc       $unwind$?__itt_stack_callee_leave_init_3_0@@YAXPEAU___itt_caller@@@Z 00000001800232fc     itt_notify.obj
 0002:00008304       $unwind$?__itt_clock_domain_create_init_3_0@@YAPEAU___itt_clock_domain@@P6AXPEAU___itt_clock_info@@PEAX@Z1@Z 0000000180023304     itt_notify.obj
 0002:0000830c       $unwind$?__itt_clock_domain_reset_init_3_0@@YAXXZ 000000018002330c     itt_notify.obj
 0002:00008314       $unwind$?__itt_id_create_ex_init_3_0@@YAXPEBU___itt_domain@@PEAU___itt_clock_domain@@_KU___itt_id@@@Z 0000000180023314     itt_notify.obj
 0002:00008320       $unwind$?__itt_id_destroy_ex_init_3_0@@YAXPEBU___itt_domain@@PEAU___itt_clock_domain@@_KU___itt_id@@@Z 0000000180023320     itt_notify.obj
 0002:0000832c       $unwind$?__itt_task_begin_ex_init_3_0@@YAXPEBU___itt_domain@@PEAU___itt_clock_domain@@_KU___itt_id@@3PEAU___itt_string_handle@@@Z 000000018002332c     itt_notify.obj
 0002:00008338       $unwind$?__itt_task_begin_fn_ex_init_3_0@@YAXPEBU___itt_domain@@PEAU___itt_clock_domain@@_KU___itt_id@@3PEAX@Z 0000000180023338     itt_notify.obj
 0002:00008344       $unwind$?__itt_task_end_ex_init_3_0@@YAXPEBU___itt_domain@@PEAU___itt_clock_domain@@_K@Z 0000000180023344     itt_notify.obj
 0002:0000834c       $unwind$?__itt_task_begin_overlapped_init_3_0@@YAXPEBU___itt_domain@@U___itt_id@@1PEAU___itt_string_handle@@@Z 000000018002334c     itt_notify.obj
 0002:00008358       $unwind$?__itt_task_begin_overlapped_ex_init_3_0@@YAXPEBU___itt_domain@@PEAU___itt_clock_domain@@_KU___itt_id@@3PEAU___itt_string_handle@@@Z 0000000180023358     itt_notify.obj
 0002:00008364       $unwind$?__itt_task_end_overlapped_init_3_0@@YAXPEBU___itt_domain@@U___itt_id@@@Z 0000000180023364     itt_notify.obj
 0002:00008370       $unwind$?__itt_task_end_overlapped_ex_init_3_0@@YAXPEBU___itt_domain@@PEAU___itt_clock_domain@@_KU___itt_id@@@Z 0000000180023370     itt_notify.obj
 0002:0000837c       $unwind$?__itt_marker_ex_init_3_0@@YAXPEBU___itt_domain@@PEAU___itt_clock_domain@@_KU___itt_id@@PEAU___itt_string_handle@@W4__itt_scope@@@Z 000000018002337c     itt_notify.obj
 0002:00008388       $unwind$?__itt_metadata_add_with_scope_init_3_0@@YAXPEBU___itt_domain@@W4__itt_scope@@PEAU___itt_string_handle@@W4__itt_metadata_type@@_KPEAX@Z 0000000180023388     itt_notify.obj
 0002:00008390       $unwind$?__itt_metadata_str_add_with_scopeA_init_3_0@@YAXPEBU___itt_domain@@W4__itt_scope@@PEAU___itt_string_handle@@PEBD_K@Z 0000000180023390     itt_notify.obj
 0002:00008398       $unwind$?__itt_metadata_str_add_with_scopeW_init_3_0@@YAXPEBU___itt_domain@@W4__itt_scope@@PEAU___itt_string_handle@@PEB_W_K@Z 0000000180023398     itt_notify.obj
 0002:000083a0       $unwind$?__itt_relation_add_to_current_ex_init_3_0@@YAXPEBU___itt_domain@@PEAU___itt_clock_domain@@_KW4__itt_relation@@U___itt_id@@@Z 00000001800233a0     itt_notify.obj
 0002:000083ac       $unwind$?__itt_relation_add_ex_init_3_0@@YAXPEBU___itt_domain@@PEAU___itt_clock_domain@@_KU___itt_id@@W4__itt_relation@@3@Z 00000001800233ac     itt_notify.obj
 0002:000083b8       $unwind$?__itt_track_group_create_init_3_0@@YAPEAU___itt_track_group@@PEAU___itt_string_handle@@W4___itt_track_group_type@@@Z 00000001800233b8     itt_notify.obj
 0002:000083c0       $unwind$?__itt_track_create_init_3_0@@YAPEAU___itt_track@@PEAU___itt_track_group@@PEAU___itt_string_handle@@W4___itt_track_type@@@Z 00000001800233c0     itt_notify.obj
 0002:000083c8       $unwind$?__itt_set_track_init_3_0@@YAXPEAU___itt_track@@@Z 00000001800233c8     itt_notify.obj
 0002:000083d0       $unwind$?__itt_api_version_init_3_0@@YAPEBDXZ 00000001800233d0     itt_notify.obj
 0002:000083d8       $unwind$?__itt_av_saveA_init_3_0@@YAHPEAXHPEBHHPEBDH@Z 00000001800233d8     itt_notify.obj
 0002:000083e0       $unwind$?__itt_av_saveW_init_3_0@@YAHPEAXHPEBHHPEB_WH@Z 00000001800233e0     itt_notify.obj
 0002:000083e8       $unwind$?__itt_domain_createA_init_3_0@@YAPEAU___itt_domain@@PEBD@Z 00000001800233e8     itt_notify.obj
 0002:000083f0       $unwind$?__itt_domain_createW_init_3_0@@YAPEAU___itt_domain@@PEB_W@Z 00000001800233f0     itt_notify.obj
 0002:000083f8       $unwind$?__itt_string_handle_createA_init_3_0@@YAPEAU___itt_string_handle@@PEBD@Z 00000001800233f8     itt_notify.obj
 0002:00008400       $unwind$?__itt_string_handle_createW_init_3_0@@YAPEAU___itt_string_handle@@PEB_W@Z 0000000180023400     itt_notify.obj
 0002:00008408       $unwind$?__itt_pause_init_3_0@@YAXXZ 0000000180023408     itt_notify.obj
 0002:00008410       $unwind$?__itt_resume_init_3_0@@YAXXZ 0000000180023410     itt_notify.obj
 0002:00008418       $unwind$?__itt_thread_set_nameA_init_3_0@@YAXPEBD@Z 0000000180023418     itt_notify.obj
 0002:00008420       $unwind$?__itt_thread_set_nameW_init_3_0@@YAXPEB_W@Z 0000000180023420     itt_notify.obj
 0002:00008428       $unwind$?__itt_thread_ignore_init_3_0@@YAXXZ 0000000180023428     itt_notify.obj
 0002:00008430       $unwind$?__itt_thr_name_setA_init_3_0@@YAHPEBDH@Z 0000000180023430     itt_notify.obj
 0002:00008438       $unwind$?__itt_thr_name_setW_init_3_0@@YAHPEB_WH@Z 0000000180023438     itt_notify.obj
 0002:00008440       $unwind$?__itt_thr_ignore_init_3_0@@YAXXZ 0000000180023440     itt_notify.obj
 0002:00008448       $unwind$?__itt_report_error_impl@@YAXHZZ 0000000180023448     itt_notify.obj
 0002:00008450       $unwind$?__itt_fsplit@@YAPEBDPEBD0PEAPEBDPEAH@Z 0000000180023450     itt_notify.obj
 0002:00008458       $unwind$?__itt_get_env_var@@YAPEBDPEBD@Z 0000000180023458     itt_notify.obj
 0002:00008460       $unwind$?__itt_get_lib_name@@YAPEBDXZ 0000000180023460     itt_notify.obj
 0002:00008468       $unwind$?__itt_get_groups@@YA?AW4___itt_group_id@@XZ 0000000180023468     itt_notify.obj
 0002:00008478       $unwind$?__itt_lib_version@@YAHPEAUHINSTANCE__@@@Z 0000000180023478     itt_notify.obj
 0002:00008480       $unwind$?__itt_nullify_all_pointers@@YAXXZ 0000000180023480     itt_notify.obj
 0002:00008488       $unwind$__itt_init_ittlib  0000000180023488     itt_notify.obj
 0002:00008490       $unwind$?__TBB_load_ittnotify@internal@tbb@@YAHXZ 0000000180023490     itt_notify.obj
 0002:00008498       $unwind$??_H@YAXPEAX_K1P6APEAX0@Z@Z 0000000180023498     frontend.obj
 0002:000084a0       $unwind$?__TBB_machine_cmpswp1@@YADPECXDD@Z 00000001800234a0     frontend.obj
 0002:000084a8       $unwind$?__TBB_machine_cmpswp8@@YA_JPECX_J1@Z 00000001800234a8     frontend.obj
 0002:000084b0       $unwind$?isPowerOfTwo@@YA_N_K@Z 00000001800234b0     frontend.obj
 0002:000084b8       $unwind$?isPowerOfTwoAtLeast@@YA_N_K0@Z 00000001800234b8     frontend.obj
 0002:000084c0       $unwind$scalable_malloc    00000001800234c0     frontend.obj
 0002:000084c8       $unwind$scalable_calloc    00000001800234c8     frontend.obj
 0002:000084d0       $unwind$scalable_free      00000001800234d0     frontend.obj
 0002:000084d8       $unwind$scalable_realloc   00000001800234d8     frontend.obj
 0002:000084e0       $unwind$scalable_aligned_malloc 00000001800234e0     frontend.obj
 0002:000084e8       $unwind$scalable_aligned_realloc 00000001800234e8     frontend.obj
 0002:000084f0       $unwind$scalable_posix_memalign 00000001800234f0     frontend.obj
 0002:000084f8       $unwind$scalable_msize     00000001800234f8     frontend.obj
 0002:00008500       $unwind$__TBB_malloc_safer_free 0000000180023500     frontend.obj
 0002:00008508       $unwind$__TBB_malloc_safer_realloc 0000000180023508     frontend.obj
 0002:00008510       $unwind$__TBB_malloc_safer_aligned_realloc 0000000180023510     frontend.obj
 0002:00008518       $unwind$__TBB_malloc_safer_msize 0000000180023518     frontend.obj
 0002:00008520       $unwind$__TBB_malloc_safer_aligned_msize 0000000180023520     frontend.obj
 0002:00008528       $unwind$scalable_aligned_free 0000000180023528     frontend.obj
 0002:00008530       $unwind$scalable_allocation_mode 0000000180023530     frontend.obj
 0002:00008538       $unwind$scalable_allocation_command 0000000180023538     frontend.obj
 0002:00008540       $unwind$?pool_create_v1@rml@@YA?AW4MemPoolError@1@_JPEBUMemPoolPolicy@1@PEAPEAVMemoryPool@1@@Z 0000000180023540     frontend.obj
 0002:00008548       $unwind$?pool_destroy@rml@@YA_NPEAVMemoryPool@1@@Z 0000000180023548     frontend.obj
 0002:00008550       $unwind$?pool_malloc@rml@@YAPEAXPEAVMemoryPool@1@_K@Z 0000000180023550     frontend.obj
 0002:00008558       $unwind$?pool_realloc@rml@@YAPEAXPEAVMemoryPool@1@PEAX_K@Z 0000000180023558     frontend.obj
 0002:00008560       $unwind$?pool_aligned_malloc@rml@@YAPEAXPEAVMemoryPool@1@_K1@Z 0000000180023560     frontend.obj
 0002:00008568       $unwind$?pool_aligned_realloc@rml@@YAPEAXPEAVMemoryPool@1@PEAX_K2@Z 0000000180023568     frontend.obj
 0002:00008570       $unwind$?pool_reset@rml@@YA_NPEAVMemoryPool@1@@Z 0000000180023570     frontend.obj
 0002:00008578       $unwind$?pool_free@rml@@YA_NPEAVMemoryPool@1@PEAX@Z 0000000180023578     frontend.obj
 0002:00008580       $unwind$?pool_identify@rml@@YAPEAVMemoryPool@1@PEAX@Z 0000000180023580     frontend.obj
 0002:00008588       $unwind$?pool_msize@rml@@YA_KPEAVMemoryPool@1@PEAX@Z 0000000180023588     frontend.obj
 0002:00008590       $unwind$__TBB_mallocProcessShutdownNotification 0000000180023590     frontend.obj
 0002:00008598       $unwind$__TBB_mallocThreadShutdownNotification 0000000180023598     frontend.obj
 0002:000085a0       $unwind$?init@TLSKey@internal@rml@@QEAA_NXZ 00000001800235a0     frontend.obj
 0002:000085a8       $unwind$?destroy@TLSKey@internal@rml@@QEAA_NXZ 00000001800235a8     frontend.obj
 0002:000085b0       $unwind$?createTLS@TLSKey@internal@rml@@QEAAPEAVTLSData@23@PEAVMemoryPool@23@PEAVBackend@23@@Z 00000001800235b0     frontend.obj
 0002:000085b8       $unwind$?registerThread@AllLocalCaches@internal@rml@@QEAAXPEAUTLSRemote@23@@Z 00000001800235b8     frontend.obj
 0002:000085c8       $stateUnwindMap$?registerThread@AllLocalCaches@internal@rml@@QEAAXPEAUTLSRemote@23@@Z 00000001800235c8     frontend.obj
 0002:000085d0       $ip2state$?registerThread@AllLocalCaches@internal@rml@@QEAAXPEAUTLSRemote@23@@Z 00000001800235d0     frontend.obj
 0002:000085e8       $unwind$?dtor$0@?0??registerThread@AllLocalCaches@internal@rml@@QEAAXPEAUTLSRemote@23@@Z@4HA 00000001800235e8     frontend.obj
 0002:000085f0       $unwind$?unregisterThread@AllLocalCaches@internal@rml@@QEAAXPEAUTLSRemote@23@@Z 00000001800235f0     frontend.obj
 0002:00008600       $stateUnwindMap$?unregisterThread@AllLocalCaches@internal@rml@@QEAAXPEAUTLSRemote@23@@Z 0000000180023600     frontend.obj
 0002:00008608       $ip2state$?unregisterThread@AllLocalCaches@internal@rml@@QEAAXPEAUTLSRemote@23@@Z 0000000180023608     frontend.obj
 0002:00008620       $unwind$?dtor$0@?0??unregisterThread@AllLocalCaches@internal@rml@@QEAAXPEAUTLSRemote@23@@Z@4HA 0000000180023620     frontend.obj
 0002:00008628       $unwind$?cleanup@AllLocalCaches@internal@rml@@QEAA_NPEAUExtMemoryPool@23@_N@Z 0000000180023628     frontend.obj
 0002:00008638       $stateUnwindMap$?cleanup@AllLocalCaches@internal@rml@@QEAA_NPEAUExtMemoryPool@23@_N@Z 0000000180023638     frontend.obj
 0002:00008640       $ip2state$?cleanup@AllLocalCaches@internal@rml@@QEAA_NPEAUExtMemoryPool@23@_N@Z 0000000180023640     frontend.obj
 0002:00008658       $unwind$?dtor$0@?0??cleanup@AllLocalCaches@internal@rml@@QEAA_NPEAUExtMemoryPool@23@_N@Z@4HA 0000000180023658     frontend.obj
 0002:00008660       $unwind$?markUnused@AllLocalCaches@internal@rml@@QEAAXXZ 0000000180023660     frontend.obj
 0002:00008670       $stateUnwindMap$?markUnused@AllLocalCaches@internal@rml@@QEAAXXZ 0000000180023670     frontend.obj
 0002:00008678       $ip2state$?markUnused@AllLocalCaches@internal@rml@@QEAAXXZ 0000000180023678     frontend.obj
 0002:000086a0       $unwind$?dtor$0@?0??markUnused@AllLocalCaches@internal@rml@@QEAAXXZ@4HA 00000001800236a0     frontend.obj
 0002:000086a8       $unwind$?get@OrphanedBlocks@internal@rml@@QEAAPEAVBlock@23@PEAVTLSData@23@I@Z 00000001800236a8     frontend.obj
 0002:000086b0       $unwind$?put@OrphanedBlocks@internal@rml@@QEAAX_JPEAVBlock@23@@Z 00000001800236b0     frontend.obj
 0002:000086b8       $unwind$?reset@OrphanedBlocks@internal@rml@@QEAAXXZ 00000001800236b8     frontend.obj
 0002:000086c0       $unwind$?cleanup@OrphanedBlocks@internal@rml@@QEAA_NPEAVBackend@23@@Z 00000001800236c0     frontend.obj
 0002:000086c8       $unwind$??$isAligned@VBlockI@internal@rml@@@@YA_NPEAVBlockI@internal@rml@@_K@Z 00000001800236c8     frontend.obj
 0002:000086d0       $unwind$?initReadEnv@AllocControlledMode@internal@rml@@QEAAXPEBD_J@Z 00000001800236d0     frontend.obj
 0002:000086d8       $unwind$?init@ExtMemoryPool@internal@rml@@QEAA_N_JP6APEAX0AEA_K@ZP6AH0PEAX_K@Z4_N6@Z 00000001800236d8     frontend.obj
 0002:000086e0       $unwind$?initTLS@ExtMemoryPool@internal@rml@@QEAA_NXZ 00000001800236e0     frontend.obj
 0002:000086e8       $unwind$?releaseAllLocalCaches@ExtMemoryPool@internal@rml@@QEAA_NXZ 00000001800236e8     frontend.obj
 0002:000086f0       $unwind$?isMallocInitializedExt@internal@rml@@YA_NXZ 00000001800236f0     frontend.obj
 0002:000086f8       $unwind$?GetBoolEnvironmentVariable@internal@tbb@@YA_NPEBD@Z 00000001800236f8     frontend.obj
 0002:00008700       $unwind$?allocate@BootStrapBlocks@internal@rml@@QEAAPEAXPEAVMemoryPool@23@_K@Z 0000000180023700     frontend.obj
 0002:00008710       $stateUnwindMap$?allocate@BootStrapBlocks@internal@rml@@QEAAPEAXPEAVMemoryPool@23@_K@Z 0000000180023710     frontend.obj
 0002:00008718       $ip2state$?allocate@BootStrapBlocks@internal@rml@@QEAAPEAXPEAVMemoryPool@23@_K@Z 0000000180023718     frontend.obj
 0002:00008740       $unwind$?dtor$0@?0??allocate@BootStrapBlocks@internal@rml@@QEAAPEAXPEAVMemoryPool@23@_K@Z@4HA 0000000180023740     frontend.obj
 0002:00008748       $unwind$?free@BootStrapBlocks@internal@rml@@QEAAXPEAX@Z 0000000180023748     frontend.obj
 0002:00008750       $unwind$?initDefaultPool@MemoryPool@internal@rml@@SAXXZ 0000000180023750     frontend.obj
 0002:00008758       $unwind$?init@MemoryPool@internal@rml@@QEAA_N_JPEBUMemPoolPolicy@3@@Z 0000000180023758     frontend.obj
 0002:00008760       $unwind$?reset@MemoryPool@internal@rml@@QEAA_NXZ 0000000180023760     frontend.obj
 0002:00008768       $unwind$?destroy@MemoryPool@internal@rml@@QEAA_NXZ 0000000180023768     frontend.obj
 0002:00008770       $unwind$?onThreadShutdown@MemoryPool@internal@rml@@QEAAXPEAVTLSData@23@@Z 0000000180023770     frontend.obj
 0002:00008778       $unwind$?getEmptyBlock@MemoryPool@internal@rml@@QEAAPEAVBlock@23@_K@Z 0000000180023778     frontend.obj
 0002:00008784       $unwind$?returnEmptyBlock@MemoryPool@internal@rml@@QEAAXPEAVBlock@23@_N@Z 0000000180023784     frontend.obj
 0002:0000878c       $unwind$?getFromLLOCache@MemoryPool@internal@rml@@QEAAPEAXPEAVTLSData@23@_K1@Z 000000018002378c     frontend.obj
 0002:00008794       $unwind$?putToLLOCache@MemoryPool@internal@rml@@QEAAXPEAVTLSData@23@PEAX@Z 0000000180023794     frontend.obj
 0002:0000879c       $unwind$?freePublicObject@Block@internal@rml@@QEAAXPEAUFreeObject@23@@Z 000000018002379c     frontend.obj
 0002:000087a4       $unwind$?reset@Block@internal@rml@@QEAAXXZ 00000001800237a4     frontend.obj
 0002:000087ac       $unwind$?privatizePublicFreeList@Block@internal@rml@@QEAAX_N@Z 00000001800237ac     frontend.obj
 0002:000087b4       $unwind$?restoreBumpPtr@Block@internal@rml@@QEAAXXZ 00000001800237b4     frontend.obj
 0002:000087bc       $unwind$?privatizeOrphaned@Block@internal@rml@@QEAAXPEAVTLSData@23@I@Z 00000001800237bc     frontend.obj
 0002:000087c4       $unwind$?shareOrphaned@Block@internal@rml@@QEAAX_JI@Z 00000001800237c4     frontend.obj
 0002:000087cc       $unwind$?initEmptyBlock@Block@internal@rml@@QEAAXPEAVTLSData@23@_K@Z 00000001800237cc     frontend.obj
 0002:000087d4       $unwind$?findObjectSize@Block@internal@rml@@QEBA_KPEAX@Z 00000001800237d4     frontend.obj
 0002:000087dc       $unwind$??$isAligned@$$CBX@@YA_NPEBX_K@Z 00000001800237dc     frontend.obj
 0002:000087e4       $unwind$?getPublicFreeListBlock@Bin@internal@rml@@QEAAPEAVBlock@23@XZ 00000001800237e4     frontend.obj
 0002:000087f4       $stateUnwindMap$?getPublicFreeListBlock@Bin@internal@rml@@QEAAPEAVBlock@23@XZ 00000001800237f4     frontend.obj
 0002:000087fc       $ip2state$?getPublicFreeListBlock@Bin@internal@rml@@QEAAPEAVBlock@23@XZ 00000001800237fc     frontend.obj
 0002:00008814       $unwind$?dtor$0@?0??getPublicFreeListBlock@Bin@internal@rml@@QEAAPEAVBlock@23@XZ@4HA 0000000180023814     frontend.obj
 0002:0000881c       $unwind$?moveBlockToFront@Bin@internal@rml@@QEAAXPEAVBlock@23@@Z 000000018002381c     frontend.obj
 0002:00008824       $unwind$?processLessUsedBlock@Bin@internal@rml@@QEAAXPEAVMemoryPool@23@PEAVBlock@23@@Z 0000000180023824     frontend.obj
 0002:0000882c       $unwind$?outofTLSBin@Bin@internal@rml@@QEAAXPEAVBlock@23@@Z 000000018002382c     frontend.obj
 0002:00008834       $unwind$?verifyTLSBin@Bin@internal@rml@@QEBAX_K@Z 0000000180023834     frontend.obj
 0002:0000883c       $unwind$?pushTLSBin@Bin@internal@rml@@QEAAXPEAVBlock@23@@Z 000000018002383c     frontend.obj
 0002:00008844       $unwind$?getBlock@FreeBlockPool@internal@rml@@QEAA?AVResOfGet@123@XZ 0000000180023844     frontend.obj
 0002:0000884c       $unwind$?returnBlock@FreeBlockPool@internal@rml@@QEAAXPEAVBlock@23@@Z 000000018002384c     frontend.obj
 0002:00008854       $unwind$?externalCleanup@FreeBlockPool@internal@rml@@QEAA_NXZ 0000000180023854     frontend.obj
 0002:0000885c       $unwind$?release@TLSData@internal@rml@@QEAAXPEAVMemoryPool@23@@Z 000000018002385c     frontend.obj
 0002:00008864       $unwind$?cleanUnusedActiveBlocks@TLSData@internal@rml@@QEAA_NPEAVBackend@23@_N@Z 0000000180023864     frontend.obj
 0002:0000886c       $unwind$?internalMalloc@internal@rml@@YAPEAX_K@Z 000000018002386c     frontend.obj
 0002:00008874       $unwind$?internalFree@internal@rml@@YAXPEAX@Z 0000000180023874     frontend.obj
 0002:0000887c       $unwind$?internalPoolMalloc@internal@rml@@YAPEAXPEAVMemoryPool@12@_K@Z 000000018002387c     frontend.obj
 0002:00008884       $unwind$?internalPoolFree@internal@rml@@YA_NPEAVMemoryPool@12@PEAX_K@Z 0000000180023884     frontend.obj
 0002:0000888c       $unwind$?highestBitPos@internal@rml@@YAII@Z 000000018002388c     frontend.obj
 0002:00008894       $unwind$??$getSmallObjectIndex@$0A@@internal@rml@@YAII@Z 0000000180023894     frontend.obj
 0002:0000889c       $unwind$?getIndex@internal@rml@@YAII@Z 000000018002389c     frontend.obj
 0002:000088a4       $unwind$??$getIndexOrObjectSize@$00@internal@rml@@YAII@Z 00000001800238a4     frontend.obj
 0002:000088ac       $unwind$?getObjectSize@internal@rml@@YAII@Z 00000001800238ac     frontend.obj
 0002:000088b4       $unwind$??$getIndexOrObjectSize@$0A@@internal@rml@@YAII@Z 00000001800238b4     frontend.obj
 0002:000088bc       $unwind$??$isAligned@UFreeObject@internal@rml@@@@YA_NPEAUFreeObject@internal@rml@@_K@Z 00000001800238bc     frontend.obj
 0002:000088c4       $unwind$MallocInitializeITT 00000001800238c4     frontend.obj
 0002:000088cc       $unwind$?initMemoryManager@internal@rml@@YA_NXZ 00000001800238cc     frontend.obj
 0002:000088d4       $unwind$??$isAligned@VMemoryPool@internal@rml@@@@YA_NPEAVMemoryPool@internal@rml@@_K@Z 00000001800238d4     frontend.obj
 0002:000088dc       $unwind$?GetBoolEnvironmentVariable@internal@rml@@YA_NPEBD@Z 00000001800238dc     frontend.obj
 0002:000088e4       $unwind$?doInitialization@internal@rml@@YA_NXZ 00000001800238e4     frontend.obj
 0002:000088f4       $stateUnwindMap$?doInitialization@internal@rml@@YA_NXZ 00000001800238f4     frontend.obj
 0002:00008904       $ip2state$?doInitialization@internal@rml@@YA_NXZ 0000000180023904     frontend.obj
 0002:00008944       $unwind$?dtor$0@?0??doInitialization@internal@rml@@YA_NXZ@4HA 0000000180023944     frontend.obj
 0002:0000894c       $unwind$?dtor$1@?0??doInitialization@internal@rml@@YA_NXZ@4HA 000000018002394c     frontend.obj
 0002:00008954       $unwind$??$isAligned@X@@YA_NPEAX_K@Z 0000000180023954     frontend.obj
 0002:0000895c       $unwind$?allocateAligned@internal@rml@@YAPEAXPEAVMemoryPool@12@_K1@Z 000000018002395c     frontend.obj
 0002:00008964       $unwind$?reallocAligned@internal@rml@@YAPEAXPEAVMemoryPool@12@PEAX_K2@Z 0000000180023964     frontend.obj
 0002:0000896c       $unwind$?safer_dereference@internal@rml@@YA?AVBackRefIdx@12@PEBV312@@Z 000000018002396c     frontend.obj
 0002:0000898c       $unwind$?filt$0@?0??safer_dereference@internal@rml@@YA?AVBackRefIdx@12@PEBV312@@Z@4HA 000000018002398c     frontend.obj
 0002:00008994       $unwind$?isSmallObject@internal@rml@@YA_NPEAX@Z 0000000180023994     frontend.obj
 0002:0000899c       $unwind$?isRecognized@internal@rml@@YA_NPEAX@Z 000000018002399c     frontend.obj
 0002:000089a4       $unwind$?freeSmallObject@internal@rml@@YAXPEAX@Z 00000001800239a4     frontend.obj
 0002:000089ac       $unwind$?internalMsize@internal@rml@@YA_KPEAX@Z 00000001800239ac     frontend.obj
 0002:000089b4       $unwind$?pool_create@rml@@YAPEAVMemoryPool@1@_JPEBUMemPoolPolicy@1@@Z 00000001800239b4     frontend.obj
 0002:000089bc       $unwind$?doThreadShutdownNotification@@YAXPEAVTLSData@internal@rml@@_N@Z 00000001800239bc     frontend.obj
 0002:000089cc       $stateUnwindMap$?doThreadShutdownNotification@@YAXPEAVTLSData@internal@rml@@_N@Z 00000001800239cc     frontend.obj
 0002:000089d4       $ip2state$?doThreadShutdownNotification@@YAXPEAVTLSData@internal@rml@@_N@Z 00000001800239d4     frontend.obj
 0002:000089ec       $unwind$?dtor$0@?0??doThreadShutdownNotification@@YAXPEAVTLSData@internal@rml@@_N@Z@4HA 00000001800239ec     frontend.obj
 0002:000089f4       $unwind$?AtomicFetchStore@@YA_KPECX_K@Z 00000001800239f4     frontend.obj
 0002:000089fc       $unwind$??$is_power_of_two@_K@internal@tbb@@YA_N_K@Z 00000001800239fc     frontend.obj
 0002:00008a04       $unwind$??$is_power_of_two_at_least@_K_K@internal@tbb@@YA_N_K0@Z 0000000180023a04     frontend.obj
 0002:00008a0c       $unwind$?getThreadMallocTLS@TLSKey@internal@rml@@QEBAPEAVTLSData@23@XZ 0000000180023a0c     frontend.obj
 0002:00008a14       $unwind$?setThreadMallocTLS@TLSKey@internal@rml@@QEAAXPEAVTLSData@23@@Z 0000000180023a14     frontend.obj
 0002:00008a1c       $unwind$??0LifoList@internal@rml@@QEAA@XZ 0000000180023a1c     frontend.obj
 0002:00008a24       $unwind$?push@LifoList@internal@rml@@QEAAXPEAVBlock@23@@Z 0000000180023a24     frontend.obj
 0002:00008a2c       $unwind$?pop@LifoList@internal@rml@@QEAAPEAVBlock@23@XZ 0000000180023a2c     frontend.obj
 0002:00008a34       $unwind$?grab@LifoList@internal@rml@@QEAAPEAVBlock@23@XZ 0000000180023a34     frontend.obj
 0002:00008a3c       $unwind$?reset@?$BitMaskBasic@$0PC@@internal@rml@@QEAAXXZ 0000000180023a3c     frontend.obj
 0002:00008a44       $unwind$?init@CacheBin@?$LargeObjectCacheImpl@U?$LargeObjectCacheProps@$0IAAAAA@$0IBAAAAA@$0IAAAA@$00$00$03@internal@rml@@@internal@rml@@QEAAXXZ 0000000180023a44     frontend.obj
 0002:00008a4c       $unwind$?reset@?$LargeObjectCacheImpl@U?$LargeObjectCacheProps@$0IAAAAA@$0IBAAAAA@$0IAAAA@$00$00$03@internal@rml@@@internal@rml@@QEAAXXZ 0000000180023a4c     frontend.obj
 0002:00008a54       $unwind$?reset@?$BitMaskBasic@$0DPP@@internal@rml@@QEAAXXZ 0000000180023a54     frontend.obj
 0002:00008a5c       $unwind$?init@CacheBin@?$LargeObjectCacheImpl@U?$LargeObjectCacheProps@$0CAAA@$0IAAAAA@$0CAAA@$01$01$0BA@@internal@rml@@@internal@rml@@QEAAXXZ 0000000180023a5c     frontend.obj
 0002:00008a64       $unwind$?reset@?$LargeObjectCacheImpl@U?$LargeObjectCacheProps@$0CAAA@$0IAAAAA@$0CAAA@$01$01$0BA@@internal@rml@@@internal@rml@@QEAAXXZ 0000000180023a64     frontend.obj
 0002:00008a6c       $unwind$?reset@LargeObjectCache@internal@rml@@QEAAXXZ 0000000180023a6c     frontend.obj
 0002:00008a74       $unwind$?alignToBin@LargeObjectCache@internal@rml@@SA_K_K@Z 0000000180023a74     frontend.obj
 0002:00008a7c       $unwind$?inRange@UsedAddressRange@Backend@internal@rml@@QEBA_NPEAX@Z 0000000180023a7c     frontend.obj
 0002:00008a84       $unwind$?getSlabBlock@Backend@internal@rml@@QEAAPEAVBlockI@23@H@Z 0000000180023a84     frontend.obj
 0002:00008a8c       $unwind$?putSlabBlock@Backend@internal@rml@@QEAAXPEAVBlockI@23@@Z 0000000180023a8c     frontend.obj
 0002:00008a94       $unwind$?setRecommendedMaxSize@Backend@internal@rml@@QEAAX_K@Z 0000000180023a94     frontend.obj
 0002:00008a9c       $unwind$?ptrCanBeValid@Backend@internal@rml@@QEBA_NPEAX@Z 0000000180023a9c     frontend.obj
 0002:00008aa4       $unwind$?doPrintStatus@HugePagesStatus@internal@rml@@CAX_NPEBD@Z 0000000180023aa4     frontend.obj
 0002:00008aac       $unwind$?parseSystemMemInfo@HugePagesStatus@internal@rml@@AEAAXXZ 0000000180023aac     frontend.obj
 0002:00008ab4       $unwind$?init@HugePagesStatus@internal@rml@@QEAAXXZ 0000000180023ab4     frontend.obj
 0002:00008ac4       $stateUnwindMap$?init@HugePagesStatus@internal@rml@@QEAAXXZ 0000000180023ac4     frontend.obj
 0002:00008ad0       $ip2state$?init@HugePagesStatus@internal@rml@@QEAAXXZ 0000000180023ad0     frontend.obj
 0002:00008ae8       $unwind$?dtor$0@?0??init@HugePagesStatus@internal@rml@@QEAAXXZ@4HA 0000000180023ae8     frontend.obj
 0002:00008af0       $unwind$?printStatus@HugePagesStatus@internal@rml@@QEAAXXZ 0000000180023af0     frontend.obj
 0002:00008af8       $unwind$??0HugePagesStatus@internal@rml@@QEAA@XZ 0000000180023af8     frontend.obj
 0002:00008b00       $unwind$?reset@ExtMemoryPool@internal@rml@@QEAA_NXZ 0000000180023b00     frontend.obj
 0002:00008b08       $unwind$?destroy@ExtMemoryPool@internal@rml@@QEAA_NXZ 0000000180023b08     frontend.obj
 0002:00008b10       $unwind$?isPoolValid@ExtMemoryPool@internal@rml@@QEBA_NXZ 0000000180023b10     frontend.obj
 0002:00008b18       $unwind$?do_yield@@YAXXZ   0000000180023b18     frontend.obj
 0002:00008b20       $unwind$?isSolidPtr@internal@rml@@YA_NPEAX@Z 0000000180023b20     frontend.obj
 0002:00008b28       $unwind$?isNotForUse@internal@rml@@YA_NPEAX@Z 0000000180023b28     frontend.obj
 0002:00008b30       $unwind$??0ThreadId@internal@rml@@QEAA@XZ 0000000180023b30     frontend.obj
 0002:00008b38       $unwind$?isCurrentThreadId@ThreadId@internal@rml@@QEBA_NXZ 0000000180023b38     frontend.obj
 0002:00008b40       $unwind$?getTLS@MemoryPool@internal@rml@@QEAAPEAVTLSData@23@_N@Z 0000000180023b40     frontend.obj
 0002:00008b48       $unwind$?clearTLS@MemoryPool@internal@rml@@QEAAXXZ 0000000180023b48     frontend.obj
 0002:00008b50       $unwind$??__E?memPoolListLock@MemoryPool@internal@rml@@2VMallocMutex@@A@@YAXXZ 0000000180023b50     frontend.obj
 0002:00008b58       $unwind$??__EhugePages@internal@rml@@YAXXZ 0000000180023b58     frontend.obj
 0002:00008b60       $unwind$?empty@Block@internal@rml@@QEBA_NXZ 0000000180023b60     frontend.obj
 0002:00008b68       $unwind$?allocate@Block@internal@rml@@QEAAPEAUFreeObject@23@XZ 0000000180023b68     frontend.obj
 0002:00008b70       $unwind$?allocateFromFreeList@Block@internal@rml@@QEAAPEAUFreeObject@23@XZ 0000000180023b70     frontend.obj
 0002:00008b78       $unwind$?emptyEnoughToUse@Block@internal@rml@@QEAA_NXZ 0000000180023b78     frontend.obj
 0002:00008b80       $unwind$?freeListNonNull@Block@internal@rml@@QEAA_NXZ 0000000180023b80     frontend.obj
 0002:00008b88       $unwind$?freeOwnObject@Block@internal@rml@@QEAAXPEAX@Z 0000000180023b88     frontend.obj
 0002:00008b90       $unwind$?getSize@Block@internal@rml@@QEBAIXZ 0000000180023b90     frontend.obj
 0002:00008b98       $unwind$?isOwnedByCurrentThread@Block@internal@rml@@QEBA_NXZ 0000000180023b98     frontend.obj
 0002:00008ba0       $unwind$?isStartupAllocObject@Block@internal@rml@@QEBA_NXZ 0000000180023ba0     frontend.obj
 0002:00008ba8       $unwind$?findObjectToFree@Block@internal@rml@@QEBAPEAUFreeObject@23@PEBX@Z 0000000180023ba8     frontend.obj
 0002:00008bb0       $unwind$?checkFreePrecond@Block@internal@rml@@QEBAXPEBX@Z 0000000180023bb0     frontend.obj
 0002:00008bb8       $unwind$?allocateFromBumpPtr@Block@internal@rml@@AEAAPEAUFreeObject@23@XZ 0000000180023bb8     frontend.obj
 0002:00008bc0       $unwind$?findAllocatedObject@Block@internal@rml@@AEBAPEAUFreeObject@23@PEBX@Z 0000000180023bc0     frontend.obj
 0002:00008bc8       $unwind$?isProperlyPlaced@Block@internal@rml@@AEBA_NPEBX@Z 0000000180023bc8     frontend.obj
 0002:00008bd0       $unwind$?markOwned@Block@internal@rml@@AEAAXPEAVTLSData@23@@Z 0000000180023bd0     frontend.obj
 0002:00008bd8       $unwind$?markOrphaned@Block@internal@rml@@AEAAXXZ 0000000180023bd8     frontend.obj
 0002:00008be0       $unwind$?activeBlockUnused@Bin@internal@rml@@QEBA_NXZ 0000000180023be0     frontend.obj
 0002:00008be8       $unwind$?setActiveBlock@Bin@internal@rml@@QEAAXPEAVBlock@23@@Z 0000000180023be8     frontend.obj
 0002:00008bf0       $unwind$?setPreviousBlockActive@Bin@internal@rml@@QEAAPEAVBlock@23@XZ 0000000180023bf0     frontend.obj
 0002:00008bf8       $unwind$?verifyInitState@Bin@internal@rml@@QEBAXXZ 0000000180023bf8     frontend.obj
 0002:00008c00       $unwind$??0Bin@internal@rml@@QEAA@XZ 0000000180023c00     frontend.obj
 0002:00008c08       $unwind$?put@?$LocalLOCImpl@$07$0CA@@internal@rml@@QEAA_NPEAULargeMemoryBlock@23@PEAUExtMemoryPool@23@@Z 0000000180023c08     frontend.obj
 0002:00008c10       $unwind$?get@?$LocalLOCImpl@$07$0CA@@internal@rml@@QEAAPEAULargeMemoryBlock@23@_K@Z 0000000180023c10     frontend.obj
 0002:00008c18       $unwind$?externalCleanup@?$LocalLOCImpl@$07$0CA@@internal@rml@@QEAA_NPEAUExtMemoryPool@23@@Z 0000000180023c18     frontend.obj
 0002:00008c20       $unwind$??0TLSData@internal@rml@@QEAA@PEAVMemoryPool@12@PEAVBackend@12@@Z 0000000180023c20     frontend.obj
 0002:00008c28       $unwind$?getAllocationBin@TLSData@internal@rml@@QEAAPEAVBin@23@_K@Z 0000000180023c28     frontend.obj
 0002:00008c30       $unwind$?externalCleanup@TLSData@internal@rml@@QEAA_NPEAUExtMemoryPool@23@_N@Z 0000000180023c30     frontend.obj
 0002:00008c38       $unwind$??$releaseAll@$0A@@AllLargeBlocksList@internal@rml@@QEAAXPEAVBackend@12@@Z 0000000180023c38     frontend.obj
 0002:00008c40       $unwind$??$releaseAll@$00@AllLargeBlocksList@internal@rml@@QEAAXPEAVBackend@12@@Z 0000000180023c40     frontend.obj
 0002:00008c48       $unwind$??__EinitMutex@internal@rml@@YAXXZ 0000000180023c48     frontend.obj
 0002:00008c50       $unwind$?isMallocInitialized@internal@rml@@YA_NXZ 0000000180023c50     frontend.obj
 0002:00008c58       $unwind$??$isLargeObject@$00@internal@rml@@YA_NPEAX@Z 0000000180023c58     frontend.obj
 0002:00008c60       $unwind$??$isLargeObject@$0A@@internal@rml@@YA_NPEAX@Z 0000000180023c60     frontend.obj
 0002:00008c68       $unwind$??$is_aligned@VBlockI@internal@rml@@@internal@tbb@@YA_NPEAVBlockI@0rml@@_K@Z 0000000180023c68     frontend.obj
 0002:00008c70       $unwind$??$is_aligned@$$CBX@internal@tbb@@YA_NPEBX_K@Z 0000000180023c70     frontend.obj
 0002:00008c78       $unwind$??$is_aligned@UFreeObject@internal@rml@@@internal@tbb@@YA_NPEAUFreeObject@0rml@@_K@Z 0000000180023c78     frontend.obj
 0002:00008c80       $unwind$??$is_aligned@VMemoryPool@internal@rml@@@internal@tbb@@YA_NPEAVMemoryPool@0rml@@_K@Z 0000000180023c80     frontend.obj
 0002:00008c88       $unwind$??$is_aligned@X@internal@tbb@@YA_NPEAX_K@Z 0000000180023c88     frontend.obj
 0002:00008c90       $unwind$__report_securityfailure 0000000180023c90     MSVCRTD:gs_report.obj
 0002:00008c98       $unwind$__report_securityfailureEx 0000000180023c98     MSVCRTD:gs_report.obj
 0002:00008ca0       $unwind$__report_rangecheckfailure 0000000180023ca0     MSVCRTD:gs_report.obj
 0002:00008ca8       $unwind$__report_gsfailure 0000000180023ca8     MSVCRTD:gs_report.obj
 0002:00008cb0       $unwind$capture_current_context 0000000180023cb0     MSVCRTD:gs_report.obj
 0002:00008cb8       $unwind$capture_previous_context 0000000180023cb8     MSVCRTD:gs_report.obj
 0002:00008cc0       $unwind$__raise_securityfailure 0000000180023cc0     MSVCRTD:gs_report.obj
 0002:00008cc8       $unwind$__GSHandlerCheckCommon 0000000180023cc8     MSVCRTD:gshandler.obj
 0002:00008cd0       $unwind$__GSHandlerCheck   0000000180023cd0     MSVCRTD:gshandler.obj
 0002:00008cd8       $xdatasym                  0000000180023cd8     MSVCRTD:amdsecgs.obj
 0002:00008cdc       $unwind$?dllmain_crt_process_attach@@YAHQEAUHINSTANCE__@@QEAX@Z 0000000180023cdc     MSVCRTD:dll_dllmain.obj
 0002:00008cfc       $unwind$?fin$0@?0??dllmain_crt_process_attach@@YAHQEAUHINSTANCE__@@QEAX@Z@4HA 0000000180023cfc     MSVCRTD:dll_dllmain.obj
 0002:00008d04       $unwind$?dllmain_crt_process_detach@@YAH_N@Z 0000000180023d04     MSVCRTD:dll_dllmain.obj
 0002:00008d24       $unwind$?fin$0@?0??dllmain_crt_process_detach@@YAH_N@Z@4HA 0000000180023d24     MSVCRTD:dll_dllmain.obj
 0002:00008d2c       $unwind$?dllmain_crt_dispatch@@YAHQEAUHINSTANCE__@@KQEAX@Z 0000000180023d2c     MSVCRTD:dll_dllmain.obj
 0002:00008d34       $unwind$_CRT_INIT          0000000180023d34     MSVCRTD:dll_dllmain.obj
 0002:00008d3c       $unwind$?dllmain_raw@@YAHQEAUHINSTANCE__@@KQEAX@Z 0000000180023d3c     MSVCRTD:dll_dllmain.obj
 0002:00008d44       $unwind$?dllmain_dispatch@@YAHQEAUHINSTANCE__@@KQEAX@Z 0000000180023d44     MSVCRTD:dll_dllmain.obj
 0002:00008d64       $unwind$?filt$0@?0??dllmain_dispatch@@YAHQEAUHINSTANCE__@@KQEAX@Z@4HA 0000000180023d64     MSVCRTD:dll_dllmain.obj
 0002:00008d6c       $unwind$_DllMainCRTStartup 0000000180023d6c     MSVCRTD:dll_dllmain.obj
 0002:00008d74       $unwind$__security_init_cookie 0000000180023d74     MSVCRTD:gs_support.obj
 0002:00008d7c       $unwind$__get_entropy      0000000180023d7c     MSVCRTD:gs_support.obj
 0002:00008d84       $unwind$?__scrt_initialize_type_info@@YAXXZ 0000000180023d84     MSVCRTD:tncleanup.obj
 0002:00008d8c       $unwind$?__scrt_uninitialize_type_info@@YAXXZ 0000000180023d8c     MSVCRTD:tncleanup.obj
 0002:00008d94       $unwind$__scrt_initialize_default_local_stdio_options 0000000180023d94     MSVCRTD:default_local_stdio_options.obj
 0002:00008d9c       $unwind$atexit             0000000180023d9c     MSVCRTD:utility.obj
 0002:00008da4       $unwind$_onexit            0000000180023da4     MSVCRTD:utility.obj
 0002:00008dac       $unwind$at_quick_exit      0000000180023dac     MSVCRTD:utility.obj
 0002:00008db4       $unwind$__scrt_is_nonwritable_in_current_image 0000000180023db4     MSVCRTD:utility.obj
 0002:00008dd4       $unwind$__scrt_is_nonwritable_in_current_image$filt$0 0000000180023dd4     MSVCRTD:utility.obj
 0002:00008ddc       $unwind$__scrt_acquire_startup_lock 0000000180023ddc     MSVCRTD:utility.obj
 0002:00008de4       $unwind$__scrt_release_startup_lock 0000000180023de4     MSVCRTD:utility.obj
 0002:00008dec       $unwind$__scrt_initialize_crt 0000000180023dec     MSVCRTD:utility.obj
 0002:00008df4       $unwind$__scrt_uninitialize_crt 0000000180023df4     MSVCRTD:utility.obj
 0002:00008dfc       $unwind$__scrt_initialize_onexit_tables 0000000180023dfc     MSVCRTD:utility.obj
 0002:00008e08       $unwind$__scrt_dllmain_exception_filter 0000000180023e08     MSVCRTD:utility.obj
 0002:00008e10       $unwind$__scrt_dllmain_before_initialize_c 0000000180023e10     MSVCRTD:utility.obj
 0002:00008e18       $unwind$__scrt_dllmain_after_initialize_c 0000000180023e18     MSVCRTD:utility.obj
 0002:00008e20       $unwind$__scrt_dllmain_uninitialize_c 0000000180023e20     MSVCRTD:utility.obj
 0002:00008e28       $unwind$__scrt_dllmain_uninitialize_critical 0000000180023e28     MSVCRTD:utility.obj
 0002:00008e30       $unwind$__scrt_dllmain_crt_thread_attach 0000000180023e30     MSVCRTD:utility.obj
 0002:00008e38       $unwind$__scrt_dllmain_crt_thread_detach 0000000180023e38     MSVCRTD:utility.obj
 0002:00008e40       $unwind$?configure_argv@__scrt_narrow_argv_policy@@SAHXZ 0000000180023e40     MSVCRTD:utility.obj
 0002:00008e48       $unwind$?initialize_environment@__scrt_narrow_environment_policy@@SAHXZ 0000000180023e48     MSVCRTD:utility.obj
 0002:00008e50       $unwind$?is_potentially_valid_image_base@@YA_NQEAX@Z 0000000180023e50     MSVCRTD:utility.obj
 0002:00008e58       $unwind$?find_pe_section@@YAPEAU_IMAGE_SECTION_HEADER@@QEAE_K@Z 0000000180023e58     MSVCRTD:utility.obj
 0002:00008e60       $unwind$??$__crt_fast_decode_pointer@PEAP6AXXZ@@YAPEAP6AXXZQEAP6AXXZ@Z 0000000180023e60     MSVCRTD:utility.obj
 0002:00008e68       $unwind$??$__crt_fast_encode_pointer@PEAP6AXXZ@@YAPEAP6AXXZQEAP6AXXZ@Z 0000000180023e68     MSVCRTD:utility.obj
 0002:00008e70       $unwind$__scrt_get_show_window_mode 0000000180023e70     MSVCRTD:utility_desktop.obj
 0002:00008e7c       $unwind$__scrt_is_managed_app 0000000180023e7c     MSVCRTD:utility_desktop.obj
 0002:00008e84       $unwind$__scrt_initialize_mta 0000000180023e84     MSVCRTD:utility_desktop.obj
 0002:00008e8c       $unwind$__scrt_set_unhandled_exception_filter 0000000180023e8c     MSVCRTD:utility_desktop.obj
 0002:00008e94       $unwind$__scrt_fastfail    0000000180023e94     MSVCRTD:utility_desktop.obj
 0002:00008ea0       $unwind$__scrt_unhandled_exception_filter 0000000180023ea0     MSVCRTD:utility_desktop.obj
 0002:00008ea8       $unwind$_RTC_Initialize    0000000180023ea8     MSVCRTD:initsect.obj
 0002:00008eb4       $unwind$_RTC_Terminate     0000000180023eb4     MSVCRTD:initsect.obj
 0002:00008ec0       $unwind$ReadNoFence64      0000000180023ec0     MSVCRTD:guard_support.obj
 0002:00008ec8       $unwind$ReadPointerNoFence 0000000180023ec8     MSVCRTD:guard_support.obj
 0002:00008ed0       $unwind$_guard_icall_checks_enforced 0000000180023ed0     MSVCRTD:guard_support.obj
 0002:00008ed8       $unwind$__isa_available_init 0000000180023ed8     MSVCRTD:cpu_disp.obj
 0002:00008ee8       $unwind$__scrt_is_ucrt_dll_in_use 0000000180023ee8     MSVCRTD:ucrt_detection.obj
 0002:00008ef0       $xdatasym                  0000000180023ef0     MSVCRTD:guard_dispatch.obj
 0002:00008f00       .edata                     0000000180023f00     tbbmalloc_debug.exp
 0002:00008f28       rgpv                       0000000180023f28     tbbmalloc_debug.exp
 0002:00008f94       rgszName                   0000000180023f94     tbbmalloc_debug.exp
 0002:00009000       rgwOrd                     0000000180024000     tbbmalloc_debug.exp
 0002:00009036       szName                     0000000180024036     tbbmalloc_debug.exp
 0002:0000904a       $N00001                    000000018002404a     tbbmalloc_debug.exp
 0002:00009081       $N00002                    0000000180024081     tbbmalloc_debug.exp
 0002:000090bd       $N00003                    00000001800240bd     tbbmalloc_debug.exp
 0002:000090fb       $N00004                    00000001800240fb     tbbmalloc_debug.exp
 0002:00009152       $N00005                    0000000180024152     tbbmalloc_debug.exp
 0002:0000917d       $N00006                    000000018002417d     tbbmalloc_debug.exp
 0002:000091a9       $N00007                    00000001800241a9     tbbmalloc_debug.exp
 0002:000091d7       $N00008                    00000001800241d7     tbbmalloc_debug.exp
 0002:00009205       $N00009                    0000000180024205     tbbmalloc_debug.exp
 0002:00009232       $N00010                    0000000180024232     tbbmalloc_debug.exp
 0002:00009265       $N00011                    0000000180024265     tbbmalloc_debug.exp
 0002:0000928e       $N00012                    000000018002428e     tbbmalloc_debug.exp
 0002:000092af       $N00013                    00000001800242af     tbbmalloc_debug.exp
 0002:000092d2       $N00014                    00000001800242d2     tbbmalloc_debug.exp
 0002:000092ea       $N00015                    00000001800242ea     tbbmalloc_debug.exp
 0002:00009303       $N00016                    0000000180024303     tbbmalloc_debug.exp
 0002:0000931e       $N00017                    000000018002431e     tbbmalloc_debug.exp
 0002:00009334       $N00018                    0000000180024334     tbbmalloc_debug.exp
 0002:0000934c       $N00019                    000000018002434c     tbbmalloc_debug.exp
 0002:00009365       $N00020                    0000000180024365     tbbmalloc_debug.exp
 0002:00009381       $N00021                    0000000180024381     tbbmalloc_debug.exp
 0002:0000939a       $N00022                    000000018002439a     tbbmalloc_debug.exp
 0002:000093aa       $N00023                    00000001800243aa     tbbmalloc_debug.exp
 0002:000093b8       $N00024                    00000001800243b8     tbbmalloc_debug.exp
 0002:000093c8       $N00025                    00000001800243c8     tbbmalloc_debug.exp
 0002:000093d7       $N00026                    00000001800243d7     tbbmalloc_debug.exp
 0002:000093ef       $N00027                    00000001800243ef     tbbmalloc_debug.exp
 0002:000097a2       .idata$6                   00000001800247a2     kernel32:KERNEL32.dll
 0002:00009812       .idata$6                   0000000180024812     vcruntimed:VCRUNTIME140D.dll
 0002:000099b6       .idata$6                   00000001800249b6     ucrtd:ucrtbased.dll
 0003:00000550       ?api_list@@3PAU___itt_api_info@@A 0000000180025550     itt_notify.obj
 0003:00001e70       ?ittnotify_lib_name@@3PEBDEB 0000000180026e70     itt_notify.obj
 0003:00001e78       ?__itt_fini_ittlib_ptr@@3P6AXXZEA 0000000180026e78     itt_notify.obj
 0003:00001e80       ?group_list@@3PAU___itt_group_list@@A 0000000180026e80     itt_notify.obj
 0003:00001f80       ?group_alias@@3PAU___itt_group_alias@@A 0000000180026f80     itt_notify.obj
 0003:00001fc0       ?env_value@?1??__itt_get_env_var@@YAPEBDPEBD@Z@4PEADEA 0000000180026fc0     itt_notify.obj
 0003:00001fd0       ?defaultMemPool@internal@rml@@3PEAVMemoryPool@12@EA 0000000180026fd0     frontend.obj
 0003:00001fe0       ?VersionString@internal@rml@@3PADA 0000000180026fe0     frontend.obj
 0003:000020f0       ?masterMutex@internal@rml@@3VMallocMutex@@A 00000001800270f0     backref.obj
 0003:000020f8       ?backRefMaster@internal@rml@@3PEAUBackRefMaster@12@EA 00000001800270f8     backref.obj
 0003:00002108       ?assertion_handler@internal@rml@@3P6AXPEBDH00@ZEA 0000000180027108     tbbmalloc.obj
 0003:00002110       ?already_failed@?6??assertion_failure@internal@rml@@YAXPEBDH00@Z@4_NA 0000000180027110     tbbmalloc.obj
 0003:00002120       ?env_buff@?1??__itt_get_env_var@@YAPEBDPEBD@Z@4PADA 0000000180027120     itt_notify.obj
 0003:00003118       ?current_thread@?1??__itt_fini_ittlib@@9@4KC 0000000180028118     itt_notify.obj
 0003:0000311c       ?current_thread@?1??__itt_init_ittlib@@9@4KC 000000018002811c     itt_notify.obj
 0003:00003120       ?defaultMemPool_space@internal@rml@@3PA_JA 0000000180028120     frontend.obj
 0003:00024871       ?initMutex@internal@rml@@3VMallocMutex@@A 0000000180049871     frontend.obj
 0003:00024872       ?usedBySrcIncluded@internal@rml@@3_NA 0000000180049872     frontend.obj
 0003:00024873       ?shutdownSync@internal@rml@@3VShutdownSync@12@A 0000000180049873     frontend.obj
 0003:000248a8       ?mallocInitialized@internal@rml@@3_JA 00000001800498a8     frontend.obj
 0003:000248b0       GS_ExceptionRecord         00000001800498b0     MSVCRTD:gs_report.obj
 0003:00024950       GS_ContextRecord           0000000180049950     MSVCRTD:gs_report.obj
 0003:00024e20       ?__proc_attached@@3HA      0000000180049e20     MSVCRTD:dll_dllmain.obj
 0003:00024e58       ?is_initialized_as_dll@@3_NA 0000000180049e58     MSVCRTD:utility.obj
 0003:00024e59       ?module_local_atexit_table_initialized@@3_NA 0000000180049e59     MSVCRTD:utility.obj
 0003:00024e60       ?module_local_atexit_table@@3U_onexit_table_t@@A 0000000180049e60     MSVCRTD:utility.obj
 0003:00024e78       ?module_local_at_quick_exit_table@@3U_onexit_table_t@@A 0000000180049e78     MSVCRTD:utility.obj
 0004:00000000       $pdata$?__TBB_machine_cmpswp1@@YADPECXDD@Z 000000018004a000     backend.obj
 0004:0000000c       $pdata$?__TBB_machine_cmpswp8@@YA_JPECX_J1@Z 000000018004a00c     backend.obj
 0004:00000018       $pdata$?lg_bsr@msvc_intrinsics@internal@tbb@@YA_K_K@Z 000000018004a018     backend.obj
 0004:00000024       $pdata$?getAll@CoalRequestQ@internal@rml@@QEAAPEAVFreeBlock@23@XZ 000000018004a024     backend.obj
 0004:00000030       $pdata$?putBlock@CoalRequestQ@internal@rml@@QEAAXPEAVFreeBlock@23@@Z 000000018004a030     backend.obj
 0004:0000003c       $pdata$?add@MemRegionList@internal@rml@@QEAAXPEAUMemRegion@23@@Z 000000018004a03c     backend.obj
 0004:00000048       $pdata$?remove@MemRegionList@internal@rml@@QEAAXPEAUMemRegion@23@@Z 000000018004a048     backend.obj
 0004:00000054       $pdata$?removeBlock@Bin@Backend@internal@rml@@QEAAXPEAVFreeBlock@34@@Z 000000018004a054     backend.obj
 0004:00000060       $pdata$?getFromBin@IndexedBins@Backend@internal@rml@@AEAAPEAVFreeBlock@34@HPEAVBackendSync@34@_K_N22PEAH@Z 000000018004a060     backend.obj
 0004:0000006c       $pdata$?findBlock@IndexedBins@Backend@internal@rml@@QEAAPEAVFreeBlock@34@HPEAVBackendSync@34@_K_N2PEAH@Z 000000018004a06c     backend.obj
 0004:00000078       $pdata$?tryReleaseRegions@IndexedBins@Backend@internal@rml@@QEAA_NHPEAV234@@Z 000000018004a078     backend.obj
 0004:00000084       $pdata$?lockRemoveBlock@IndexedBins@Backend@internal@rml@@QEAAXHPEAVFreeBlock@34@@Z 000000018004a084     backend.obj
 0004:00000090       $pdata$?addBlock@IndexedBins@Backend@internal@rml@@QEAAXHPEAVFreeBlock@34@_K_N@Z 000000018004a090     backend.obj
 0004:0000009c       $pdata$?tryAddBlock@IndexedBins@Backend@internal@rml@@QEAA_NHPEAVFreeBlock@34@_N@Z 000000018004a09c     backend.obj
 0004:000000a8       $pdata$?verify@IndexedBins@Backend@internal@rml@@QEAAXXZ 000000018004a0a8     backend.obj
 0004:000000b4       $pdata$?reset@IndexedBins@Backend@internal@rml@@QEAAXXZ 000000018004a0b4     backend.obj
 0004:000000c0       $pdata$?registerAlloc@UsedAddressRange@Backend@internal@rml@@QEAAX_K0@Z 000000018004a0c0     backend.obj
 0004:000000cc       $pdata$?registerFree@UsedAddressRange@Backend@internal@rml@@QEAAX_K0@Z 000000018004a0cc     backend.obj
 0004:000000d8       $pdata$?addNewRegion@Backend@internal@rml@@AEAAPEAVFreeBlock@23@_KW4MemRegionType@23@_N@Z 000000018004a0d8     backend.obj
 0004:000000e4       $pdata$?findBlockInRegion@Backend@internal@rml@@AEAAPEAVFreeBlock@23@PEAUMemRegion@23@_K@Z 000000018004a0e4     backend.obj
 0004:000000f0       $pdata$?startUseBlock@Backend@internal@rml@@AEAAXPEAUMemRegion@23@PEAVFreeBlock@23@_N@Z 000000018004a0f0     backend.obj
 0004:000000fc       $pdata$?releaseRegion@Backend@internal@rml@@AEAAXPEAUMemRegion@23@@Z 000000018004a0fc     backend.obj
 0004:00000108       $pdata$?releaseMemInCaches@Backend@internal@rml@@AEAAPEAVFreeBlock@23@_JPEAHH@Z 000000018004a108     backend.obj
 0004:00000114       $pdata$?requestBootstrapMem@Backend@internal@rml@@AEAAXXZ 000000018004a114     backend.obj
 0004:00000120       $pdata$?askMemFromOS@Backend@internal@rml@@AEAAPEAVFreeBlock@23@_K_JPEAHHPEA_N@Z 000000018004a120     backend.obj
 0004:0000012c       $pdata$?genericGetBlock@Backend@internal@rml@@AEAAPEAVFreeBlock@23@H_K_N@Z 000000018004a12c     backend.obj
 0004:00000138       $pdata$?genericPutBlock@Backend@internal@rml@@AEAAXPEAVFreeBlock@23@_K@Z 000000018004a138     backend.obj
 0004:00000144       $pdata$?splitUnalignedBlock@Backend@internal@rml@@AEAAPEAVFreeBlock@23@PEAV423@H_K_N@Z 000000018004a144     backend.obj
 0004:00000150       $pdata$?splitAlignedBlock@Backend@internal@rml@@AEAAPEAVFreeBlock@23@PEAV423@H_K_N@Z 000000018004a150     backend.obj
 0004:0000015c       $pdata$?doCoalesc@Backend@internal@rml@@AEAAPEAVFreeBlock@23@PEAV423@PEAPEAUMemRegion@23@@Z 000000018004a15c     backend.obj
 0004:00000168       $pdata$?coalescAndPutList@Backend@internal@rml@@AEAA_NPEAVFreeBlock@23@_N1@Z 000000018004a168     backend.obj
 0004:00000174       $pdata$?coalescAndPut@Backend@internal@rml@@AEAAXPEAVFreeBlock@23@_K@Z 000000018004a174     backend.obj
 0004:00000180       $pdata$?removeBlockFromBin@Backend@internal@rml@@AEAAXPEAVFreeBlock@23@@Z 000000018004a180     backend.obj
 0004:0000018c       $pdata$?allocRawMem@Backend@internal@rml@@AEAAPEAXAEA_K@Z 000000018004a18c     backend.obj
 0004:00000198       $pdata$?freeRawMem@Backend@internal@rml@@AEAA_NPEAX_K@Z 000000018004a198     backend.obj
 0004:000001a4       $pdata$?putLargeBlock@Backend@internal@rml@@AEAAXPEAULargeMemoryBlock@23@@Z 000000018004a1a4     backend.obj
 0004:000001b0       $pdata$?releaseCachesToLimit@Backend@internal@rml@@AEAAXXZ 000000018004a1b0     backend.obj
 0004:000001bc       $pdata$?scanCoalescQ@Backend@internal@rml@@QEAA_N_N@Z 000000018004a1bc     backend.obj
 0004:000001c8       $pdata$?verify@Backend@internal@rml@@QEAAXXZ 000000018004a1c8     backend.obj
 0004:000001d4       $pdata$?init@Backend@internal@rml@@QEAAXPEAUExtMemoryPool@23@@Z 000000018004a1d4     backend.obj
 0004:000001e0       $pdata$?reset@Backend@internal@rml@@QEAAXXZ 000000018004a1e0     backend.obj
 0004:000001ec       $pdata$?destroy@Backend@internal@rml@@QEAA_NXZ 000000018004a1ec     backend.obj
 0004:000001f8       $pdata$?clean@Backend@internal@rml@@QEAA_NXZ 000000018004a1f8     backend.obj
 0004:00000204       $pdata$?getBackRefSpace@Backend@internal@rml@@QEAAPEAX_KPEA_N@Z 000000018004a204     backend.obj
 0004:00000210       $pdata$?putBackRefSpace@Backend@internal@rml@@QEAAXPEAX_K_N@Z 000000018004a210     backend.obj
 0004:0000021c       $pdata$?getLargeBlock@Backend@internal@rml@@QEAAPEAULargeMemoryBlock@23@_K@Z 000000018004a21c     backend.obj
 0004:00000228       $pdata$?returnLargeObject@Backend@internal@rml@@QEAAXPEAULargeMemoryBlock@23@@Z 000000018004a228     backend.obj
 0004:00000234       $pdata$?getMaxBinnedSize@Backend@internal@rml@@QEBA_KXZ 000000018004a234     backend.obj
 0004:00000240       $pdata$??$isAligned@D@@YA_NPEAD_K@Z 000000018004a240     backend.obj
 0004:0000024c       $pdata$?add@AllLargeBlocksList@internal@rml@@QEAAXPEAULargeMemoryBlock@23@@Z 000000018004a24c     backend.obj
 0004:00000258       $pdata$?remove@AllLargeBlocksList@internal@rml@@QEAAXPEAULargeMemoryBlock@23@@Z 000000018004a258     backend.obj
 0004:00000264       $pdata$?ErrnoPreservingMalloc@internal@rml@@YAPEAX_K@Z 000000018004a264     backend.obj
 0004:00000270       $pdata$?MapMemory@internal@rml@@YAPEAX_KW4PageType@12@@Z 000000018004a270     backend.obj
 0004:0000027c       $pdata$?UnmapMemory@internal@rml@@YAHPEAX_K@Z 000000018004a27c     backend.obj
 0004:00000288       $pdata$?getRawMemory@internal@rml@@YAPEAX_KW4PageType@12@@Z 000000018004a288     backend.obj
 0004:00000294       $pdata$?freeRawMemory@internal@rml@@YAHPEAX_K@Z 000000018004a294     backend.obj
 0004:000002a0       $pdata$??$alignUpGeneric@_K@@YA_K_K0@Z 000000018004a2a0     backend.obj
 0004:000002ac       $pdata$??$isAligned@VFreeBlock@internal@rml@@@@YA_NPEAVFreeBlock@internal@rml@@_K@Z 000000018004a2ac     backend.obj
 0004:000002b8       $pdata$??$isAligned@ULastFreeBlock@internal@rml@@@@YA_NPEAULastFreeBlock@internal@rml@@_K@Z 000000018004a2b8     backend.obj
 0004:000002c4       $pdata$??0atomic_backoff@internal@tbb@@QEAA@XZ 000000018004a2c4     backend.obj
 0004:000002d0       $pdata$?pause@atomic_backoff@internal@tbb@@QEAAXXZ 000000018004a2d0     backend.obj
 0004:000002dc       $pdata$?__TBB_TryLockByte@@YA_NAEAE@Z 000000018004a2dc     backend.obj
 0004:000002e8       $pdata$?__TBB_LockByte@@YAEAEAE@Z 000000018004a2e8     backend.obj
 0004:000002f4       $pdata$??0scoped_lock@MallocMutex@@QEAA@AEAV1@@Z 000000018004a2f4     backend.obj
 0004:00000300       $pdata$??0scoped_lock@MallocMutex@@QEAA@AEAV1@_NPEA_N@Z 000000018004a300     backend.obj
 0004:0000030c       $pdata$??1scoped_lock@MallocMutex@@QEAA@XZ 000000018004a30c     backend.obj
 0004:00000318       $pdata$??$__TBB_store_with_release@EH@internal@tbb@@YAXAECEH@Z 000000018004a318     backend.obj
 0004:00000324       $pdata$?AtomicIncrement@@YA_JAEC_J@Z 000000018004a324     backend.obj
 0004:00000330       $pdata$?AtomicAdd@@YA_KAEC_J_J@Z 000000018004a330     backend.obj
 0004:0000033c       $pdata$?AtomicCompareExchange@@YA_JAEC_J_J1@Z 000000018004a33c     backend.obj
 0004:00000348       $pdata$?AtomicOr@@YAXPECX_K@Z 000000018004a348     backend.obj
 0004:00000354       $pdata$?AtomicAnd@@YAXPECX_K@Z 000000018004a354     backend.obj
 0004:00000360       $pdata$?FencedLoad@@YA_JAED_J@Z 000000018004a360     backend.obj
 0004:0000036c       $pdata$??$__TBB_load_with_acquire@_J@internal@tbb@@YA_JAED_J@Z 000000018004a36c     backend.obj
 0004:00000378       $pdata$?FencedStore@@YAXAEC_J_J@Z 000000018004a378     backend.obj
 0004:00000384       $pdata$??$__TBB_store_with_release@_J_J@internal@tbb@@YAXAEC_J_J@Z 000000018004a384     backend.obj
 0004:00000390       $pdata$?SpinWaitWhileEq@@YAXAED_J_J@Z 000000018004a390     backend.obj
 0004:0000039c       $pdata$??$spin_wait_while_eq@_J_J@internal@tbb@@YAXAED_J_J@Z 000000018004a39c     backend.obj
 0004:000003a8       $pdata$??0AtomicBackoff@@QEAA@XZ 000000018004a3a8     backend.obj
 0004:000003b4       $pdata$?pause@AtomicBackoff@@QEAAXXZ 000000018004a3b4     backend.obj
 0004:000003c0       $pdata$?BitScanRev@@YA_J_K@Z 000000018004a3c0     backend.obj
 0004:000003cc       $pdata$?blockConsumed@BackendSync@internal@rml@@QEAAXXZ 000000018004a3cc     backend.obj
 0004:000003d8       $pdata$?binsModified@BackendSync@internal@rml@@QEAAXXZ 000000018004a3d8     backend.obj
 0004:000003e4       $pdata$?blockReleased@BackendSync@internal@rml@@QEAAXXZ 000000018004a3e4     backend.obj
 0004:000003f0       $pdata$?getNumOfMods@BackendSync@internal@rml@@QEBA_JXZ 000000018004a3f0     backend.obj
 0004:000003fc       $pdata$?waitTillBlockReleased@BackendSync@internal@rml@@QEAA_N_J@Z 000000018004a3fc     backend.obj
 0004:00000408       $pdata$?blockWasProcessed@CoalRequestQ@internal@rml@@QEAAXXZ 000000018004a408     backend.obj
 0004:00000414       $pdata$?blocksInFly@CoalRequestQ@internal@rml@@QEBA_JXZ 000000018004a414     backend.obj
 0004:00000420       $pdata$?wait@MemExtendingSema@internal@rml@@QEAA_NXZ 000000018004a420     backend.obj
 0004:0000042c       $pdata$?signal@MemExtendingSema@internal@rml@@QEAAXXZ 000000018004a42c     backend.obj
 0004:00000438       $pdata$?empty@Bin@Backend@internal@rml@@QEBA_NXZ 000000018004a438     backend.obj
 0004:00000444       $pdata$?set@?$BitMaskBasic@$0CAA@@internal@rml@@IEAAX_K_N@Z 000000018004a444     backend.obj
 0004:00000450       $pdata$?getMinTrue@?$BitMaskBasic@$0CAA@@internal@rml@@IEBAHI@Z 000000018004a450     backend.obj
 0004:0000045c       $pdata$?reset@?$BitMaskBasic@$0CAA@@internal@rml@@QEAAXXZ 000000018004a45c     backend.obj
 0004:00000468       $pdata$?set@?$BitMaskMin@$0CAA@@internal@rml@@QEAAX_K_N@Z 000000018004a468     backend.obj
 0004:00000474       $pdata$?getMinTrue@?$BitMaskMin@$0CAA@@internal@rml@@QEBAHI@Z 000000018004a474     backend.obj
 0004:00000480       $pdata$?dtor$0@?0??getFromBin@IndexedBins@Backend@internal@rml@@AEAAPEAVFreeBlock@34@HPEAVBackendSync@34@_K_N22PEAH@Z@4HA 000000018004a480     backend.obj
 0004:0000048c       $pdata$?dtor$0@?0??tryReleaseRegions@IndexedBins@Backend@internal@rml@@QEAA_NHPEAV234@@Z@4HA 000000018004a48c     backend.obj
 0004:00000498       $pdata$?dtor$0@?0??lockRemoveBlock@IndexedBins@Backend@internal@rml@@QEAAXHPEAVFreeBlock@34@@Z@4HA 000000018004a498     backend.obj
 0004:000004a4       $pdata$?dtor$0@?0??registerAlloc@UsedAddressRange@Backend@internal@rml@@QEAAX_K0@Z@4HA 000000018004a4a4     backend.obj
 0004:000004b0       $pdata$?dtor$0@?0??registerFree@UsedAddressRange@Backend@internal@rml@@QEAAX_K0@Z@4HA 000000018004a4b0     backend.obj
 0004:000004bc       $pdata$?dtor$0@?0??requestBootstrapMem@Backend@internal@rml@@AEAAXXZ@4HA 000000018004a4bc     backend.obj
 0004:000004c8       $pdata$?getMinNonemptyBin@IndexedBins@Backend@internal@rml@@QEBAHI@Z 000000018004a4c8     backend.obj
 0004:000004d4       $pdata$?registerBin@AdvRegionsBins@Backend@internal@rml@@QEAAXH@Z 000000018004a4d4     backend.obj
 0004:000004e0       $pdata$?getMinUsedBin@AdvRegionsBins@Backend@internal@rml@@QEBAHH@Z 000000018004a4e0     backend.obj
 0004:000004ec       $pdata$?reset@AdvRegionsBins@Backend@internal@rml@@QEAAXXZ 000000018004a4ec     backend.obj
 0004:000004f8       $pdata$??RMaxRequestComparator@Backend@internal@rml@@QEBA_N_K0@Z 000000018004a4f8     backend.obj
 0004:00000504       $pdata$?blocksInCoalescing@Backend@internal@rml@@QEBA_JXZ 000000018004a504     backend.obj
 0004:00000510       $pdata$?inUserPool@Backend@internal@rml@@QEBA_NXZ 000000018004a510     backend.obj
 0004:0000051c       $pdata$?sizeToBin@Backend@internal@rml@@CAH_K@Z 000000018004a51c     backend.obj
 0004:00000528       $pdata$?toAlignedBin@Backend@internal@rml@@CA_NPEAVFreeBlock@23@_K@Z 000000018004a528     backend.obj
 0004:00000534       $pdata$?get@AllocControlledMode@internal@rml@@QEBA_JXZ 000000018004a534     backend.obj
 0004:00000540       $pdata$?getGranularity@HugePagesStatus@internal@rml@@QEBA_KXZ 000000018004a540     backend.obj
 0004:0000054c       $pdata$?userPool@ExtMemoryPool@internal@rml@@QEBA_NXZ 000000018004a54c     backend.obj
 0004:00000558       $pdata$?regionsAreReleaseable@ExtMemoryPool@internal@rml@@QEBA_NXZ 000000018004a558     backend.obj
 0004:00000564       $pdata$?makeCoalscing@GuardedSize@internal@rml@@QEAAXXZ 000000018004a564     backend.obj
 0004:00000570       $pdata$?tryLock@GuardedSize@internal@rml@@QEAA_KW4State@123@@Z 000000018004a570     backend.obj
 0004:0000057c       $pdata$?unlock@GuardedSize@internal@rml@@QEAAX_K@Z 000000018004a57c     backend.obj
 0004:00000588       $pdata$?rightNeig@FreeBlock@internal@rml@@QEBAPEAV123@_K@Z 000000018004a588     backend.obj
 0004:00000594       $pdata$?leftNeig@FreeBlock@internal@rml@@QEBAPEAV123@_K@Z 000000018004a594     backend.obj
 0004:000005a0       $pdata$?initHeader@FreeBlock@internal@rml@@QEAAXXZ 000000018004a5a0     backend.obj
 0004:000005ac       $pdata$?setMeFree@FreeBlock@internal@rml@@QEAAX_K@Z 000000018004a5ac     backend.obj
 0004:000005b8       $pdata$?trySetMeUsed@FreeBlock@internal@rml@@QEAA_KW4State@GuardedSize@23@@Z 000000018004a5b8     backend.obj
 0004:000005c4       $pdata$?setLeftFree@FreeBlock@internal@rml@@QEAAX_K@Z 000000018004a5c4     backend.obj
 0004:000005d0       $pdata$?trySetLeftUsed@FreeBlock@internal@rml@@QEAA_KW4State@GuardedSize@23@@Z 000000018004a5d0     backend.obj
 0004:000005dc       $pdata$?tryLockBlock@FreeBlock@internal@rml@@QEAA_KXZ 000000018004a5dc     backend.obj
 0004:000005e8       $pdata$?markCoalescing@FreeBlock@internal@rml@@QEAAX_K@Z 000000018004a5e8     backend.obj
 0004:000005f4       $pdata$?markUsed@FreeBlock@internal@rml@@QEAAXXZ 000000018004a5f4     backend.obj
 0004:00000600       $pdata$?markBlocks@FreeBlock@internal@rml@@SAXPEAV123@H_K@Z 000000018004a600     backend.obj
 0004:0000060c       $pdata$??$AtomicUpdate@_KVMaxRequestComparator@Backend@internal@rml@@@internal@rml@@YAXAEA_K_KAEBVMaxRequestComparator@Backend@01@@Z 000000018004a60c     backend.obj
 0004:00000618       $pdata$?load_with_acquire@?$machine_load_store@_J$07@internal@tbb@@SA_JAED_J@Z 000000018004a618     backend.obj
 0004:00000624       $pdata$??$is_aligned@D@internal@tbb@@YA_NPEAD_K@Z 000000018004a624     backend.obj
 0004:00000630       $pdata$??$is_aligned@VFreeBlock@internal@rml@@@internal@tbb@@YA_NPEAVFreeBlock@0rml@@_K@Z 000000018004a630     backend.obj
 0004:0000063c       $pdata$??$is_aligned@ULastFreeBlock@internal@rml@@@internal@tbb@@YA_NPEAULastFreeBlock@0rml@@_K@Z 000000018004a63c     backend.obj
 0004:00000648       $pdata$?__TBB_machine_cmpswp8@@YA_JPECX_J1@Z 000000018004a648     large_objects.obj
 0004:00000654       $pdata$?lg_bsr@msvc_intrinsics@internal@tbb@@YA_K_K@Z 000000018004a654     large_objects.obj
 0004:00000660       $pdata$?sizeToIdx@LargeObjectCache@internal@rml@@CAH_K@Z 000000018004a660     large_objects.obj
 0004:0000066c       $pdata$?put@LargeObjectCache@internal@rml@@QEAAXPEAULargeMemoryBlock@23@@Z 000000018004a66c     large_objects.obj
 0004:00000678       $pdata$?putList@LargeObjectCache@internal@rml@@QEAAXPEAULargeMemoryBlock@23@@Z 000000018004a678     large_objects.obj
 0004:00000684       $pdata$?get@LargeObjectCache@internal@rml@@QEAAPEAULargeMemoryBlock@23@_K@Z 000000018004a684     large_objects.obj
 0004:00000690       $pdata$?updateCacheState@LargeObjectCache@internal@rml@@QEAAXW4DecreaseOrIncrease@23@_K@Z 000000018004a690     large_objects.obj
 0004:0000069c       $pdata$?doCleanup@LargeObjectCache@internal@rml@@QEAA_N_K_N@Z 000000018004a69c     large_objects.obj
 0004:000006a8       $pdata$?decreasingCleanup@LargeObjectCache@internal@rml@@QEAA_NXZ 000000018004a6a8     large_objects.obj
 0004:000006b4       $pdata$?regularCleanup@LargeObjectCache@internal@rml@@QEAA_NXZ 000000018004a6b4     large_objects.obj
 0004:000006c0       $pdata$?cleanAll@LargeObjectCache@internal@rml@@QEAA_NXZ 000000018004a6c0     large_objects.obj
 0004:000006cc       $pdata$?registerRealloc@LargeObjectCache@internal@rml@@QEAAX_K0@Z 000000018004a6cc     large_objects.obj
 0004:000006d8       $pdata$?softCachesCleanup@ExtMemoryPool@internal@rml@@QEAA_NXZ 000000018004a6d8     large_objects.obj
 0004:000006e4       $pdata$?hardCachesCleanup@ExtMemoryPool@internal@rml@@QEAA_NXZ 000000018004a6e4     large_objects.obj
 0004:000006f0       $pdata$?mallocLargeObject@ExtMemoryPool@internal@rml@@QEAAPEAULargeMemoryBlock@23@PEAVMemoryPool@23@_K@Z 000000018004a6f0     large_objects.obj
 0004:000006fc       $pdata$?freeLargeObject@ExtMemoryPool@internal@rml@@QEAAXPEAULargeMemoryBlock@23@@Z 000000018004a6fc     large_objects.obj
 0004:00000708       $pdata$?freeLargeObjectList@ExtMemoryPool@internal@rml@@QEAAXPEAULargeMemoryBlock@23@@Z 000000018004a708     large_objects.obj
 0004:00000714       $pdata$?__TBB_store_with_release@internal@tbb@@YAXAEC_K_K@Z 000000018004a714     large_objects.obj
 0004:00000720       $pdata$?call_itt_notify@internal@tbb@@YAXW4notify_type@12@PEAX@Z 000000018004a720     large_objects.obj
 0004:0000072c       $pdata$?fetch_and_store@?$atomic_impl@PEAUCacheBinOperation@internal@rml@@@internal@tbb@@QEAAPEAUCacheBinOperation@2rml@@PEAU425@@Z 000000018004a72c     large_objects.obj
 0004:00000738       $pdata$?compare_and_swap@?$atomic_impl@PEAUCacheBinOperation@internal@rml@@@internal@tbb@@QEAAPEAUCacheBinOperation@2rml@@PEAU425@0@Z 000000018004a738     large_objects.obj
 0004:00000744       $pdata$??B?$atomic_impl@PEAUCacheBinOperation@internal@rml@@@internal@tbb@@QEDAPEAUCacheBinOperation@1rml@@XZ 000000018004a744     large_objects.obj
 0004:00000750       $pdata$?set@?$BitMaskBasic@$0PC@@internal@rml@@IEAAX_K_N@Z 000000018004a750     large_objects.obj
 0004:0000075c       $pdata$?getMinTrue@?$BitMaskBasic@$0PC@@internal@rml@@IEBAHI@Z 000000018004a75c     large_objects.obj
 0004:00000768       $pdata$?set@?$BitMaskMax@$0PC@@internal@rml@@QEAAX_K_N@Z 000000018004a768     large_objects.obj
 0004:00000774       $pdata$?getMaxTrue@?$BitMaskMax@$0PC@@internal@rml@@QEBAHI@Z 000000018004a774     large_objects.obj
 0004:00000780       $pdata$?ExecuteOperation@CacheBin@?$LargeObjectCacheImpl@U?$LargeObjectCacheProps@$0IAAAAA@$0IBAAAAA@$0IAAAA@$00$00$03@internal@rml@@@internal@rml@@AEAAXPEAUCacheBinOperation@34@PEAUExtMemoryPool@34@PEAV?$BitMaskMax@$0PC@@34@H_N@Z 000000018004a780     large_objects.obj
 0004:0000078c       $pdata$?putList@CacheBin@?$LargeObjectCacheImpl@U?$LargeObjectCacheProps@$0IAAAAA@$0IBAAAAA@$0IAAAA@$00$00$03@internal@rml@@@internal@rml@@QEAAXPEAUExtMemoryPool@34@PEAULargeMemoryBlock@34@PEAV?$BitMaskMax@$0PC@@34@H@Z 000000018004a78c     large_objects.obj
 0004:00000798       $pdata$?get@CacheBin@?$LargeObjectCacheImpl@U?$LargeObjectCacheProps@$0IAAAAA@$0IBAAAAA@$0IAAAA@$00$00$03@internal@rml@@@internal@rml@@QEAAPEAULargeMemoryBlock@34@PEAUExtMemoryPool@34@_KPEAV?$BitMaskMax@$0PC@@34@H@Z 000000018004a798     large_objects.obj
 0004:000007a4       $pdata$?cleanToThreshold@CacheBin@?$LargeObjectCacheImpl@U?$LargeObjectCacheProps@$0IAAAAA@$0IBAAAAA@$0IAAAA@$00$00$03@internal@rml@@@internal@rml@@QEAA_NPEAUExtMemoryPool@34@PEAV?$BitMaskMax@$0PC@@34@_KH@Z 000000018004a7a4     large_objects.obj
 0004:000007b0       $pdata$?releaseAllToBackend@CacheBin@?$LargeObjectCacheImpl@U?$LargeObjectCacheProps@$0IAAAAA@$0IBAAAAA@$0IAAAA@$00$00$03@internal@rml@@@internal@rml@@QEAA_NPEAUExtMemoryPool@34@PEAV?$BitMaskMax@$0PC@@34@H@Z 000000018004a7b0     large_objects.obj
 0004:000007bc       $pdata$?updateUsedSize@CacheBin@?$LargeObjectCacheImpl@U?$LargeObjectCacheProps@$0IAAAAA@$0IBAAAAA@$0IAAAA@$00$00$03@internal@rml@@@internal@rml@@QEAAXPEAUExtMemoryPool@34@_KPEAV?$BitMaskMax@$0PC@@34@H@Z 000000018004a7bc     large_objects.obj
 0004:000007c8       $pdata$?updateBinsSummary@CacheBin@?$LargeObjectCacheImpl@U?$LargeObjectCacheProps@$0IAAAAA@$0IBAAAAA@$0IAAAA@$00$00$03@internal@rml@@@internal@rml@@QEBAXPEAVBinsSummary@234@@Z 000000018004a7c8     large_objects.obj
 0004:000007d4       $pdata$?forgetOutdatedState@CacheBin@?$LargeObjectCacheImpl@U?$LargeObjectCacheProps@$0IAAAAA@$0IBAAAAA@$0IAAAA@$00$00$03@internal@rml@@@internal@rml@@QEAAX_K@Z 000000018004a7d4     large_objects.obj
 0004:000007e0       $pdata$?putList@CacheBin@?$LargeObjectCacheImpl@U?$LargeObjectCacheProps@$0IAAAAA@$0IBAAAAA@$0IAAAA@$00$00$03@internal@rml@@@internal@rml@@QEAAPEAULargeMemoryBlock@34@PEAU534@0PEAV?$BitMaskMax@$0PC@@34@HH@Z 000000018004a7e0     large_objects.obj
 0004:000007ec       $pdata$?get@CacheBin@?$LargeObjectCacheImpl@U?$LargeObjectCacheProps@$0IAAAAA@$0IBAAAAA@$0IAAAA@$00$00$03@internal@rml@@@internal@rml@@QEAAPEAULargeMemoryBlock@34@XZ 000000018004a7ec     large_objects.obj
 0004:000007f8       $pdata$?cleanToThreshold@CacheBin@?$LargeObjectCacheImpl@U?$LargeObjectCacheProps@$0IAAAAA@$0IBAAAAA@$0IAAAA@$00$00$03@internal@rml@@@internal@rml@@QEAAPEAULargeMemoryBlock@34@_KPEAV?$BitMaskMax@$0PC@@34@H@Z 000000018004a7f8     large_objects.obj
 0004:00000804       $pdata$?cleanAll@CacheBin@?$LargeObjectCacheImpl@U?$LargeObjectCacheProps@$0IAAAAA@$0IBAAAAA@$0IAAAA@$00$00$03@internal@rml@@@internal@rml@@QEAAPEAULargeMemoryBlock@34@PEAV?$BitMaskMax@$0PC@@34@H@Z 000000018004a804     large_objects.obj
 0004:00000810       $pdata$?updateUsedSize@CacheBin@?$LargeObjectCacheImpl@U?$LargeObjectCacheProps@$0IAAAAA@$0IBAAAAA@$0IAAAA@$00$00$03@internal@rml@@@internal@rml@@QEAAX_KPEAV?$BitMaskMax@$0PC@@34@H@Z 000000018004a810     large_objects.obj
 0004:0000081c       $pdata$?updateMeanHitRange@CacheBin@?$LargeObjectCacheImpl@U?$LargeObjectCacheProps@$0IAAAAA@$0IBAAAAA@$0IAAAA@$00$00$03@internal@rml@@@internal@rml@@QEAAX_J@Z 000000018004a81c     large_objects.obj
 0004:00000828       $pdata$?sizeToIdx@?$LargeObjectCacheImpl@U?$LargeObjectCacheProps@$0IAAAAA@$0IBAAAAA@$0IAAAA@$00$00$03@internal@rml@@@internal@rml@@SAH_K@Z 000000018004a828     large_objects.obj
 0004:00000834       $pdata$?putList@?$LargeObjectCacheImpl@U?$LargeObjectCacheProps@$0IAAAAA@$0IBAAAAA@$0IAAAA@$00$00$03@internal@rml@@@internal@rml@@QEAAXPEAUExtMemoryPool@23@PEAULargeMemoryBlock@23@@Z 000000018004a834     large_objects.obj
 0004:00000840       $pdata$?get@?$LargeObjectCacheImpl@U?$LargeObjectCacheProps@$0IAAAAA@$0IBAAAAA@$0IAAAA@$00$00$03@internal@rml@@@internal@rml@@QEAAPEAULargeMemoryBlock@23@PEAUExtMemoryPool@23@_K@Z 000000018004a840     large_objects.obj
 0004:0000084c       $pdata$?updateCacheState@?$LargeObjectCacheImpl@U?$LargeObjectCacheProps@$0IAAAAA@$0IBAAAAA@$0IAAAA@$00$00$03@internal@rml@@@internal@rml@@QEAAXPEAUExtMemoryPool@23@W4DecreaseOrIncrease@23@_K@Z 000000018004a84c     large_objects.obj
 0004:00000858       $pdata$?regularCleanup@?$LargeObjectCacheImpl@U?$LargeObjectCacheProps@$0IAAAAA@$0IBAAAAA@$0IAAAA@$00$00$03@internal@rml@@@internal@rml@@QEAA_NPEAUExtMemoryPool@23@_K_N@Z 000000018004a858     large_objects.obj
 0004:00000864       $pdata$?cleanAll@?$LargeObjectCacheImpl@U?$LargeObjectCacheProps@$0IAAAAA@$0IBAAAAA@$0IAAAA@$00$00$03@internal@rml@@@internal@rml@@QEAA_NPEAUExtMemoryPool@23@@Z 000000018004a864     large_objects.obj
 0004:00000870       $pdata$?set@?$BitMaskBasic@$0DPP@@internal@rml@@IEAAX_K_N@Z 000000018004a870     large_objects.obj
 0004:0000087c       $pdata$?getMinTrue@?$BitMaskBasic@$0DPP@@internal@rml@@IEBAHI@Z 000000018004a87c     large_objects.obj
 0004:00000888       $pdata$?set@?$BitMaskMax@$0DPP@@internal@rml@@QEAAX_K_N@Z 000000018004a888     large_objects.obj
 0004:00000894       $pdata$?getMaxTrue@?$BitMaskMax@$0DPP@@internal@rml@@QEBAHI@Z 000000018004a894     large_objects.obj
 0004:000008a0       $pdata$?ExecuteOperation@CacheBin@?$LargeObjectCacheImpl@U?$LargeObjectCacheProps@$0CAAA@$0IAAAAA@$0CAAA@$01$01$0BA@@internal@rml@@@internal@rml@@AEAAXPEAUCacheBinOperation@34@PEAUExtMemoryPool@34@PEAV?$BitMaskMax@$0DPP@@34@H_N@Z 000000018004a8a0     large_objects.obj
 0004:000008ac       $pdata$?putList@CacheBin@?$LargeObjectCacheImpl@U?$LargeObjectCacheProps@$0CAAA@$0IAAAAA@$0CAAA@$01$01$0BA@@internal@rml@@@internal@rml@@QEAAXPEAUExtMemoryPool@34@PEAULargeMemoryBlock@34@PEAV?$BitMaskMax@$0DPP@@34@H@Z 000000018004a8ac     large_objects.obj
 0004:000008b8       $pdata$?get@CacheBin@?$LargeObjectCacheImpl@U?$LargeObjectCacheProps@$0CAAA@$0IAAAAA@$0CAAA@$01$01$0BA@@internal@rml@@@internal@rml@@QEAAPEAULargeMemoryBlock@34@PEAUExtMemoryPool@34@_KPEAV?$BitMaskMax@$0DPP@@34@H@Z 000000018004a8b8     large_objects.obj
 0004:000008c4       $pdata$?cleanToThreshold@CacheBin@?$LargeObjectCacheImpl@U?$LargeObjectCacheProps@$0CAAA@$0IAAAAA@$0CAAA@$01$01$0BA@@internal@rml@@@internal@rml@@QEAA_NPEAUExtMemoryPool@34@PEAV?$BitMaskMax@$0DPP@@34@_KH@Z 000000018004a8c4     large_objects.obj
 0004:000008d0       $pdata$?releaseAllToBackend@CacheBin@?$LargeObjectCacheImpl@U?$LargeObjectCacheProps@$0CAAA@$0IAAAAA@$0CAAA@$01$01$0BA@@internal@rml@@@internal@rml@@QEAA_NPEAUExtMemoryPool@34@PEAV?$BitMaskMax@$0DPP@@34@H@Z 000000018004a8d0     large_objects.obj
 0004:000008dc       $pdata$?updateUsedSize@CacheBin@?$LargeObjectCacheImpl@U?$LargeObjectCacheProps@$0CAAA@$0IAAAAA@$0CAAA@$01$01$0BA@@internal@rml@@@internal@rml@@QEAAXPEAUExtMemoryPool@34@_KPEAV?$BitMaskMax@$0DPP@@34@H@Z 000000018004a8dc     large_objects.obj
 0004:000008e8       $pdata$?updateBinsSummary@CacheBin@?$LargeObjectCacheImpl@U?$LargeObjectCacheProps@$0CAAA@$0IAAAAA@$0CAAA@$01$01$0BA@@internal@rml@@@internal@rml@@QEBAXPEAVBinsSummary@234@@Z 000000018004a8e8     large_objects.obj
 0004:000008f4       $pdata$?forgetOutdatedState@CacheBin@?$LargeObjectCacheImpl@U?$LargeObjectCacheProps@$0CAAA@$0IAAAAA@$0CAAA@$01$01$0BA@@internal@rml@@@internal@rml@@QEAAX_K@Z 000000018004a8f4     large_objects.obj
 0004:00000900       $pdata$?putList@CacheBin@?$LargeObjectCacheImpl@U?$LargeObjectCacheProps@$0CAAA@$0IAAAAA@$0CAAA@$01$01$0BA@@internal@rml@@@internal@rml@@QEAAPEAULargeMemoryBlock@34@PEAU534@0PEAV?$BitMaskMax@$0DPP@@34@HH@Z 000000018004a900     large_objects.obj
 0004:0000090c       $pdata$?get@CacheBin@?$LargeObjectCacheImpl@U?$LargeObjectCacheProps@$0CAAA@$0IAAAAA@$0CAAA@$01$01$0BA@@internal@rml@@@internal@rml@@QEAAPEAULargeMemoryBlock@34@XZ 000000018004a90c     large_objects.obj
 0004:00000918       $pdata$?cleanToThreshold@CacheBin@?$LargeObjectCacheImpl@U?$LargeObjectCacheProps@$0CAAA@$0IAAAAA@$0CAAA@$01$01$0BA@@internal@rml@@@internal@rml@@QEAAPEAULargeMemoryBlock@34@_KPEAV?$BitMaskMax@$0DPP@@34@H@Z 000000018004a918     large_objects.obj
 0004:00000924       $pdata$?cleanAll@CacheBin@?$LargeObjectCacheImpl@U?$LargeObjectCacheProps@$0CAAA@$0IAAAAA@$0CAAA@$01$01$0BA@@internal@rml@@@internal@rml@@QEAAPEAULargeMemoryBlock@34@PEAV?$BitMaskMax@$0DPP@@34@H@Z 000000018004a924     large_objects.obj
 0004:00000930       $pdata$?updateUsedSize@CacheBin@?$LargeObjectCacheImpl@U?$LargeObjectCacheProps@$0CAAA@$0IAAAAA@$0CAAA@$01$01$0BA@@internal@rml@@@internal@rml@@QEAAX_KPEAV?$BitMaskMax@$0DPP@@34@H@Z 000000018004a930     large_objects.obj
 0004:0000093c       $pdata$?updateMeanHitRange@CacheBin@?$LargeObjectCacheImpl@U?$LargeObjectCacheProps@$0CAAA@$0IAAAAA@$0CAAA@$01$01$0BA@@internal@rml@@@internal@rml@@QEAAX_J@Z 000000018004a93c     large_objects.obj
 0004:00000948       $pdata$?sizeToIdx@?$LargeObjectCacheImpl@U?$LargeObjectCacheProps@$0CAAA@$0IAAAAA@$0CAAA@$01$01$0BA@@internal@rml@@@internal@rml@@SAH_K@Z 000000018004a948     large_objects.obj
 0004:00000954       $pdata$?putList@?$LargeObjectCacheImpl@U?$LargeObjectCacheProps@$0CAAA@$0IAAAAA@$0CAAA@$01$01$0BA@@internal@rml@@@internal@rml@@QEAAXPEAUExtMemoryPool@23@PEAULargeMemoryBlock@23@@Z 000000018004a954     large_objects.obj
 0004:00000960       $pdata$?get@?$LargeObjectCacheImpl@U?$LargeObjectCacheProps@$0CAAA@$0IAAAAA@$0CAAA@$01$01$0BA@@internal@rml@@@internal@rml@@QEAAPEAULargeMemoryBlock@23@PEAUExtMemoryPool@23@_K@Z 000000018004a960     large_objects.obj
 0004:0000096c       $pdata$?updateCacheState@?$LargeObjectCacheImpl@U?$LargeObjectCacheProps@$0CAAA@$0IAAAAA@$0CAAA@$01$01$0BA@@internal@rml@@@internal@rml@@QEAAXPEAUExtMemoryPool@23@W4DecreaseOrIncrease@23@_K@Z 000000018004a96c     large_objects.obj
 0004:00000978       $pdata$?regularCleanup@?$LargeObjectCacheImpl@U?$LargeObjectCacheProps@$0CAAA@$0IAAAAA@$0CAAA@$01$01$0BA@@internal@rml@@@internal@rml@@QEAA_NPEAUExtMemoryPool@23@_K_N@Z 000000018004a978     large_objects.obj
 0004:00000984       $pdata$?cleanAll@?$LargeObjectCacheImpl@U?$LargeObjectCacheProps@$0CAAA@$0IAAAAA@$0CAAA@$01$01$0BA@@internal@rml@@@internal@rml@@QEAA_NPEAUExtMemoryPool@23@@Z 000000018004a984     large_objects.obj
 0004:00000990       $pdata$?isCleanupNeededOnRange@LargeObjectCache@internal@rml@@QEAA_N_K0@Z 000000018004a990     large_objects.obj
 0004:0000099c       $pdata$?getCurrTimeRange@LargeObjectCache@internal@rml@@QEAA_K_K@Z 000000018004a99c     large_objects.obj
 0004:000009a8       $pdata$?isInvalid@BackRefIdx@internal@rml@@QEBA_NXZ 000000018004a9a8     large_objects.obj
 0004:000009b4       $pdata$?lessThanWithOverflow@internal@rml@@YA_N_J0@Z 000000018004a9b4     large_objects.obj
 0004:000009c0       $pdata$?isLOCTooLarge@BinsSummary@?$LargeObjectCacheImpl@U?$LargeObjectCacheProps@$0CAAA@$0IAAAAA@$0CAAA@$01$01$0BA@@internal@rml@@@internal@rml@@QEBA_NXZ 000000018004a9c0     large_objects.obj
 0004:000009cc       $pdata$?isLOCTooLarge@BinsSummary@?$LargeObjectCacheImpl@U?$LargeObjectCacheProps@$0IAAAAA@$0IBAAAAA@$0IAAAA@$00$00$03@internal@rml@@@internal@rml@@QEBA_NXZ 000000018004a9cc     large_objects.obj
 0004:000009d8       $pdata$??$?0UOpPutList@internal@rml@@@CacheBinOperation@internal@rml@@QEAA@AEAUOpPutList@12@W4CacheBinOperationStatus@12@@Z 000000018004a9d8     large_objects.obj
 0004:000009e4       $pdata$??$?0UOpGet@internal@rml@@@CacheBinOperation@internal@rml@@QEAA@AEAUOpGet@12@W4CacheBinOperationStatus@12@@Z 000000018004a9e4     large_objects.obj
 0004:000009f0       $pdata$??$?0UOpCleanToThreshold@internal@rml@@@CacheBinOperation@internal@rml@@QEAA@AEAUOpCleanToThreshold@12@W4CacheBinOperationStatus@12@@Z 000000018004a9f0     large_objects.obj
 0004:000009fc       $pdata$??$?0UOpCleanAll@internal@rml@@@CacheBinOperation@internal@rml@@QEAA@AEAUOpCleanAll@12@W4CacheBinOperationStatus@12@@Z 000000018004a9fc     large_objects.obj
 0004:00000a08       $pdata$??$?0UOpUpdateUsedSize@internal@rml@@@CacheBinOperation@internal@rml@@QEAA@AEAUOpUpdateUsedSize@12@W4CacheBinOperationStatus@12@@Z 000000018004aa08     large_objects.obj
 0004:00000a14       $pdata$??R?$CacheBinFunctor@U?$LargeObjectCacheProps@$0IAAAAA@$0IBAAAAA@$0IAAAA@$00$00$03@internal@rml@@@internal@rml@@QEAAXPEAUCacheBinOperation@12@@Z 000000018004aa14     large_objects.obj
 0004:00000a20       $pdata$??$execute@V?$CacheBinFunctor@U?$LargeObjectCacheProps@$0IAAAAA@$0IBAAAAA@$0IAAAA@$00$00$03@internal@rml@@@internal@rml@@@?$aggregator_generic@UCacheBinOperation@internal@rml@@@internal@interface6@tbb@@QEAAXPEAUCacheBinOperation@1rml@@AEAV?$CacheBinFunctor@U?$LargeObjectCacheProps@$0IAAAAA@$0IBAAAAA@$0IAAAA@$00$00$03@internal@rml@@@15@_N@Z 000000018004aa20     large_objects.obj
 0004:00000a2c       $pdata$??R?$CacheBinFunctor@U?$LargeObjectCacheProps@$0CAAA@$0IAAAAA@$0CAAA@$01$01$0BA@@internal@rml@@@internal@rml@@QEAAXPEAUCacheBinOperation@12@@Z 000000018004aa2c     large_objects.obj
 0004:00000a38       $pdata$??$execute@V?$CacheBinFunctor@U?$LargeObjectCacheProps@$0CAAA@$0IAAAAA@$0CAAA@$01$01$0BA@@internal@rml@@@internal@rml@@@?$aggregator_generic@UCacheBinOperation@internal@rml@@@internal@interface6@tbb@@QEAAXPEAUCacheBinOperation@1rml@@AEAV?$CacheBinFunctor@U?$LargeObjectCacheProps@$0CAAA@$0IAAAAA@$0CAAA@$01$01$0BA@@internal@rml@@@15@_N@Z 000000018004aa38     large_objects.obj
 0004:00000a44       $pdata$??$start_handle_operations@V?$CacheBinFunctor@U?$LargeObjectCacheProps@$0IAAAAA@$0IBAAAAA@$0IAAAA@$00$00$03@internal@rml@@@internal@rml@@@?$aggregator_generic@UCacheBinOperation@internal@rml@@@internal@interface6@tbb@@AEAAXAEAV?$CacheBinFunctor@U?$LargeObjectCacheProps@$0IAAAAA@$0IBAAAAA@$0IAAAA@$00$00$03@internal@rml@@@1rml@@@Z 000000018004aa44     large_objects.obj
 0004:00000a50       $pdata$??$spin_wait_while_eq@_K_K@internal@tbb@@YAXAED_K_K@Z 000000018004aa50     large_objects.obj
 0004:00000a5c       $pdata$??$itt_load_word_with_acquire@_K@internal@tbb@@YA_KAEA_K@Z 000000018004aa5c     large_objects.obj
 0004:00000a68       $pdata$??$start_handle_operations@V?$CacheBinFunctor@U?$LargeObjectCacheProps@$0CAAA@$0IAAAAA@$0CAAA@$01$01$0BA@@internal@rml@@@internal@rml@@@?$aggregator_generic@UCacheBinOperation@internal@rml@@@internal@interface6@tbb@@AEAAXAEAV?$CacheBinFunctor@U?$LargeObjectCacheProps@$0CAAA@$0IAAAAA@$0CAAA@$01$01$0BA@@internal@rml@@@1rml@@@Z 000000018004aa68     large_objects.obj
 0004:00000a74       $pdata$??$to_bits_ref@SEAUCacheBinOperation@internal@rml@@@?$atomic_impl@PEAUCacheBinOperation@internal@rml@@@internal@tbb@@CAAEA_JAEDSEAUCacheBinOperation@1rml@@@Z 000000018004aa74     large_objects.obj
 0004:00000a80       $pdata$??$to_value@PEAUCacheBinOperation@internal@rml@@@?$atomic_impl@PEAUCacheBinOperation@internal@rml@@@internal@tbb@@CAPEAUCacheBinOperation@1rml@@_J@Z 000000018004aa80     large_objects.obj
 0004:00000a8c       $pdata$??$compare_and_swap@$0A@@?$atomic_impl@PEAUCacheBinOperation@internal@rml@@@internal@tbb@@QEAAPEAUCacheBinOperation@1rml@@PEAU314@0@Z 000000018004aa8c     large_objects.obj
 0004:00000a98       $pdata$??$spin_wait_until_eq@_K_K@internal@tbb@@YAXAED_K_K@Z 000000018004aa98     large_objects.obj
 0004:00000aa4       $pdata$??$itt_store_word_with_release@_K@internal@tbb@@YAXAEA_K_K@Z 000000018004aaa4     large_objects.obj
 0004:00000ab0       $pdata$?compare_and_swap@?$atomic_traits@$07$0A@@internal@tbb@@SA_JPECX_J1@Z 000000018004aab0     large_objects.obj
 0004:00000abc       $pdata$?fetch_and_store@?$atomic_traits@$07$0A@@internal@tbb@@SA_JPECX_J@Z 000000018004aabc     large_objects.obj
 0004:00000ac8       $pdata$??$to_bits@PEAUCacheBinOperation@internal@rml@@@?$atomic_impl@PEAUCacheBinOperation@internal@rml@@@internal@tbb@@CA_JPEAUCacheBinOperation@1rml@@@Z 000000018004aac8     large_objects.obj
 0004:00000ad4       $pdata$??$fetch_and_store@$0A@@?$atomic_impl@PEAUCacheBinOperation@internal@rml@@@internal@tbb@@QEAAPEAUCacheBinOperation@1rml@@PEAU314@@Z 000000018004aad4     large_objects.obj
 0004:00000ae0       $pdata$?commitOperation@OperationPreprocessor@?$CacheBinFunctor@U?$LargeObjectCacheProps@$0IAAAAA@$0IBAAAAA@$0IAAAA@$00$00$03@internal@rml@@@internal@rml@@AEBAXPEAUCacheBinOperation@34@@Z 000000018004aae0     large_objects.obj
 0004:00000aec       $pdata$?getFromPutList@OperationPreprocessor@?$CacheBinFunctor@U?$LargeObjectCacheProps@$0IAAAAA@$0IBAAAAA@$0IAAAA@$00$00$03@internal@rml@@@internal@rml@@AEAA_NPEAUCacheBinOperation@34@_K@Z 000000018004aaec     large_objects.obj
 0004:00000af8       $pdata$?addToPutList@OperationPreprocessor@?$CacheBinFunctor@U?$LargeObjectCacheProps@$0IAAAAA@$0IBAAAAA@$0IAAAA@$00$00$03@internal@rml@@@internal@rml@@AEAAXPEAULargeMemoryBlock@34@0H@Z 000000018004aaf8     large_objects.obj
 0004:00000b04       $pdata$??ROperationPreprocessor@?$CacheBinFunctor@U?$LargeObjectCacheProps@$0IAAAAA@$0IBAAAAA@$0IAAAA@$00$00$03@internal@rml@@@internal@rml@@QEAAXPEAUCacheBinOperation@23@@Z 000000018004ab04     large_objects.obj
 0004:00000b10       $pdata$?commitOperation@OperationPreprocessor@?$CacheBinFunctor@U?$LargeObjectCacheProps@$0CAAA@$0IAAAAA@$0CAAA@$01$01$0BA@@internal@rml@@@internal@rml@@AEBAXPEAUCacheBinOperation@34@@Z 000000018004ab10     large_objects.obj
 0004:00000b1c       $pdata$?getFromPutList@OperationPreprocessor@?$CacheBinFunctor@U?$LargeObjectCacheProps@$0CAAA@$0IAAAAA@$0CAAA@$01$01$0BA@@internal@rml@@@internal@rml@@AEAA_NPEAUCacheBinOperation@34@_K@Z 000000018004ab1c     large_objects.obj
 0004:00000b28       $pdata$?addToPutList@OperationPreprocessor@?$CacheBinFunctor@U?$LargeObjectCacheProps@$0CAAA@$0IAAAAA@$0CAAA@$01$01$0BA@@internal@rml@@@internal@rml@@AEAAXPEAULargeMemoryBlock@34@0H@Z 000000018004ab28     large_objects.obj
 0004:00000b34       $pdata$??ROperationPreprocessor@?$CacheBinFunctor@U?$LargeObjectCacheProps@$0CAAA@$0IAAAAA@$0CAAA@$01$01$0BA@@internal@rml@@@internal@rml@@QEAAXPEAUCacheBinOperation@23@@Z 000000018004ab34     large_objects.obj
 0004:00000b40       $pdata$?__TBB_machine_cmpswp1@@YADPECXDD@Z 000000018004ab40     backref.obj
 0004:00000b4c       $pdata$?newBackRef@BackRefIdx@internal@rml@@SA?AV123@_N@Z 000000018004ab4c     backref.obj
 0004:00000b58       $pdata$?initBackRefMaster@internal@rml@@YA_NPEAVBackend@12@@Z 000000018004ab58     backref.obj
 0004:00000b64       $pdata$?destroyBackRefMaster@internal@rml@@YAXPEAVBackend@12@@Z 000000018004ab64     backref.obj
 0004:00000b70       $pdata$?removeBackRef@internal@rml@@YAXVBackRefIdx@12@@Z 000000018004ab70     backref.obj
 0004:00000b7c       $pdata$?setBackRef@internal@rml@@YAXVBackRefIdx@12@PEAX@Z 000000018004ab7c     backref.obj
 0004:00000b88       $pdata$?getBackRef@internal@rml@@YAPEAXVBackRefIdx@12@@Z 000000018004ab88     backref.obj
 0004:00000b94       $pdata$?findFreeBlock@BackRefMaster@internal@rml@@QEAAPEAUBackRefBlock@23@XZ 000000018004ab94     backref.obj
 0004:00000ba0       $pdata$?initEmptyBackRefBlock@BackRefMaster@internal@rml@@QEAAXPEAUBackRefBlock@23@@Z 000000018004aba0     backref.obj
 0004:00000bac       $pdata$?requestNewSpace@BackRefMaster@internal@rml@@QEAA_NXZ 000000018004abac     backref.obj
 0004:00000bb8       $pdata$??0MallocMutex@@QEAA@XZ 000000018004abb8     backref.obj
 0004:00000bc4       $pdata$?dtor$0@?0??newBackRef@BackRefIdx@internal@rml@@SA?AV123@_N@Z@4HA 000000018004abc4     backref.obj
 0004:00000bd0       $pdata$?dtor$0@?0??removeBackRef@internal@rml@@YAXVBackRefIdx@12@@Z@4HA 000000018004abd0     backref.obj
 0004:00000bdc       $pdata$?dtor$1@?0??removeBackRef@internal@rml@@YAXVBackRefIdx@12@@Z@4HA 000000018004abdc     backref.obj
 0004:00000be8       $pdata$?dtor$0@?0??findFreeBlock@BackRefMaster@internal@rml@@QEAAPEAUBackRefBlock@23@XZ@4HA 000000018004abe8     backref.obj
 0004:00000bf4       $pdata$?dtor$0@?0??requestNewSpace@BackRefMaster@internal@rml@@QEAA_NXZ@4HA 000000018004abf4     backref.obj
 0004:00000c00       $pdata$?dtor$1@?0??requestNewSpace@BackRefMaster@internal@rml@@QEAA_NXZ@4HA 000000018004ac00     backref.obj
 0004:00000c0c       $pdata$??0BackRefBlock@internal@rml@@QEAA@PEBU012@_J@Z 000000018004ac0c     backref.obj
 0004:00000c18       $pdata$?zeroSet@BackRefBlock@internal@rml@@QEAAXXZ 000000018004ac18     backref.obj
 0004:00000c24       $pdata$??__EmasterMutex@internal@rml@@YAXXZ 000000018004ac24     backref.obj
 0004:00000c30       $pdata$?set_assertion_handler@internal@rml@@YAP6AXPEBDH00@ZP6AX0H00@Z@Z 000000018004ac30     tbbmalloc.obj
 0004:00000c3c       $pdata$?assertion_failure@internal@rml@@YAXPEBDH00@Z 000000018004ac3c     tbbmalloc.obj
 0004:00000c48       $pdata$?init_tbbmalloc@internal@rml@@YAXXZ 000000018004ac48     tbbmalloc.obj
 0004:00000c54       $pdata$DllMain             000000018004ac54     tbbmalloc.obj
 0004:00000c60       $pdata$_vfprintf_l         000000018004ac60     tbbmalloc.obj
 0004:00000c6c       $pdata$fprintf             000000018004ac6c     tbbmalloc.obj
 0004:00000c78       $pdata$__itt_set_error_handler 000000018004ac78     itt_notify.obj
 0004:00000c84       $pdata$__itt_fini_ittlib   000000018004ac84     itt_notify.obj
 0004:00000c90       $pdata$?__itt_detach_init_3_0@@YAXXZ 000000018004ac90     itt_notify.obj
 0004:00000c9c       $pdata$?__itt_sync_createA_init_3_0@@YAXPEAXPEBD1H@Z 000000018004ac9c     itt_notify.obj
 0004:00000ca8       $pdata$?__itt_sync_createW_init_3_0@@YAXPEAXPEB_W1H@Z 000000018004aca8     itt_notify.obj
 0004:00000cb4       $pdata$?__itt_sync_renameA_init_3_0@@YAXPEAXPEBD@Z 000000018004acb4     itt_notify.obj
 0004:00000cc0       $pdata$?__itt_sync_renameW_init_3_0@@YAXPEAXPEB_W@Z 000000018004acc0     itt_notify.obj
 0004:00000ccc       $pdata$?__itt_sync_destroy_init_3_0@@YAXPEAX@Z 000000018004accc     itt_notify.obj
 0004:00000cd8       $pdata$?__itt_sync_prepare_init_3_0@@YAXPEAX@Z 000000018004acd8     itt_notify.obj
 0004:00000ce4       $pdata$?__itt_sync_cancel_init_3_0@@YAXPEAX@Z 000000018004ace4     itt_notify.obj
 0004:00000cf0       $pdata$?__itt_sync_acquired_init_3_0@@YAXPEAX@Z 000000018004acf0     itt_notify.obj
 0004:00000cfc       $pdata$?__itt_sync_releasing_init_3_0@@YAXPEAX@Z 000000018004acfc     itt_notify.obj
 0004:00000d08       $pdata$?__itt_suppress_push_init_3_0@@YAXI@Z 000000018004ad08     itt_notify.obj
 0004:00000d14       $pdata$?__itt_suppress_pop_init_3_0@@YAXXZ 000000018004ad14     itt_notify.obj
 0004:00000d20       $pdata$?__itt_suppress_mark_range_init_3_0@@YAXW4__itt_suppress_mode@@IPEAX_K@Z 000000018004ad20     itt_notify.obj
 0004:00000d2c       $pdata$?__itt_suppress_clear_range_init_3_0@@YAXW4__itt_suppress_mode@@IPEAX_K@Z 000000018004ad2c     itt_notify.obj
 0004:00000d38       $pdata$?__itt_fsync_prepare_init_3_0@@YAXPEAX@Z 000000018004ad38     itt_notify.obj
 0004:00000d44       $pdata$?__itt_fsync_cancel_init_3_0@@YAXPEAX@Z 000000018004ad44     itt_notify.obj
 0004:00000d50       $pdata$?__itt_fsync_acquired_init_3_0@@YAXPEAX@Z 000000018004ad50     itt_notify.obj
 0004:00000d5c       $pdata$?__itt_fsync_releasing_init_3_0@@YAXPEAX@Z 000000018004ad5c     itt_notify.obj
 0004:00000d68       $pdata$?__itt_model_site_begin_init_3_0@@YAXPEAPEAX0PEBD@Z 000000018004ad68     itt_notify.obj
 0004:00000d74       $pdata$?__itt_model_site_end_init_3_0@@YAXPEAPEAX0@Z 000000018004ad74     itt_notify.obj
 0004:00000d80       $pdata$?__itt_model_task_begin_init_3_0@@YAXPEAPEAX0PEBD@Z 000000018004ad80     itt_notify.obj
 0004:00000d8c       $pdata$?__itt_model_task_end_init_3_0@@YAXPEAPEAX0@Z 000000018004ad8c     itt_notify.obj
 0004:00000d98       $pdata$?__itt_model_lock_acquire_init_3_0@@YAXPEAX@Z 000000018004ad98     itt_notify.obj
 0004:00000da4       $pdata$?__itt_model_lock_release_init_3_0@@YAXPEAX@Z 000000018004ada4     itt_notify.obj
 0004:00000db0       $pdata$?__itt_model_record_allocation_init_3_0@@YAXPEAX_K@Z 000000018004adb0     itt_notify.obj
 0004:00000dbc       $pdata$?__itt_model_record_deallocation_init_3_0@@YAXPEAX@Z 000000018004adbc     itt_notify.obj
 0004:00000dc8       $pdata$?__itt_model_induction_uses_init_3_0@@YAXPEAX_K@Z 000000018004adc8     itt_notify.obj
 0004:00000dd4       $pdata$?__itt_model_reduction_uses_init_3_0@@YAXPEAX_K@Z 000000018004add4     itt_notify.obj
 0004:00000de0       $pdata$?__itt_model_observe_uses_init_3_0@@YAXPEAX_K@Z 000000018004ade0     itt_notify.obj
 0004:00000dec       $pdata$?__itt_model_clear_uses_init_3_0@@YAXPEAX@Z 000000018004adec     itt_notify.obj
 0004:00000df8       $pdata$?__itt_model_site_beginW_init_3_0@@YAXPEB_W@Z 000000018004adf8     itt_notify.obj
 0004:00000e04       $pdata$?__itt_model_task_beginW_init_3_0@@YAXPEB_W@Z 000000018004ae04     itt_notify.obj
 0004:00000e10       $pdata$?__itt_model_iteration_taskW_init_3_0@@YAXPEB_W@Z 000000018004ae10     itt_notify.obj
 0004:00000e1c       $pdata$?__itt_model_site_beginA_init_3_0@@YAXPEBD@Z 000000018004ae1c     itt_notify.obj
 0004:00000e28       $pdata$?__itt_model_site_beginAL_init_3_0@@YAXPEBD_K@Z 000000018004ae28     itt_notify.obj
 0004:00000e34       $pdata$?__itt_model_task_beginA_init_3_0@@YAXPEBD@Z 000000018004ae34     itt_notify.obj
 0004:00000e40       $pdata$?__itt_model_task_beginAL_init_3_0@@YAXPEBD_K@Z 000000018004ae40     itt_notify.obj
 0004:00000e4c       $pdata$?__itt_model_iteration_taskA_init_3_0@@YAXPEBD@Z 000000018004ae4c     itt_notify.obj
 0004:00000e58       $pdata$?__itt_model_iteration_taskAL_init_3_0@@YAXPEBD_K@Z 000000018004ae58     itt_notify.obj
 0004:00000e64       $pdata$?__itt_model_site_end_2_init_3_0@@YAXXZ 000000018004ae64     itt_notify.obj
 0004:00000e70       $pdata$?__itt_model_task_end_2_init_3_0@@YAXXZ 000000018004ae70     itt_notify.obj
 0004:00000e7c       $pdata$?__itt_model_lock_acquire_2_init_3_0@@YAXPEAX@Z 000000018004ae7c     itt_notify.obj
 0004:00000e88       $pdata$?__itt_model_lock_release_2_init_3_0@@YAXPEAX@Z 000000018004ae88     itt_notify.obj
 0004:00000e94       $pdata$?__itt_model_aggregate_task_init_3_0@@YAX_K@Z 000000018004ae94     itt_notify.obj
 0004:00000ea0       $pdata$?__itt_model_disable_push_init_3_0@@YAXW4__itt_model_disable@@@Z 000000018004aea0     itt_notify.obj
 0004:00000eac       $pdata$?__itt_model_disable_pop_init_3_0@@YAXXZ 000000018004aeac     itt_notify.obj
 0004:00000eb8       $pdata$?__itt_heap_function_createA_init_3_0@@YAPEAXPEBD0@Z 000000018004aeb8     itt_notify.obj
 0004:00000ec4       $pdata$?__itt_heap_function_createW_init_3_0@@YAPEAXPEB_W0@Z 000000018004aec4     itt_notify.obj
 0004:00000ed0       $pdata$?__itt_heap_allocate_begin_init_3_0@@YAXPEAX_KH@Z 000000018004aed0     itt_notify.obj
 0004:00000edc       $pdata$?__itt_heap_allocate_end_init_3_0@@YAXPEAXPEAPEAX_KH@Z 000000018004aedc     itt_notify.obj
 0004:00000ee8       $pdata$?__itt_heap_free_begin_init_3_0@@YAXPEAX0@Z 000000018004aee8     itt_notify.obj
 0004:00000ef4       $pdata$?__itt_heap_free_end_init_3_0@@YAXPEAX0@Z 000000018004aef4     itt_notify.obj
 0004:00000f00       $pdata$?__itt_heap_reallocate_begin_init_3_0@@YAXPEAX0_KH@Z 000000018004af00     itt_notify.obj
 0004:00000f0c       $pdata$?__itt_heap_reallocate_end_init_3_0@@YAXPEAX0PEAPEAX_KH@Z 000000018004af0c     itt_notify.obj
 0004:00000f18       $pdata$?__itt_heap_internal_access_begin_init_3_0@@YAXXZ 000000018004af18     itt_notify.obj
 0004:00000f24       $pdata$?__itt_heap_internal_access_end_init_3_0@@YAXXZ 000000018004af24     itt_notify.obj
 0004:00000f30       $pdata$?__itt_heap_record_memory_growth_begin_init_3_0@@YAXXZ 000000018004af30     itt_notify.obj
 0004:00000f3c       $pdata$?__itt_heap_record_memory_growth_end_init_3_0@@YAXXZ 000000018004af3c     itt_notify.obj
 0004:00000f48       $pdata$?__itt_heap_reset_detection_init_3_0@@YAXI@Z 000000018004af48     itt_notify.obj
 0004:00000f54       $pdata$?__itt_heap_record_init_3_0@@YAXI@Z 000000018004af54     itt_notify.obj
 0004:00000f60       $pdata$?__itt_id_create_init_3_0@@YAXPEBU___itt_domain@@U___itt_id@@@Z 000000018004af60     itt_notify.obj
 0004:00000f6c       $pdata$?__itt_id_destroy_init_3_0@@YAXPEBU___itt_domain@@U___itt_id@@@Z 000000018004af6c     itt_notify.obj
 0004:00000f78       $pdata$?__itt_get_timestamp_init_3_0@@YA_KXZ 000000018004af78     itt_notify.obj
 0004:00000f84       $pdata$?__itt_region_begin_init_3_0@@YAXPEBU___itt_domain@@U___itt_id@@1PEAU___itt_string_handle@@@Z 000000018004af84     itt_notify.obj
 0004:00000f90       $pdata$?__itt_region_end_init_3_0@@YAXPEBU___itt_domain@@U___itt_id@@@Z 000000018004af90     itt_notify.obj
 0004:00000f9c       $pdata$?__itt_frame_begin_v3_init_3_0@@YAXPEBU___itt_domain@@PEAU___itt_id@@@Z 000000018004af9c     itt_notify.obj
 0004:00000fa8       $pdata$?__itt_frame_end_v3_init_3_0@@YAXPEBU___itt_domain@@PEAU___itt_id@@@Z 000000018004afa8     itt_notify.obj
 0004:00000fb4       $pdata$?__itt_frame_submit_v3_init_3_0@@YAXPEBU___itt_domain@@PEAU___itt_id@@_K2@Z 000000018004afb4     itt_notify.obj
 0004:00000fc0       $pdata$?__itt_task_group_init_3_0@@YAXPEBU___itt_domain@@U___itt_id@@1PEAU___itt_string_handle@@@Z 000000018004afc0     itt_notify.obj
 0004:00000fcc       $pdata$?__itt_task_begin_init_3_0@@YAXPEBU___itt_domain@@U___itt_id@@1PEAU___itt_string_handle@@@Z 000000018004afcc     itt_notify.obj
 0004:00000fd8       $pdata$?__itt_task_begin_fn_init_3_0@@YAXPEBU___itt_domain@@U___itt_id@@1PEAX@Z 000000018004afd8     itt_notify.obj
 0004:00000fe4       $pdata$?__itt_task_end_init_3_0@@YAXPEBU___itt_domain@@@Z 000000018004afe4     itt_notify.obj
 0004:00000ff0       $pdata$?__itt_counter_inc_v3_init_3_0@@YAXPEBU___itt_domain@@PEAU___itt_string_handle@@@Z 000000018004aff0     itt_notify.obj
 0004:00000ffc       $pdata$?__itt_counter_inc_delta_v3_init_3_0@@YAXPEBU___itt_domain@@PEAU___itt_string_handle@@_K@Z 000000018004affc     itt_notify.obj
 0004:00001008       $pdata$?__itt_marker_init_3_0@@YAXPEBU___itt_domain@@U___itt_id@@PEAU___itt_string_handle@@W4__itt_scope@@@Z 000000018004b008     itt_notify.obj
 0004:00001014       $pdata$?__itt_metadata_add_init_3_0@@YAXPEBU___itt_domain@@U___itt_id@@PEAU___itt_string_handle@@W4__itt_metadata_type@@_KPEAX@Z 000000018004b014     itt_notify.obj
 0004:00001020       $pdata$?__itt_metadata_str_addA_init_3_0@@YAXPEBU___itt_domain@@U___itt_id@@PEAU___itt_string_handle@@PEBD_K@Z 000000018004b020     itt_notify.obj
 0004:0000102c       $pdata$?__itt_metadata_str_addW_init_3_0@@YAXPEBU___itt_domain@@U___itt_id@@PEAU___itt_string_handle@@PEB_W_K@Z 000000018004b02c     itt_notify.obj
 0004:00001038       $pdata$?__itt_relation_add_to_current_init_3_0@@YAXPEBU___itt_domain@@W4__itt_relation@@U___itt_id@@@Z 000000018004b038     itt_notify.obj
 0004:00001044       $pdata$?__itt_relation_add_init_3_0@@YAXPEBU___itt_domain@@U___itt_id@@W4__itt_relation@@1@Z 000000018004b044     itt_notify.obj
 0004:00001050       $pdata$?__itt_event_createA_init_3_0@@YAHPEBDH@Z 000000018004b050     itt_notify.obj
 0004:0000105c       $pdata$?__itt_event_createW_init_3_0@@YAHPEB_WH@Z 000000018004b05c     itt_notify.obj
 0004:00001068       $pdata$?__itt_event_start_init_3_0@@YAHH@Z 000000018004b068     itt_notify.obj
 0004:00001074       $pdata$?__itt_event_end_init_3_0@@YAHH@Z 000000018004b074     itt_notify.obj
 0004:00001080       $pdata$?__itt_sync_set_nameA_init_3_0@@YAXPEAXPEBD1H@Z 000000018004b080     itt_notify.obj
 0004:0000108c       $pdata$?__itt_sync_set_nameW_init_3_0@@YAXPEAXPEB_W1H@Z 000000018004b08c     itt_notify.obj
 0004:00001098       $pdata$?__itt_notify_sync_nameA_init_3_0@@YAHPEAXPEBDH1HH@Z 000000018004b098     itt_notify.obj
 0004:000010a4       $pdata$?__itt_notify_sync_nameW_init_3_0@@YAHPEAXPEB_WH1HH@Z 000000018004b0a4     itt_notify.obj
 0004:000010b0       $pdata$?__itt_notify_sync_prepare_init_3_0@@YAXPEAX@Z 000000018004b0b0     itt_notify.obj
 0004:000010bc       $pdata$?__itt_notify_sync_cancel_init_3_0@@YAXPEAX@Z 000000018004b0bc     itt_notify.obj
 0004:000010c8       $pdata$?__itt_notify_sync_acquired_init_3_0@@YAXPEAX@Z 000000018004b0c8     itt_notify.obj
 0004:000010d4       $pdata$?__itt_notify_sync_releasing_init_3_0@@YAXPEAX@Z 000000018004b0d4     itt_notify.obj
 0004:000010e0       $pdata$?__itt_memory_read_init_3_0@@YAXPEAX_K@Z 000000018004b0e0     itt_notify.obj
 0004:000010ec       $pdata$?__itt_memory_write_init_3_0@@YAXPEAX_K@Z 000000018004b0ec     itt_notify.obj
 0004:000010f8       $pdata$?__itt_memory_update_init_3_0@@YAXPEAX_K@Z 000000018004b0f8     itt_notify.obj
 0004:00001104       $pdata$?__itt_state_get_init_3_0@@YAHXZ 000000018004b104     itt_notify.obj
 0004:00001110       $pdata$?__itt_state_set_init_3_0@@YAHH@Z 000000018004b110     itt_notify.obj
 0004:0000111c       $pdata$?__itt_obj_mode_set_init_3_0@@YA?AW4__itt_obj_state@@W4__itt_obj_prop@@W41@@Z 000000018004b11c     itt_notify.obj
 0004:00001128       $pdata$?__itt_thr_mode_set_init_3_0@@YA?AW4__itt_thr_state@@W4__itt_thr_prop@@W41@@Z 000000018004b128     itt_notify.obj
 0004:00001134       $pdata$?__itt_frame_createA_init_3_0@@YAPEAU__itt_frame_t@@PEBD@Z 000000018004b134     itt_notify.obj
 0004:00001140       $pdata$?__itt_frame_createW_init_3_0@@YAPEAU__itt_frame_t@@PEB_W@Z 000000018004b140     itt_notify.obj
 0004:0000114c       $pdata$?__itt_frame_begin_init_3_0@@YAXPEAU__itt_frame_t@@@Z 000000018004b14c     itt_notify.obj
 0004:00001158       $pdata$?__itt_frame_end_init_3_0@@YAXPEAU__itt_frame_t@@@Z 000000018004b158     itt_notify.obj
 0004:00001164       $pdata$?__itt_counter_createA_init_3_0@@YAPEAU___itt_counter@@PEBD0@Z 000000018004b164     itt_notify.obj
 0004:00001170       $pdata$?__itt_counter_createW_init_3_0@@YAPEAU___itt_counter@@PEB_W0@Z 000000018004b170     itt_notify.obj
 0004:0000117c       $pdata$?__itt_counter_destroy_init_3_0@@YAXPEAU___itt_counter@@@Z 000000018004b17c     itt_notify.obj
 0004:00001188       $pdata$?__itt_counter_inc_init_3_0@@YAXPEAU___itt_counter@@@Z 000000018004b188     itt_notify.obj
 0004:00001194       $pdata$?__itt_counter_inc_delta_init_3_0@@YAXPEAU___itt_counter@@_K@Z 000000018004b194     itt_notify.obj
 0004:000011a0       $pdata$?__itt_mark_createA_init_3_0@@YAHPEBD@Z 000000018004b1a0     itt_notify.obj
 0004:000011ac       $pdata$?__itt_mark_createW_init_3_0@@YAHPEB_W@Z 000000018004b1ac     itt_notify.obj
 0004:000011b8       $pdata$?__itt_markA_init_3_0@@YAHHPEBD@Z 000000018004b1b8     itt_notify.obj
 0004:000011c4       $pdata$?__itt_markW_init_3_0@@YAHHPEB_W@Z 000000018004b1c4     itt_notify.obj
 0004:000011d0       $pdata$?__itt_mark_off_init_3_0@@YAHH@Z 000000018004b1d0     itt_notify.obj
 0004:000011dc       $pdata$?__itt_mark_globalA_init_3_0@@YAHHPEBD@Z 000000018004b1dc     itt_notify.obj
 0004:000011e8       $pdata$?__itt_mark_globalW_init_3_0@@YAHHPEB_W@Z 000000018004b1e8     itt_notify.obj
 0004:000011f4       $pdata$?__itt_mark_global_off_init_3_0@@YAHH@Z 000000018004b1f4     itt_notify.obj
 0004:00001200       $pdata$?__itt_stack_caller_create_init_3_0@@YAPEAU___itt_caller@@XZ 000000018004b200     itt_notify.obj
 0004:0000120c       $pdata$?__itt_stack_caller_destroy_init_3_0@@YAXPEAU___itt_caller@@@Z 000000018004b20c     itt_notify.obj
 0004:00001218       $pdata$?__itt_stack_callee_enter_init_3_0@@YAXPEAU___itt_caller@@@Z 000000018004b218     itt_notify.obj
 0004:00001224       $pdata$?__itt_stack_callee_leave_init_3_0@@YAXPEAU___itt_caller@@@Z 000000018004b224     itt_notify.obj
 0004:00001230       $pdata$?__itt_clock_domain_create_init_3_0@@YAPEAU___itt_clock_domain@@P6AXPEAU___itt_clock_info@@PEAX@Z1@Z 000000018004b230     itt_notify.obj
 0004:0000123c       $pdata$?__itt_clock_domain_reset_init_3_0@@YAXXZ 000000018004b23c     itt_notify.obj
 0004:00001248       $pdata$?__itt_id_create_ex_init_3_0@@YAXPEBU___itt_domain@@PEAU___itt_clock_domain@@_KU___itt_id@@@Z 000000018004b248     itt_notify.obj
 0004:00001254       $pdata$?__itt_id_destroy_ex_init_3_0@@YAXPEBU___itt_domain@@PEAU___itt_clock_domain@@_KU___itt_id@@@Z 000000018004b254     itt_notify.obj
 0004:00001260       $pdata$?__itt_task_begin_ex_init_3_0@@YAXPEBU___itt_domain@@PEAU___itt_clock_domain@@_KU___itt_id@@3PEAU___itt_string_handle@@@Z 000000018004b260     itt_notify.obj
 0004:0000126c       $pdata$?__itt_task_begin_fn_ex_init_3_0@@YAXPEBU___itt_domain@@PEAU___itt_clock_domain@@_KU___itt_id@@3PEAX@Z 000000018004b26c     itt_notify.obj
 0004:00001278       $pdata$?__itt_task_end_ex_init_3_0@@YAXPEBU___itt_domain@@PEAU___itt_clock_domain@@_K@Z 000000018004b278     itt_notify.obj
 0004:00001284       $pdata$?__itt_task_begin_overlapped_init_3_0@@YAXPEBU___itt_domain@@U___itt_id@@1PEAU___itt_string_handle@@@Z 000000018004b284     itt_notify.obj
 0004:00001290       $pdata$?__itt_task_begin_overlapped_ex_init_3_0@@YAXPEBU___itt_domain@@PEAU___itt_clock_domain@@_KU___itt_id@@3PEAU___itt_string_handle@@@Z 000000018004b290     itt_notify.obj
 0004:0000129c       $pdata$?__itt_task_end_overlapped_init_3_0@@YAXPEBU___itt_domain@@U___itt_id@@@Z 000000018004b29c     itt_notify.obj
 0004:000012a8       $pdata$?__itt_task_end_overlapped_ex_init_3_0@@YAXPEBU___itt_domain@@PEAU___itt_clock_domain@@_KU___itt_id@@@Z 000000018004b2a8     itt_notify.obj
 0004:000012b4       $pdata$?__itt_marker_ex_init_3_0@@YAXPEBU___itt_domain@@PEAU___itt_clock_domain@@_KU___itt_id@@PEAU___itt_string_handle@@W4__itt_scope@@@Z 000000018004b2b4     itt_notify.obj
 0004:000012c0       $pdata$?__itt_metadata_add_with_scope_init_3_0@@YAXPEBU___itt_domain@@W4__itt_scope@@PEAU___itt_string_handle@@W4__itt_metadata_type@@_KPEAX@Z 000000018004b2c0     itt_notify.obj
 0004:000012cc       $pdata$?__itt_metadata_str_add_with_scopeA_init_3_0@@YAXPEBU___itt_domain@@W4__itt_scope@@PEAU___itt_string_handle@@PEBD_K@Z 000000018004b2cc     itt_notify.obj
 0004:000012d8       $pdata$?__itt_metadata_str_add_with_scopeW_init_3_0@@YAXPEBU___itt_domain@@W4__itt_scope@@PEAU___itt_string_handle@@PEB_W_K@Z 000000018004b2d8     itt_notify.obj
 0004:000012e4       $pdata$?__itt_relation_add_to_current_ex_init_3_0@@YAXPEBU___itt_domain@@PEAU___itt_clock_domain@@_KW4__itt_relation@@U___itt_id@@@Z 000000018004b2e4     itt_notify.obj
 0004:000012f0       $pdata$?__itt_relation_add_ex_init_3_0@@YAXPEBU___itt_domain@@PEAU___itt_clock_domain@@_KU___itt_id@@W4__itt_relation@@3@Z 000000018004b2f0     itt_notify.obj
 0004:000012fc       $pdata$?__itt_track_group_create_init_3_0@@YAPEAU___itt_track_group@@PEAU___itt_string_handle@@W4___itt_track_group_type@@@Z 000000018004b2fc     itt_notify.obj
 0004:00001308       $pdata$?__itt_track_create_init_3_0@@YAPEAU___itt_track@@PEAU___itt_track_group@@PEAU___itt_string_handle@@W4___itt_track_type@@@Z 000000018004b308     itt_notify.obj
 0004:00001314       $pdata$?__itt_set_track_init_3_0@@YAXPEAU___itt_track@@@Z 000000018004b314     itt_notify.obj
 0004:00001320       $pdata$?__itt_api_version_init_3_0@@YAPEBDXZ 000000018004b320     itt_notify.obj
 0004:0000132c       $pdata$?__itt_av_saveA_init_3_0@@YAHPEAXHPEBHHPEBDH@Z 000000018004b32c     itt_notify.obj
 0004:00001338       $pdata$?__itt_av_saveW_init_3_0@@YAHPEAXHPEBHHPEB_WH@Z 000000018004b338     itt_notify.obj
 0004:00001344       $pdata$?__itt_domain_createA_init_3_0@@YAPEAU___itt_domain@@PEBD@Z 000000018004b344     itt_notify.obj
 0004:00001350       $pdata$?__itt_domain_createW_init_3_0@@YAPEAU___itt_domain@@PEB_W@Z 000000018004b350     itt_notify.obj
 0004:0000135c       $pdata$?__itt_string_handle_createA_init_3_0@@YAPEAU___itt_string_handle@@PEBD@Z 000000018004b35c     itt_notify.obj
 0004:00001368       $pdata$?__itt_string_handle_createW_init_3_0@@YAPEAU___itt_string_handle@@PEB_W@Z 000000018004b368     itt_notify.obj
 0004:00001374       $pdata$?__itt_pause_init_3_0@@YAXXZ 000000018004b374     itt_notify.obj
 0004:00001380       $pdata$?__itt_resume_init_3_0@@YAXXZ 000000018004b380     itt_notify.obj
 0004:0000138c       $pdata$?__itt_thread_set_nameA_init_3_0@@YAXPEBD@Z 000000018004b38c     itt_notify.obj
 0004:00001398       $pdata$?__itt_thread_set_nameW_init_3_0@@YAXPEB_W@Z 000000018004b398     itt_notify.obj
 0004:000013a4       $pdata$?__itt_thread_ignore_init_3_0@@YAXXZ 000000018004b3a4     itt_notify.obj
 0004:000013b0       $pdata$?__itt_thr_name_setA_init_3_0@@YAHPEBDH@Z 000000018004b3b0     itt_notify.obj
 0004:000013bc       $pdata$?__itt_thr_name_setW_init_3_0@@YAHPEB_WH@Z 000000018004b3bc     itt_notify.obj
 0004:000013c8       $pdata$?__itt_thr_ignore_init_3_0@@YAXXZ 000000018004b3c8     itt_notify.obj
 0004:000013d4       $pdata$?__itt_report_error_impl@@YAXHZZ 000000018004b3d4     itt_notify.obj
 0004:000013e0       $pdata$?__itt_fsplit@@YAPEBDPEBD0PEAPEBDPEAH@Z 000000018004b3e0     itt_notify.obj
 0004:000013ec       $pdata$?__itt_get_env_var@@YAPEBDPEBD@Z 000000018004b3ec     itt_notify.obj
 0004:000013f8       $pdata$?__itt_get_lib_name@@YAPEBDXZ 000000018004b3f8     itt_notify.obj
 0004:00001404       $pdata$?__itt_get_groups@@YA?AW4___itt_group_id@@XZ 000000018004b404     itt_notify.obj
 0004:00001410       $pdata$?__itt_lib_version@@YAHPEAUHINSTANCE__@@@Z 000000018004b410     itt_notify.obj
 0004:0000141c       $pdata$?__itt_nullify_all_pointers@@YAXXZ 000000018004b41c     itt_notify.obj
 0004:00001428       $pdata$__itt_init_ittlib   000000018004b428     itt_notify.obj
 0004:00001434       $pdata$?__TBB_load_ittnotify@internal@tbb@@YAHXZ 000000018004b434     itt_notify.obj
 0004:00001440       $pdata$??_H@YAXPEAX_K1P6APEAX0@Z@Z 000000018004b440     frontend.obj
 0004:0000144c       $pdata$?__TBB_machine_cmpswp1@@YADPECXDD@Z 000000018004b44c     frontend.obj
 0004:00001458       $pdata$?__TBB_machine_cmpswp8@@YA_JPECX_J1@Z 000000018004b458     frontend.obj
 0004:00001464       $pdata$?isPowerOfTwo@@YA_N_K@Z 000000018004b464     frontend.obj
 0004:00001470       $pdata$?isPowerOfTwoAtLeast@@YA_N_K0@Z 000000018004b470     frontend.obj
 0004:0000147c       $pdata$scalable_malloc     000000018004b47c     frontend.obj
 0004:00001488       $pdata$scalable_calloc     000000018004b488     frontend.obj
 0004:00001494       $pdata$scalable_free       000000018004b494     frontend.obj
 0004:000014a0       $pdata$scalable_realloc    000000018004b4a0     frontend.obj
 0004:000014ac       $pdata$scalable_aligned_malloc 000000018004b4ac     frontend.obj
 0004:000014b8       $pdata$scalable_aligned_realloc 000000018004b4b8     frontend.obj
 0004:000014c4       $pdata$scalable_posix_memalign 000000018004b4c4     frontend.obj
 0004:000014d0       $pdata$scalable_msize      000000018004b4d0     frontend.obj
 0004:000014dc       $pdata$__TBB_malloc_safer_free 000000018004b4dc     frontend.obj
 0004:000014e8       $pdata$__TBB_malloc_safer_realloc 000000018004b4e8     frontend.obj
 0004:000014f4       $pdata$__TBB_malloc_safer_aligned_realloc 000000018004b4f4     frontend.obj
 0004:00001500       $pdata$__TBB_malloc_safer_msize 000000018004b500     frontend.obj
 0004:0000150c       $pdata$__TBB_malloc_safer_aligned_msize 000000018004b50c     frontend.obj
 0004:00001518       $pdata$scalable_aligned_free 000000018004b518     frontend.obj
 0004:00001524       $pdata$scalable_allocation_mode 000000018004b524     frontend.obj
 0004:00001530       $pdata$scalable_allocation_command 000000018004b530     frontend.obj
 0004:0000153c       $pdata$?pool_create_v1@rml@@YA?AW4MemPoolError@1@_JPEBUMemPoolPolicy@1@PEAPEAVMemoryPool@1@@Z 000000018004b53c     frontend.obj
 0004:00001548       $pdata$?pool_destroy@rml@@YA_NPEAVMemoryPool@1@@Z 000000018004b548     frontend.obj
 0004:00001554       $pdata$?pool_malloc@rml@@YAPEAXPEAVMemoryPool@1@_K@Z 000000018004b554     frontend.obj
 0004:00001560       $pdata$?pool_realloc@rml@@YAPEAXPEAVMemoryPool@1@PEAX_K@Z 000000018004b560     frontend.obj
 0004:0000156c       $pdata$?pool_aligned_malloc@rml@@YAPEAXPEAVMemoryPool@1@_K1@Z 000000018004b56c     frontend.obj
 0004:00001578       $pdata$?pool_aligned_realloc@rml@@YAPEAXPEAVMemoryPool@1@PEAX_K2@Z 000000018004b578     frontend.obj
 0004:00001584       $pdata$?pool_reset@rml@@YA_NPEAVMemoryPool@1@@Z 000000018004b584     frontend.obj
 0004:00001590       $pdata$?pool_free@rml@@YA_NPEAVMemoryPool@1@PEAX@Z 000000018004b590     frontend.obj
 0004:0000159c       $pdata$?pool_identify@rml@@YAPEAVMemoryPool@1@PEAX@Z 000000018004b59c     frontend.obj
 0004:000015a8       $pdata$?pool_msize@rml@@YA_KPEAVMemoryPool@1@PEAX@Z 000000018004b5a8     frontend.obj
 0004:000015b4       $pdata$__TBB_mallocProcessShutdownNotification 000000018004b5b4     frontend.obj
 0004:000015c0       $pdata$__TBB_mallocThreadShutdownNotification 000000018004b5c0     frontend.obj
 0004:000015cc       $pdata$?init@TLSKey@internal@rml@@QEAA_NXZ 000000018004b5cc     frontend.obj
 0004:000015d8       $pdata$?destroy@TLSKey@internal@rml@@QEAA_NXZ 000000018004b5d8     frontend.obj
 0004:000015e4       $pdata$?createTLS@TLSKey@internal@rml@@QEAAPEAVTLSData@23@PEAVMemoryPool@23@PEAVBackend@23@@Z 000000018004b5e4     frontend.obj
 0004:000015f0       $pdata$?registerThread@AllLocalCaches@internal@rml@@QEAAXPEAUTLSRemote@23@@Z 000000018004b5f0     frontend.obj
 0004:000015fc       $pdata$?unregisterThread@AllLocalCaches@internal@rml@@QEAAXPEAUTLSRemote@23@@Z 000000018004b5fc     frontend.obj
 0004:00001608       $pdata$?cleanup@AllLocalCaches@internal@rml@@QEAA_NPEAUExtMemoryPool@23@_N@Z 000000018004b608     frontend.obj
 0004:00001614       $pdata$?markUnused@AllLocalCaches@internal@rml@@QEAAXXZ 000000018004b614     frontend.obj
 0004:00001620       $pdata$?get@OrphanedBlocks@internal@rml@@QEAAPEAVBlock@23@PEAVTLSData@23@I@Z 000000018004b620     frontend.obj
 0004:0000162c       $pdata$?put@OrphanedBlocks@internal@rml@@QEAAX_JPEAVBlock@23@@Z 000000018004b62c     frontend.obj
 0004:00001638       $pdata$?reset@OrphanedBlocks@internal@rml@@QEAAXXZ 000000018004b638     frontend.obj
 0004:00001644       $pdata$?cleanup@OrphanedBlocks@internal@rml@@QEAA_NPEAVBackend@23@@Z 000000018004b644     frontend.obj
 0004:00001650       $pdata$??$isAligned@VBlockI@internal@rml@@@@YA_NPEAVBlockI@internal@rml@@_K@Z 000000018004b650     frontend.obj
 0004:0000165c       $pdata$?initReadEnv@AllocControlledMode@internal@rml@@QEAAXPEBD_J@Z 000000018004b65c     frontend.obj
 0004:00001668       $pdata$?init@ExtMemoryPool@internal@rml@@QEAA_N_JP6APEAX0AEA_K@ZP6AH0PEAX_K@Z4_N6@Z 000000018004b668     frontend.obj
 0004:00001674       $pdata$?initTLS@ExtMemoryPool@internal@rml@@QEAA_NXZ 000000018004b674     frontend.obj
 0004:00001680       $pdata$?releaseAllLocalCaches@ExtMemoryPool@internal@rml@@QEAA_NXZ 000000018004b680     frontend.obj
 0004:0000168c       $pdata$?isMallocInitializedExt@internal@rml@@YA_NXZ 000000018004b68c     frontend.obj
 0004:00001698       $pdata$?GetBoolEnvironmentVariable@internal@tbb@@YA_NPEBD@Z 000000018004b698     frontend.obj
 0004:000016a4       $pdata$?allocate@BootStrapBlocks@internal@rml@@QEAAPEAXPEAVMemoryPool@23@_K@Z 000000018004b6a4     frontend.obj
 0004:000016b0       $pdata$?free@BootStrapBlocks@internal@rml@@QEAAXPEAX@Z 000000018004b6b0     frontend.obj
 0004:000016bc       $pdata$?initDefaultPool@MemoryPool@internal@rml@@SAXXZ 000000018004b6bc     frontend.obj
 0004:000016c8       $pdata$?init@MemoryPool@internal@rml@@QEAA_N_JPEBUMemPoolPolicy@3@@Z 000000018004b6c8     frontend.obj
 0004:000016d4       $pdata$?reset@MemoryPool@internal@rml@@QEAA_NXZ 000000018004b6d4     frontend.obj
 0004:000016e0       $pdata$?destroy@MemoryPool@internal@rml@@QEAA_NXZ 000000018004b6e0     frontend.obj
 0004:000016ec       $pdata$?onThreadShutdown@MemoryPool@internal@rml@@QEAAXPEAVTLSData@23@@Z 000000018004b6ec     frontend.obj
 0004:000016f8       $pdata$?getEmptyBlock@MemoryPool@internal@rml@@QEAAPEAVBlock@23@_K@Z 000000018004b6f8     frontend.obj
 0004:00001704       $pdata$?returnEmptyBlock@MemoryPool@internal@rml@@QEAAXPEAVBlock@23@_N@Z 000000018004b704     frontend.obj
 0004:00001710       $pdata$?getFromLLOCache@MemoryPool@internal@rml@@QEAAPEAXPEAVTLSData@23@_K1@Z 000000018004b710     frontend.obj
 0004:0000171c       $pdata$?putToLLOCache@MemoryPool@internal@rml@@QEAAXPEAVTLSData@23@PEAX@Z 000000018004b71c     frontend.obj
 0004:00001728       $pdata$?freePublicObject@Block@internal@rml@@QEAAXPEAUFreeObject@23@@Z 000000018004b728     frontend.obj
 0004:00001734       $pdata$?reset@Block@internal@rml@@QEAAXXZ 000000018004b734     frontend.obj
 0004:00001740       $pdata$?privatizePublicFreeList@Block@internal@rml@@QEAAX_N@Z 000000018004b740     frontend.obj
 0004:0000174c       $pdata$?restoreBumpPtr@Block@internal@rml@@QEAAXXZ 000000018004b74c     frontend.obj
 0004:00001758       $pdata$?privatizeOrphaned@Block@internal@rml@@QEAAXPEAVTLSData@23@I@Z 000000018004b758     frontend.obj
 0004:00001764       $pdata$?shareOrphaned@Block@internal@rml@@QEAAX_JI@Z 000000018004b764     frontend.obj
 0004:00001770       $pdata$?initEmptyBlock@Block@internal@rml@@QEAAXPEAVTLSData@23@_K@Z 000000018004b770     frontend.obj
 0004:0000177c       $pdata$?findObjectSize@Block@internal@rml@@QEBA_KPEAX@Z 000000018004b77c     frontend.obj
 0004:00001788       $pdata$??$isAligned@$$CBX@@YA_NPEBX_K@Z 000000018004b788     frontend.obj
 0004:00001794       $pdata$?getPublicFreeListBlock@Bin@internal@rml@@QEAAPEAVBlock@23@XZ 000000018004b794     frontend.obj
 0004:000017a0       $pdata$?moveBlockToFront@Bin@internal@rml@@QEAAXPEAVBlock@23@@Z 000000018004b7a0     frontend.obj
 0004:000017ac       $pdata$?processLessUsedBlock@Bin@internal@rml@@QEAAXPEAVMemoryPool@23@PEAVBlock@23@@Z 000000018004b7ac     frontend.obj
 0004:000017b8       $pdata$?outofTLSBin@Bin@internal@rml@@QEAAXPEAVBlock@23@@Z 000000018004b7b8     frontend.obj
 0004:000017c4       $pdata$?verifyTLSBin@Bin@internal@rml@@QEBAX_K@Z 000000018004b7c4     frontend.obj
 0004:000017d0       $pdata$?pushTLSBin@Bin@internal@rml@@QEAAXPEAVBlock@23@@Z 000000018004b7d0     frontend.obj
 0004:000017dc       $pdata$?getBlock@FreeBlockPool@internal@rml@@QEAA?AVResOfGet@123@XZ 000000018004b7dc     frontend.obj
 0004:000017e8       $pdata$?returnBlock@FreeBlockPool@internal@rml@@QEAAXPEAVBlock@23@@Z 000000018004b7e8     frontend.obj
 0004:000017f4       $pdata$?externalCleanup@FreeBlockPool@internal@rml@@QEAA_NXZ 000000018004b7f4     frontend.obj
 0004:00001800       $pdata$?release@TLSData@internal@rml@@QEAAXPEAVMemoryPool@23@@Z 000000018004b800     frontend.obj
 0004:0000180c       $pdata$?cleanUnusedActiveBlocks@TLSData@internal@rml@@QEAA_NPEAVBackend@23@_N@Z 000000018004b80c     frontend.obj
 0004:00001818       $pdata$?internalMalloc@internal@rml@@YAPEAX_K@Z 000000018004b818     frontend.obj
 0004:00001824       $pdata$?internalFree@internal@rml@@YAXPEAX@Z 000000018004b824     frontend.obj
 0004:00001830       $pdata$?internalPoolMalloc@internal@rml@@YAPEAXPEAVMemoryPool@12@_K@Z 000000018004b830     frontend.obj
 0004:0000183c       $pdata$?internalPoolFree@internal@rml@@YA_NPEAVMemoryPool@12@PEAX_K@Z 000000018004b83c     frontend.obj
 0004:00001848       $pdata$?highestBitPos@internal@rml@@YAII@Z 000000018004b848     frontend.obj
 0004:00001854       $pdata$??$getSmallObjectIndex@$0A@@internal@rml@@YAII@Z 000000018004b854     frontend.obj
 0004:00001860       $pdata$?getIndex@internal@rml@@YAII@Z 000000018004b860     frontend.obj
 0004:0000186c       $pdata$??$getIndexOrObjectSize@$00@internal@rml@@YAII@Z 000000018004b86c     frontend.obj
 0004:00001878       $pdata$?getObjectSize@internal@rml@@YAII@Z 000000018004b878     frontend.obj
 0004:00001884       $pdata$??$getIndexOrObjectSize@$0A@@internal@rml@@YAII@Z 000000018004b884     frontend.obj
 0004:00001890       $pdata$??$isAligned@UFreeObject@internal@rml@@@@YA_NPEAUFreeObject@internal@rml@@_K@Z 000000018004b890     frontend.obj
 0004:0000189c       $pdata$MallocInitializeITT 000000018004b89c     frontend.obj
 0004:000018a8       $pdata$?initMemoryManager@internal@rml@@YA_NXZ 000000018004b8a8     frontend.obj
 0004:000018b4       $pdata$??$isAligned@VMemoryPool@internal@rml@@@@YA_NPEAVMemoryPool@internal@rml@@_K@Z 000000018004b8b4     frontend.obj
 0004:000018c0       $pdata$?GetBoolEnvironmentVariable@internal@rml@@YA_NPEBD@Z 000000018004b8c0     frontend.obj
 0004:000018cc       $pdata$?doInitialization@internal@rml@@YA_NXZ 000000018004b8cc     frontend.obj
 0004:000018d8       $pdata$??$isAligned@X@@YA_NPEAX_K@Z 000000018004b8d8     frontend.obj
 0004:000018e4       $pdata$?allocateAligned@internal@rml@@YAPEAXPEAVMemoryPool@12@_K1@Z 000000018004b8e4     frontend.obj
 0004:000018f0       $pdata$?reallocAligned@internal@rml@@YAPEAXPEAVMemoryPool@12@PEAX_K2@Z 000000018004b8f0     frontend.obj
 0004:000018fc       $pdata$?safer_dereference@internal@rml@@YA?AVBackRefIdx@12@PEBV312@@Z 000000018004b8fc     frontend.obj
 0004:00001908       $pdata$?isSmallObject@internal@rml@@YA_NPEAX@Z 000000018004b908     frontend.obj
 0004:00001914       $pdata$?isRecognized@internal@rml@@YA_NPEAX@Z 000000018004b914     frontend.obj
 0004:00001920       $pdata$?freeSmallObject@internal@rml@@YAXPEAX@Z 000000018004b920     frontend.obj
 0004:0000192c       $pdata$?internalMsize@internal@rml@@YA_KPEAX@Z 000000018004b92c     frontend.obj
 0004:00001938       $pdata$?pool_create@rml@@YAPEAVMemoryPool@1@_JPEBUMemPoolPolicy@1@@Z 000000018004b938     frontend.obj
 0004:00001944       $pdata$?doThreadShutdownNotification@@YAXPEAVTLSData@internal@rml@@_N@Z 000000018004b944     frontend.obj
 0004:00001950       $pdata$?AtomicFetchStore@@YA_KPECX_K@Z 000000018004b950     frontend.obj
 0004:0000195c       $pdata$??$is_power_of_two@_K@internal@tbb@@YA_N_K@Z 000000018004b95c     frontend.obj
 0004:00001968       $pdata$??$is_power_of_two_at_least@_K_K@internal@tbb@@YA_N_K0@Z 000000018004b968     frontend.obj
 0004:00001974       $pdata$?getThreadMallocTLS@TLSKey@internal@rml@@QEBAPEAVTLSData@23@XZ 000000018004b974     frontend.obj
 0004:00001980       $pdata$?setThreadMallocTLS@TLSKey@internal@rml@@QEAAXPEAVTLSData@23@@Z 000000018004b980     frontend.obj
 0004:0000198c       $pdata$?dtor$0@?0??registerThread@AllLocalCaches@internal@rml@@QEAAXPEAUTLSRemote@23@@Z@4HA 000000018004b98c     frontend.obj
 0004:00001998       $pdata$?dtor$0@?0??unregisterThread@AllLocalCaches@internal@rml@@QEAAXPEAUTLSRemote@23@@Z@4HA 000000018004b998     frontend.obj
 0004:000019a4       $pdata$?dtor$0@?0??cleanup@AllLocalCaches@internal@rml@@QEAA_NPEAUExtMemoryPool@23@_N@Z@4HA 000000018004b9a4     frontend.obj
 0004:000019b0       $pdata$?dtor$0@?0??markUnused@AllLocalCaches@internal@rml@@QEAAXXZ@4HA 000000018004b9b0     frontend.obj
 0004:000019bc       $pdata$?dtor$0@?0??allocate@BootStrapBlocks@internal@rml@@QEAAPEAXPEAVMemoryPool@23@_K@Z@4HA 000000018004b9bc     frontend.obj
 0004:000019c8       $pdata$?dtor$0@?0??getPublicFreeListBlock@Bin@internal@rml@@QEAAPEAVBlock@23@XZ@4HA 000000018004b9c8     frontend.obj
 0004:000019d4       $pdata$?dtor$0@?0??doInitialization@internal@rml@@YA_NXZ@4HA 000000018004b9d4     frontend.obj
 0004:000019e0       $pdata$?dtor$1@?0??doInitialization@internal@rml@@YA_NXZ@4HA 000000018004b9e0     frontend.obj
 0004:000019ec       $pdata$?filt$0@?0??safer_dereference@internal@rml@@YA?AVBackRefIdx@12@PEBV312@@Z@4HA 000000018004b9ec     frontend.obj
 0004:000019f8       $pdata$?dtor$0@?0??doThreadShutdownNotification@@YAXPEAVTLSData@internal@rml@@_N@Z@4HA 000000018004b9f8     frontend.obj
 0004:00001a04       $pdata$??0LifoList@internal@rml@@QEAA@XZ 000000018004ba04     frontend.obj
 0004:00001a10       $pdata$?push@LifoList@internal@rml@@QEAAXPEAVBlock@23@@Z 000000018004ba10     frontend.obj
 0004:00001a1c       $pdata$?pop@LifoList@internal@rml@@QEAAPEAVBlock@23@XZ 000000018004ba1c     frontend.obj
 0004:00001a28       $pdata$?grab@LifoList@internal@rml@@QEAAPEAVBlock@23@XZ 000000018004ba28     frontend.obj
 0004:00001a34       $pdata$?reset@?$BitMaskBasic@$0PC@@internal@rml@@QEAAXXZ 000000018004ba34     frontend.obj
 0004:00001a40       $pdata$?init@CacheBin@?$LargeObjectCacheImpl@U?$LargeObjectCacheProps@$0IAAAAA@$0IBAAAAA@$0IAAAA@$00$00$03@internal@rml@@@internal@rml@@QEAAXXZ 000000018004ba40     frontend.obj
 0004:00001a4c       $pdata$?reset@?$LargeObjectCacheImpl@U?$LargeObjectCacheProps@$0IAAAAA@$0IBAAAAA@$0IAAAA@$00$00$03@internal@rml@@@internal@rml@@QEAAXXZ 000000018004ba4c     frontend.obj
 0004:00001a58       $pdata$?reset@?$BitMaskBasic@$0DPP@@internal@rml@@QEAAXXZ 000000018004ba58     frontend.obj
 0004:00001a64       $pdata$?init@CacheBin@?$LargeObjectCacheImpl@U?$LargeObjectCacheProps@$0CAAA@$0IAAAAA@$0CAAA@$01$01$0BA@@internal@rml@@@internal@rml@@QEAAXXZ 000000018004ba64     frontend.obj
 0004:00001a70       $pdata$?reset@?$LargeObjectCacheImpl@U?$LargeObjectCacheProps@$0CAAA@$0IAAAAA@$0CAAA@$01$01$0BA@@internal@rml@@@internal@rml@@QEAAXXZ 000000018004ba70     frontend.obj
 0004:00001a7c       $pdata$?reset@LargeObjectCache@internal@rml@@QEAAXXZ 000000018004ba7c     frontend.obj
 0004:00001a88       $pdata$?alignToBin@LargeObjectCache@internal@rml@@SA_K_K@Z 000000018004ba88     frontend.obj
 0004:00001a94       $pdata$?inRange@UsedAddressRange@Backend@internal@rml@@QEBA_NPEAX@Z 000000018004ba94     frontend.obj
 0004:00001aa0       $pdata$?getSlabBlock@Backend@internal@rml@@QEAAPEAVBlockI@23@H@Z 000000018004baa0     frontend.obj
 0004:00001aac       $pdata$?putSlabBlock@Backend@internal@rml@@QEAAXPEAVBlockI@23@@Z 000000018004baac     frontend.obj
 0004:00001ab8       $pdata$?setRecommendedMaxSize@Backend@internal@rml@@QEAAX_K@Z 000000018004bab8     frontend.obj
 0004:00001ac4       $pdata$?ptrCanBeValid@Backend@internal@rml@@QEBA_NPEAX@Z 000000018004bac4     frontend.obj
 0004:00001ad0       $pdata$?doPrintStatus@HugePagesStatus@internal@rml@@CAX_NPEBD@Z 000000018004bad0     frontend.obj
 0004:00001adc       $pdata$?parseSystemMemInfo@HugePagesStatus@internal@rml@@AEAAXXZ 000000018004badc     frontend.obj
 0004:00001ae8       $pdata$?init@HugePagesStatus@internal@rml@@QEAAXXZ 000000018004bae8     frontend.obj
 0004:00001af4       $pdata$?dtor$0@?0??init@HugePagesStatus@internal@rml@@QEAAXXZ@4HA 000000018004baf4     frontend.obj
 0004:00001b00       $pdata$?printStatus@HugePagesStatus@internal@rml@@QEAAXXZ 000000018004bb00     frontend.obj
 0004:00001b0c       $pdata$??0HugePagesStatus@internal@rml@@QEAA@XZ 000000018004bb0c     frontend.obj
 0004:00001b18       $pdata$?reset@ExtMemoryPool@internal@rml@@QEAA_NXZ 000000018004bb18     frontend.obj
 0004:00001b24       $pdata$?destroy@ExtMemoryPool@internal@rml@@QEAA_NXZ 000000018004bb24     frontend.obj
 0004:00001b30       $pdata$?isPoolValid@ExtMemoryPool@internal@rml@@QEBA_NXZ 000000018004bb30     frontend.obj
 0004:00001b3c       $pdata$?do_yield@@YAXXZ    000000018004bb3c     frontend.obj
 0004:00001b48       $pdata$?isSolidPtr@internal@rml@@YA_NPEAX@Z 000000018004bb48     frontend.obj
 0004:00001b54       $pdata$?isNotForUse@internal@rml@@YA_NPEAX@Z 000000018004bb54     frontend.obj
 0004:00001b60       $pdata$??0ThreadId@internal@rml@@QEAA@XZ 000000018004bb60     frontend.obj
 0004:00001b6c       $pdata$?isCurrentThreadId@ThreadId@internal@rml@@QEBA_NXZ 000000018004bb6c     frontend.obj
 0004:00001b78       $pdata$?getTLS@MemoryPool@internal@rml@@QEAAPEAVTLSData@23@_N@Z 000000018004bb78     frontend.obj
 0004:00001b84       $pdata$?clearTLS@MemoryPool@internal@rml@@QEAAXXZ 000000018004bb84     frontend.obj
 0004:00001b90       $pdata$??__E?memPoolListLock@MemoryPool@internal@rml@@2VMallocMutex@@A@@YAXXZ 000000018004bb90     frontend.obj
 0004:00001b9c       $pdata$??__EhugePages@internal@rml@@YAXXZ 000000018004bb9c     frontend.obj
 0004:00001ba8       $pdata$?empty@Block@internal@rml@@QEBA_NXZ 000000018004bba8     frontend.obj
 0004:00001bb4       $pdata$?allocate@Block@internal@rml@@QEAAPEAUFreeObject@23@XZ 000000018004bbb4     frontend.obj
 0004:00001bc0       $pdata$?allocateFromFreeList@Block@internal@rml@@QEAAPEAUFreeObject@23@XZ 000000018004bbc0     frontend.obj
 0004:00001bcc       $pdata$?emptyEnoughToUse@Block@internal@rml@@QEAA_NXZ 000000018004bbcc     frontend.obj
 0004:00001bd8       $pdata$?freeListNonNull@Block@internal@rml@@QEAA_NXZ 000000018004bbd8     frontend.obj
 0004:00001be4       $pdata$?freeOwnObject@Block@internal@rml@@QEAAXPEAX@Z 000000018004bbe4     frontend.obj
 0004:00001bf0       $pdata$?getSize@Block@internal@rml@@QEBAIXZ 000000018004bbf0     frontend.obj
 0004:00001bfc       $pdata$?isOwnedByCurrentThread@Block@internal@rml@@QEBA_NXZ 000000018004bbfc     frontend.obj
 0004:00001c08       $pdata$?isStartupAllocObject@Block@internal@rml@@QEBA_NXZ 000000018004bc08     frontend.obj
 0004:00001c14       $pdata$?findObjectToFree@Block@internal@rml@@QEBAPEAUFreeObject@23@PEBX@Z 000000018004bc14     frontend.obj
 0004:00001c20       $pdata$?checkFreePrecond@Block@internal@rml@@QEBAXPEBX@Z 000000018004bc20     frontend.obj
 0004:00001c2c       $pdata$?allocateFromBumpPtr@Block@internal@rml@@AEAAPEAUFreeObject@23@XZ 000000018004bc2c     frontend.obj
 0004:00001c38       $pdata$?findAllocatedObject@Block@internal@rml@@AEBAPEAUFreeObject@23@PEBX@Z 000000018004bc38     frontend.obj
 0004:00001c44       $pdata$?isProperlyPlaced@Block@internal@rml@@AEBA_NPEBX@Z 000000018004bc44     frontend.obj
 0004:00001c50       $pdata$?markOwned@Block@internal@rml@@AEAAXPEAVTLSData@23@@Z 000000018004bc50     frontend.obj
 0004:00001c5c       $pdata$?markOrphaned@Block@internal@rml@@AEAAXXZ 000000018004bc5c     frontend.obj
 0004:00001c68       $pdata$?activeBlockUnused@Bin@internal@rml@@QEBA_NXZ 000000018004bc68     frontend.obj
 0004:00001c74       $pdata$?setActiveBlock@Bin@internal@rml@@QEAAXPEAVBlock@23@@Z 000000018004bc74     frontend.obj
 0004:00001c80       $pdata$?setPreviousBlockActive@Bin@internal@rml@@QEAAPEAVBlock@23@XZ 000000018004bc80     frontend.obj
 0004:00001c8c       $pdata$?verifyInitState@Bin@internal@rml@@QEBAXXZ 000000018004bc8c     frontend.obj
 0004:00001c98       $pdata$??0Bin@internal@rml@@QEAA@XZ 000000018004bc98     frontend.obj
 0004:00001ca4       $pdata$?put@?$LocalLOCImpl@$07$0CA@@internal@rml@@QEAA_NPEAULargeMemoryBlock@23@PEAUExtMemoryPool@23@@Z 000000018004bca4     frontend.obj
 0004:00001cb0       $pdata$?get@?$LocalLOCImpl@$07$0CA@@internal@rml@@QEAAPEAULargeMemoryBlock@23@_K@Z 000000018004bcb0     frontend.obj
 0004:00001cbc       $pdata$?externalCleanup@?$LocalLOCImpl@$07$0CA@@internal@rml@@QEAA_NPEAUExtMemoryPool@23@@Z 000000018004bcbc     frontend.obj
 0004:00001cc8       $pdata$??0TLSData@internal@rml@@QEAA@PEAVMemoryPool@12@PEAVBackend@12@@Z 000000018004bcc8     frontend.obj
 0004:00001cd4       $pdata$?getAllocationBin@TLSData@internal@rml@@QEAAPEAVBin@23@_K@Z 000000018004bcd4     frontend.obj
 0004:00001ce0       $pdata$?externalCleanup@TLSData@internal@rml@@QEAA_NPEAUExtMemoryPool@23@_N@Z 000000018004bce0     frontend.obj
 0004:00001cec       $pdata$??$releaseAll@$0A@@AllLargeBlocksList@internal@rml@@QEAAXPEAVBackend@12@@Z 000000018004bcec     frontend.obj
 0004:00001cf8       $pdata$??$releaseAll@$00@AllLargeBlocksList@internal@rml@@QEAAXPEAVBackend@12@@Z 000000018004bcf8     frontend.obj
 0004:00001d04       $pdata$??__EinitMutex@internal@rml@@YAXXZ 000000018004bd04     frontend.obj
 0004:00001d10       $pdata$?isMallocInitialized@internal@rml@@YA_NXZ 000000018004bd10     frontend.obj
 0004:00001d1c       $pdata$??$isLargeObject@$00@internal@rml@@YA_NPEAX@Z 000000018004bd1c     frontend.obj
 0004:00001d28       $pdata$??$isLargeObject@$0A@@internal@rml@@YA_NPEAX@Z 000000018004bd28     frontend.obj
 0004:00001d34       $pdata$??$is_aligned@VBlockI@internal@rml@@@internal@tbb@@YA_NPEAVBlockI@0rml@@_K@Z 000000018004bd34     frontend.obj
 0004:00001d40       $pdata$??$is_aligned@$$CBX@internal@tbb@@YA_NPEBX_K@Z 000000018004bd40     frontend.obj
 0004:00001d4c       $pdata$??$is_aligned@UFreeObject@internal@rml@@@internal@tbb@@YA_NPEAUFreeObject@0rml@@_K@Z 000000018004bd4c     frontend.obj
 0004:00001d58       $pdata$??$is_aligned@VMemoryPool@internal@rml@@@internal@tbb@@YA_NPEAVMemoryPool@0rml@@_K@Z 000000018004bd58     frontend.obj
 0004:00001d64       $pdata$??$is_aligned@X@internal@tbb@@YA_NPEAX_K@Z 000000018004bd64     frontend.obj
 0004:00001d70       $pdata$__report_securityfailure 000000018004bd70     MSVCRTD:gs_report.obj
 0004:00001d7c       $pdata$__report_securityfailureEx 000000018004bd7c     MSVCRTD:gs_report.obj
 0004:00001d88       $pdata$__report_rangecheckfailure 000000018004bd88     MSVCRTD:gs_report.obj
 0004:00001d94       $pdata$__report_gsfailure  000000018004bd94     MSVCRTD:gs_report.obj
 0004:00001da0       $pdata$capture_current_context 000000018004bda0     MSVCRTD:gs_report.obj
 0004:00001dac       $pdata$capture_previous_context 000000018004bdac     MSVCRTD:gs_report.obj
 0004:00001db8       $pdata$__raise_securityfailure 000000018004bdb8     MSVCRTD:gs_report.obj
 0004:00001dc4       $pdata$__GSHandlerCheckCommon 000000018004bdc4     MSVCRTD:gshandler.obj
 0004:00001dd0       $pdata$__GSHandlerCheck    000000018004bdd0     MSVCRTD:gshandler.obj
 0004:00001de8       $pdata$?dllmain_crt_process_attach@@YAHQEAUHINSTANCE__@@QEAX@Z 000000018004bde8     MSVCRTD:dll_dllmain.obj
 0004:00001df4       $pdata$?fin$0@?0??dllmain_crt_process_attach@@YAHQEAUHINSTANCE__@@QEAX@Z@4HA 000000018004bdf4     MSVCRTD:dll_dllmain.obj
 0004:00001e00       $pdata$?dllmain_crt_process_detach@@YAH_N@Z 000000018004be00     MSVCRTD:dll_dllmain.obj
 0004:00001e0c       $pdata$?fin$0@?0??dllmain_crt_process_detach@@YAH_N@Z@4HA 000000018004be0c     MSVCRTD:dll_dllmain.obj
 0004:00001e18       $pdata$?dllmain_crt_dispatch@@YAHQEAUHINSTANCE__@@KQEAX@Z 000000018004be18     MSVCRTD:dll_dllmain.obj
 0004:00001e24       $pdata$_CRT_INIT           000000018004be24     MSVCRTD:dll_dllmain.obj
 0004:00001e30       $pdata$?dllmain_raw@@YAHQEAUHINSTANCE__@@KQEAX@Z 000000018004be30     MSVCRTD:dll_dllmain.obj
 0004:00001e3c       $pdata$?dllmain_dispatch@@YAHQEAUHINSTANCE__@@KQEAX@Z 000000018004be3c     MSVCRTD:dll_dllmain.obj
 0004:00001e48       $pdata$?filt$0@?0??dllmain_dispatch@@YAHQEAUHINSTANCE__@@KQEAX@Z@4HA 000000018004be48     MSVCRTD:dll_dllmain.obj
 0004:00001e54       $pdata$_DllMainCRTStartup  000000018004be54     MSVCRTD:dll_dllmain.obj
 0004:00001e60       $pdata$__security_init_cookie 000000018004be60     MSVCRTD:gs_support.obj
 0004:00001e6c       $pdata$__get_entropy       000000018004be6c     MSVCRTD:gs_support.obj
 0004:00001e78       $pdata$?__scrt_initialize_type_info@@YAXXZ 000000018004be78     MSVCRTD:tncleanup.obj
 0004:00001e84       $pdata$?__scrt_uninitialize_type_info@@YAXXZ 000000018004be84     MSVCRTD:tncleanup.obj
 0004:00001e90       $pdata$__scrt_initialize_default_local_stdio_options 000000018004be90     MSVCRTD:default_local_stdio_options.obj
 0004:00001e9c       $pdata$atexit              000000018004be9c     MSVCRTD:utility.obj
 0004:00001ea8       $pdata$_onexit             000000018004bea8     MSVCRTD:utility.obj
 0004:00001eb4       $pdata$at_quick_exit       000000018004beb4     MSVCRTD:utility.obj
 0004:00001ec0       $pdata$__scrt_is_nonwritable_in_current_image 000000018004bec0     MSVCRTD:utility.obj
 0004:00001ecc       $pdata$__scrt_is_nonwritable_in_current_image$filt$0 000000018004becc     MSVCRTD:utility.obj
 0004:00001ed8       $pdata$__scrt_acquire_startup_lock 000000018004bed8     MSVCRTD:utility.obj
 0004:00001ee4       $pdata$__scrt_release_startup_lock 000000018004bee4     MSVCRTD:utility.obj
 0004:00001ef0       $pdata$__scrt_initialize_crt 000000018004bef0     MSVCRTD:utility.obj
 0004:00001efc       $pdata$__scrt_uninitialize_crt 000000018004befc     MSVCRTD:utility.obj
 0004:00001f08       $pdata$__scrt_initialize_onexit_tables 000000018004bf08     MSVCRTD:utility.obj
 0004:00001f14       $pdata$__scrt_dllmain_exception_filter 000000018004bf14     MSVCRTD:utility.obj
 0004:00001f20       $pdata$__scrt_dllmain_before_initialize_c 000000018004bf20     MSVCRTD:utility.obj
 0004:00001f2c       $pdata$__scrt_dllmain_after_initialize_c 000000018004bf2c     MSVCRTD:utility.obj
 0004:00001f38       $pdata$__scrt_dllmain_uninitialize_c 000000018004bf38     MSVCRTD:utility.obj
 0004:00001f44       $pdata$__scrt_dllmain_uninitialize_critical 000000018004bf44     MSVCRTD:utility.obj
 0004:00001f50       $pdata$__scrt_dllmain_crt_thread_attach 000000018004bf50     MSVCRTD:utility.obj
 0004:00001f5c       $pdata$__scrt_dllmain_crt_thread_detach 000000018004bf5c     MSVCRTD:utility.obj
 0004:00001f68       $pdata$?configure_argv@__scrt_narrow_argv_policy@@SAHXZ 000000018004bf68     MSVCRTD:utility.obj
 0004:00001f74       $pdata$?initialize_environment@__scrt_narrow_environment_policy@@SAHXZ 000000018004bf74     MSVCRTD:utility.obj
 0004:00001f80       $pdata$?is_potentially_valid_image_base@@YA_NQEAX@Z 000000018004bf80     MSVCRTD:utility.obj
 0004:00001f8c       $pdata$?find_pe_section@@YAPEAU_IMAGE_SECTION_HEADER@@QEAE_K@Z 000000018004bf8c     MSVCRTD:utility.obj
 0004:00001f98       $pdata$??$__crt_fast_decode_pointer@PEAP6AXXZ@@YAPEAP6AXXZQEAP6AXXZ@Z 000000018004bf98     MSVCRTD:utility.obj
 0004:00001fa4       $pdata$??$__crt_fast_encode_pointer@PEAP6AXXZ@@YAPEAP6AXXZQEAP6AXXZ@Z 000000018004bfa4     MSVCRTD:utility.obj
 0004:00001fb0       $pdata$__scrt_get_show_window_mode 000000018004bfb0     MSVCRTD:utility_desktop.obj
 0004:00001fbc       $pdata$__scrt_is_managed_app 000000018004bfbc     MSVCRTD:utility_desktop.obj
 0004:00001fc8       $pdata$__scrt_initialize_mta 000000018004bfc8     MSVCRTD:utility_desktop.obj
 0004:00001fd4       $pdata$__scrt_set_unhandled_exception_filter 000000018004bfd4     MSVCRTD:utility_desktop.obj
 0004:00001fe0       $pdata$__scrt_fastfail     000000018004bfe0     MSVCRTD:utility_desktop.obj
 0004:00001fec       $pdata$__scrt_unhandled_exception_filter 000000018004bfec     MSVCRTD:utility_desktop.obj
 0004:00001ff8       $pdata$_RTC_Initialize     000000018004bff8     MSVCRTD:initsect.obj
 0004:00002004       $pdata$_RTC_Terminate      000000018004c004     MSVCRTD:initsect.obj
 0004:00002010       $pdata$ReadNoFence64       000000018004c010     MSVCRTD:guard_support.obj
 0004:0000201c       $pdata$ReadPointerNoFence  000000018004c01c     MSVCRTD:guard_support.obj
 0004:00002028       $pdata$_guard_icall_checks_enforced 000000018004c028     MSVCRTD:guard_support.obj
 0004:00002034       $pdata$__isa_available_init 000000018004c034     MSVCRTD:cpu_disp.obj
 0004:00002040       $pdata$__scrt_is_ucrt_dll_in_use 000000018004c040     MSVCRTD:ucrt_detection.obj
 0005:000000a0       $R000000                   000000018004d0a0     tbbmalloc.res
 0005:00000468       $R0003C8                   000000018004d468     tbbmalloc.res
